
dram_freq_entry.elf:     file format elf32-littlearm


Disassembly of section .text:

f0000000 <dram_freq_main>:
f0000000:	e59f20a4 	ldr	r2, [pc, #164]	; f00000ac <dram_freq_main+0xac>
f0000004:	e3510000 	cmp	r1, #0
f0000008:	e3a03000 	mov	r3, #0
f000000c:	e92d4010 	push	{r4, lr}
f0000010:	e1a04000 	mov	r4, r0
f0000014:	e5823000 	str	r3, [r2]
f0000018:	0a000021 	beq	f00000a4 <dram_freq_main+0xa4>
f000001c:	e59f208c 	ldr	r2, [pc, #140]	; f00000b0 <dram_freq_main+0xb0>
f0000020:	e59f008c 	ldr	r0, [pc, #140]	; f00000b4 <dram_freq_main+0xb4>
f0000024:	e4c23001 	strb	r3, [r2], #1
f0000028:	e1520000 	cmp	r2, r0
f000002c:	9afffffc 	bls	f0000024 <dram_freq_main+0x24>
f0000030:	e1a0000d 	mov	r0, sp
f0000034:	e59f207c 	ldr	r2, [pc, #124]	; f00000b8 <dram_freq_main+0xb8>
f0000038:	e3073ffc 	movw	r3, #32764	; 0x7ffc
f000003c:	e34f3000 	movt	r3, #61440	; 0xf000
f0000040:	e5820000 	str	r0, [r2]
f0000044:	e1a0d003 	mov	sp, r3
f0000048:	e59f006c 	ldr	r0, [pc, #108]	; f00000bc <dram_freq_main+0xbc>
f000004c:	e3a02050 	mov	r2, #80	; 0x50
f0000050:	eb00001b 	bl	f00000c4 <standby_memcpy>
f0000054:	e3a02040 	mov	r2, #64	; 0x40
f0000058:	e3a01103 	mov	r1, #-1073741824	; 0xc0000000
f000005c:	e59f005c 	ldr	r0, [pc, #92]	; f00000c0 <dram_freq_main+0xc0>
f0000060:	eb000017 	bl	f00000c4 <standby_memcpy>
f0000064:	e3a00001 	mov	r0, #1
f0000068:	eb000394 	bl	f0000ec0 <change_runtime_env>
f000006c:	eb0004a2 	bl	f00012fc <mem_flush_tlb>
f0000070:	eb0004aa 	bl	f0001320 <mem_preload_tlb>
f0000074:	e59f1040 	ldr	r1, [pc, #64]	; f00000bc <dram_freq_main+0xbc>
f0000078:	e1a00004 	mov	r0, r4
f000007c:	eb000a55 	bl	f00029d8 <dram_freq_jum>
f0000080:	e3a00103 	mov	r0, #-1073741824	; 0xc0000000
f0000084:	e59f1034 	ldr	r1, [pc, #52]	; f00000c0 <dram_freq_main+0xc0>
f0000088:	e3a02040 	mov	r2, #64	; 0x40
f000008c:	eb00000c 	bl	f00000c4 <standby_memcpy>
f0000090:	e59f3020 	ldr	r3, [pc, #32]	; f00000b8 <dram_freq_main+0xb8>
f0000094:	e5930000 	ldr	r0, [r3]
f0000098:	eb0003f6 	bl	f0001078 <restore_sp>
f000009c:	e3a00000 	mov	r0, #0
f00000a0:	e8bd8010 	pop	{r4, pc}
f00000a4:	e3e00000 	mvn	r0, #0
f00000a8:	e8bd8010 	pop	{r4, pc}
f00000ac:	f0002f90 			; <UNDEFINED> instruction: 0xf0002f90
f00000b0:	f0002f90 			; <UNDEFINED> instruction: 0xf0002f90
f00000b4:	f0003138 			; <UNDEFINED> instruction: 0xf0003138
f00000b8:	f0002fa4 			; <UNDEFINED> instruction: 0xf0002fa4
f00000bc:	f0002fe8 			; <UNDEFINED> instruction: 0xf0002fe8
f00000c0:	f0002fa8 			; <UNDEFINED> instruction: 0xf0002fa8

f00000c4 <standby_memcpy>:
f00000c4:	e3500000 	cmp	r0, #0
f00000c8:	13510000 	cmpne	r1, #0
f00000cc:	13a03000 	movne	r3, #0
f00000d0:	03a03001 	moveq	r3, #1
f00000d4:	012fff1e 	bxeq	lr
f00000d8:	e3520000 	cmp	r2, #0
f00000dc:	d12fff1e 	bxle	lr
f00000e0:	e7d1c003 	ldrb	ip, [r1, r3]
f00000e4:	e7c0c003 	strb	ip, [r0, r3]
f00000e8:	e2833001 	add	r3, r3, #1
f00000ec:	e1530002 	cmp	r3, r2
f00000f0:	1afffffa 	bne	f00000e0 <standby_memcpy+0x1c>
f00000f4:	e12fff1e 	bx	lr

f00000f8 <serial_init_nommu>:
f00000f8:	e3a03902 	mov	r3, #32768	; 0x8000
f00000fc:	e3a020e1 	mov	r2, #225	; 0xe1
f0000100:	e34031c2 	movt	r3, #450	; 0x1c2
f0000104:	e5832008 	str	r2, [r3, #8]
f0000108:	e12fff1e 	bx	lr

f000010c <serial_puts_nommu>:
f000010c:	e3a00000 	mov	r0, #0
f0000110:	e12fff1e 	bx	lr

f0000114 <serial_gets_nommu>:
f0000114:	e3510000 	cmp	r1, #0
f0000118:	0a00000e 	beq	f0000158 <serial_gets_nommu+0x44>
f000011c:	e3a02902 	mov	r2, #32768	; 0x8000
f0000120:	e3a0c000 	mov	ip, #0
f0000124:	e34021c2 	movt	r2, #450	; 0x1c2
f0000128:	e5d2307c 	ldrb	r3, [r2, #124]	; 0x7c
f000012c:	e3130008 	tst	r3, #8
f0000130:	0afffffc 	beq	f0000128 <serial_gets_nommu+0x14>
f0000134:	e5d23000 	ldrb	r3, [r2]
f0000138:	e3530000 	cmp	r3, #0
f000013c:	0a000003 	beq	f0000150 <serial_gets_nommu+0x3c>
f0000140:	e7c0300c 	strb	r3, [r0, ip]
f0000144:	e28cc001 	add	ip, ip, #1
f0000148:	e15c0001 	cmp	ip, r1
f000014c:	1afffff5 	bne	f0000128 <serial_gets_nommu+0x14>
f0000150:	e28c0001 	add	r0, ip, #1
f0000154:	e12fff1e 	bx	lr
f0000158:	e3a00001 	mov	r0, #1
f000015c:	e12fff1e 	bx	lr

f0000160 <serial_init>:
f0000160:	e3a02000 	mov	r2, #0
f0000164:	e3a03902 	mov	r3, #32768	; 0x8000
f0000168:	e34f21c2 	movt	r2, #61890	; 0xf1c2
f000016c:	e34f31c2 	movt	r3, #61890	; 0xf1c2
f0000170:	e592006c 	ldr	r0, [r2, #108]	; 0x6c
f0000174:	e3a01000 	mov	r1, #0
f0000178:	e3c00801 	bic	r0, r0, #65536	; 0x10000
f000017c:	e582006c 	str	r0, [r2, #108]	; 0x6c
f0000180:	e592006c 	ldr	r0, [r2, #108]	; 0x6c
f0000184:	e3800801 	orr	r0, r0, #65536	; 0x10000
f0000188:	e582006c 	str	r0, [r2, #108]	; 0x6c
f000018c:	e3a00001 	mov	r0, #1
f0000190:	e593200c 	ldr	r2, [r3, #12]
f0000194:	e58300a4 	str	r0, [r3, #164]	; 0xa4
f0000198:	e3820080 	orr	r0, r2, #128	; 0x80
f000019c:	e3c22080 	bic	r2, r2, #128	; 0x80
f00001a0:	e583000c 	str	r0, [r3, #12]
f00001a4:	e3a0000d 	mov	r0, #13
f00001a8:	e5831004 	str	r1, [r3, #4]
f00001ac:	e5830000 	str	r0, [r3]
f00001b0:	e583200c 	str	r2, [r3, #12]
f00001b4:	e3a02003 	mov	r2, #3
f00001b8:	e58310a4 	str	r1, [r3, #164]	; 0xa4
f00001bc:	e583200c 	str	r2, [r3, #12]
f00001c0:	e3a020e1 	mov	r2, #225	; 0xe1
f00001c4:	e5832008 	str	r2, [r3, #8]
f00001c8:	e12fff1e 	bx	lr

f00001cc <serial_puts>:
f00001cc:	e52d4004 	push	{r4}		; (str r4, [sp, #-4]!)
f00001d0:	e5d03000 	ldrb	r3, [r0]
f00001d4:	e3530000 	cmp	r3, #0
f00001d8:	0a00000f 	beq	f000021c <serial_puts+0x50>
f00001dc:	e3a01902 	mov	r1, #32768	; 0x8000
f00001e0:	e2400001 	sub	r0, r0, #1
f00001e4:	e34f11c2 	movt	r1, #61890	; 0xf1c2
f00001e8:	e3a0400d 	mov	r4, #13
f00001ec:	e353000a 	cmp	r3, #10
f00001f0:	0a00000c 	beq	f0000228 <serial_puts+0x5c>
f00001f4:	e5f0c001 	ldrb	ip, [r0, #1]!
f00001f8:	e5d12080 	ldrb	r2, [r1, #128]	; 0x80
f00001fc:	e3a03902 	mov	r3, #32768	; 0x8000
f0000200:	e34f31c2 	movt	r3, #61890	; 0xf1c2
f0000204:	e352002f 	cmp	r2, #47	; 0x2f
f0000208:	8afffffa 	bhi	f00001f8 <serial_puts+0x2c>
f000020c:	e5c3c000 	strb	ip, [r3]
f0000210:	e5d03001 	ldrb	r3, [r0, #1]
f0000214:	e3530000 	cmp	r3, #0
f0000218:	1afffff3 	bne	f00001ec <serial_puts+0x20>
f000021c:	e3a00000 	mov	r0, #0
f0000220:	e8bd0010 	pop	{r4}
f0000224:	e12fff1e 	bx	lr
f0000228:	e5d12080 	ldrb	r2, [r1, #128]	; 0x80
f000022c:	e3a03902 	mov	r3, #32768	; 0x8000
f0000230:	e34f31c2 	movt	r3, #61890	; 0xf1c2
f0000234:	e352002f 	cmp	r2, #47	; 0x2f
f0000238:	8afffffa 	bhi	f0000228 <serial_puts+0x5c>
f000023c:	e5c34000 	strb	r4, [r3]
f0000240:	eaffffeb 	b	f00001f4 <serial_puts+0x28>

f0000244 <serial_gets>:
f0000244:	e3510000 	cmp	r1, #0
f0000248:	0a00000e 	beq	f0000288 <serial_gets+0x44>
f000024c:	e3a02902 	mov	r2, #32768	; 0x8000
f0000250:	e3a0c000 	mov	ip, #0
f0000254:	e34f21c2 	movt	r2, #61890	; 0xf1c2
f0000258:	e5d2307c 	ldrb	r3, [r2, #124]	; 0x7c
f000025c:	e3130008 	tst	r3, #8
f0000260:	0afffffc 	beq	f0000258 <serial_gets+0x14>
f0000264:	e5d23000 	ldrb	r3, [r2]
f0000268:	e3530000 	cmp	r3, #0
f000026c:	0a000003 	beq	f0000280 <serial_gets+0x3c>
f0000270:	e7c0300c 	strb	r3, [r0, ip]
f0000274:	e28cc001 	add	ip, ip, #1
f0000278:	e15c0001 	cmp	ip, r1
f000027c:	1afffff5 	bne	f0000258 <serial_gets+0x14>
f0000280:	e28c0001 	add	r0, ip, #1
f0000284:	e12fff1e 	bx	lr
f0000288:	e3a00001 	mov	r0, #1
f000028c:	e12fff1e 	bx	lr

f0000290 <strlen>:
f0000290:	e5d03000 	ldrb	r3, [r0]
f0000294:	e3530000 	cmp	r3, #0
f0000298:	0a000005 	beq	f00002b4 <strlen+0x24>
f000029c:	e1a03000 	mov	r3, r0
f00002a0:	e5f32001 	ldrb	r2, [r3, #1]!
f00002a4:	e3520000 	cmp	r2, #0
f00002a8:	1afffffc 	bne	f00002a0 <strlen+0x10>
f00002ac:	e0600003 	rsb	r0, r0, r3
f00002b0:	e12fff1e 	bx	lr
f00002b4:	e1a00003 	mov	r0, r3
f00002b8:	e12fff1e 	bx	lr

f00002bc <strcpy>:
f00002bc:	e2411001 	sub	r1, r1, #1
f00002c0:	e1a02000 	mov	r2, r0
f00002c4:	e5f13001 	ldrb	r3, [r1, #1]!
f00002c8:	e3530000 	cmp	r3, #0
f00002cc:	e4c23001 	strb	r3, [r2], #1
f00002d0:	1afffffb 	bne	f00002c4 <strcpy+0x8>
f00002d4:	e12fff1e 	bx	lr

f00002d8 <strncpy>:
f00002d8:	e3520000 	cmp	r2, #0
f00002dc:	012fff1e 	bxeq	lr
f00002e0:	e240c001 	sub	ip, r0, #1
f00002e4:	e5d13000 	ldrb	r3, [r1]
f00002e8:	e3530000 	cmp	r3, #0
f00002ec:	e5ec3001 	strb	r3, [ip, #1]!
f00002f0:	12811001 	addne	r1, r1, #1
f00002f4:	e2522001 	subs	r2, r2, #1
f00002f8:	1afffff9 	bne	f00002e4 <strncpy+0xc>
f00002fc:	e12fff1e 	bx	lr

f0000300 <strcat>:
f0000300:	e5d03000 	ldrb	r3, [r0]
f0000304:	e3530000 	cmp	r3, #0
f0000308:	01a02000 	moveq	r2, r0
f000030c:	0a000005 	beq	f0000328 <strcat+0x28>
f0000310:	e1a03000 	mov	r3, r0
f0000314:	e2833001 	add	r3, r3, #1
f0000318:	e5d3c000 	ldrb	ip, [r3]
f000031c:	e1a02003 	mov	r2, r3
f0000320:	e35c0000 	cmp	ip, #0
f0000324:	1afffffa 	bne	f0000314 <strcat+0x14>
f0000328:	e2411001 	sub	r1, r1, #1
f000032c:	e5f13001 	ldrb	r3, [r1, #1]!
f0000330:	e3530000 	cmp	r3, #0
f0000334:	e4c23001 	strb	r3, [r2], #1
f0000338:	1afffffb 	bne	f000032c <strcat+0x2c>
f000033c:	e12fff1e 	bx	lr

f0000340 <strncat>:
f0000340:	e3520000 	cmp	r2, #0
f0000344:	e52d4004 	push	{r4}		; (str r4, [sp, #-4]!)
f0000348:	0a000014 	beq	f00003a0 <strncat+0x60>
f000034c:	e5d03000 	ldrb	r3, [r0]
f0000350:	e3530000 	cmp	r3, #0
f0000354:	01a0c000 	moveq	ip, r0
f0000358:	0a000005 	beq	f0000374 <strncat+0x34>
f000035c:	e1a03000 	mov	r3, r0
f0000360:	e2833001 	add	r3, r3, #1
f0000364:	e5d34000 	ldrb	r4, [r3]
f0000368:	e1a0c003 	mov	ip, r3
f000036c:	e3540000 	cmp	r4, #0
f0000370:	1afffffa 	bne	f0000360 <strncat+0x20>
f0000374:	e2411001 	sub	r1, r1, #1
f0000378:	ea000000 	b	f0000380 <strncat+0x40>
f000037c:	e1a0c003 	mov	ip, r3
f0000380:	e5f14001 	ldrb	r4, [r1, #1]!
f0000384:	e1a0300c 	mov	r3, ip
f0000388:	e3540000 	cmp	r4, #0
f000038c:	e4c34001 	strb	r4, [r3], #1
f0000390:	0a000002 	beq	f00003a0 <strncat+0x60>
f0000394:	e2522001 	subs	r2, r2, #1
f0000398:	1afffff7 	bne	f000037c <strncat+0x3c>
f000039c:	e5cc2001 	strb	r2, [ip, #1]
f00003a0:	e8bd0010 	pop	{r4}
f00003a4:	e12fff1e 	bx	lr

f00003a8 <strcmp>:
f00003a8:	e4d03001 	ldrb	r3, [r0], #1
f00003ac:	e4d12001 	ldrb	r2, [r1], #1
f00003b0:	e1530002 	cmp	r3, r2
f00003b4:	1a000003 	bne	f00003c8 <strcmp+0x20>
f00003b8:	e3530000 	cmp	r3, #0
f00003bc:	1afffff9 	bne	f00003a8 <strcmp>
f00003c0:	e1a00003 	mov	r0, r3
f00003c4:	e12fff1e 	bx	lr
f00003c8:	e1520003 	cmp	r2, r3
f00003cc:	93a00001 	movls	r0, #1
f00003d0:	83e00000 	mvnhi	r0, #0
f00003d4:	e12fff1e 	bx	lr

f00003d8 <strncmp>:
f00003d8:	e3520000 	cmp	r2, #0
f00003dc:	01a00002 	moveq	r0, r2
f00003e0:	012fff1e 	bxeq	lr
f00003e4:	e5d03000 	ldrb	r3, [r0]
f00003e8:	e5d1c000 	ldrb	ip, [r1]
f00003ec:	e153000c 	cmp	r3, ip
f00003f0:	1a00000e 	bne	f0000430 <strncmp+0x58>
f00003f4:	e3530000 	cmp	r3, #0
f00003f8:	12403001 	subne	r3, r0, #1
f00003fc:	10832002 	addne	r2, r3, r2
f0000400:	1a000006 	bne	f0000420 <strncmp+0x48>
f0000404:	ea00000f 	b	f0000448 <strncmp+0x70>
f0000408:	e5f03001 	ldrb	r3, [r0, #1]!
f000040c:	e5f1c001 	ldrb	ip, [r1, #1]!
f0000410:	e153000c 	cmp	r3, ip
f0000414:	1a000005 	bne	f0000430 <strncmp+0x58>
f0000418:	e3530000 	cmp	r3, #0
f000041c:	0a000007 	beq	f0000440 <strncmp+0x68>
f0000420:	e1500002 	cmp	r0, r2
f0000424:	1afffff7 	bne	f0000408 <strncmp+0x30>
f0000428:	e3a00000 	mov	r0, #0
f000042c:	e12fff1e 	bx	lr
f0000430:	e153000c 	cmp	r3, ip
f0000434:	23a00001 	movcs	r0, #1
f0000438:	33e00000 	mvncc	r0, #0
f000043c:	e12fff1e 	bx	lr
f0000440:	e1a00003 	mov	r0, r3
f0000444:	e12fff1e 	bx	lr
f0000448:	e1a00003 	mov	r0, r3
f000044c:	e12fff1e 	bx	lr

f0000450 <itoa>:
f0000450:	e92d47f0 	push	{r4, r5, r6, r7, r8, r9, sl, lr}
f0000454:	e3500000 	cmp	r0, #0
f0000458:	e59f60d0 	ldr	r6, [pc, #208]	; f0000530 <itoa+0xe0>
f000045c:	e1a07001 	mov	r7, r1
f0000460:	e1a04000 	mov	r4, r0
f0000464:	e1a05002 	mov	r5, r2
f0000468:	e24dd028 	sub	sp, sp, #40	; 0x28
f000046c:	e28dc004 	add	ip, sp, #4
f0000470:	e8b6000f 	ldm	r6!, {r0, r1, r2, r3}
f0000474:	e5966000 	ldr	r6, [r6]
f0000478:	e8ac000f 	stmia	ip!, {r0, r1, r2, r3}
f000047c:	03a03030 	moveq	r3, #48	; 0x30
f0000480:	05c74001 	strbeq	r4, [r7, #1]
f0000484:	e5cc6000 	strb	r6, [ip]
f0000488:	05c73000 	strbeq	r3, [r7]
f000048c:	0a000024 	beq	f0000524 <itoa+0xd4>
f0000490:	b2644000 	rsblt	r4, r4, #0
f0000494:	b3a09001 	movlt	r9, #1
f0000498:	a3a09000 	movge	r9, #0
f000049c:	e3a06000 	mov	r6, #0
f00004a0:	e28da018 	add	sl, sp, #24
f00004a4:	ea000000 	b	f00004ac <itoa+0x5c>
f00004a8:	e1a06003 	mov	r6, r3
f00004ac:	e1a00004 	mov	r0, r4
f00004b0:	e1a01005 	mov	r1, r5
f00004b4:	eb00024f 	bl	f0000df8 <__aeabi_idivmod>
f00004b8:	e28d3028 	add	r3, sp, #40	; 0x28
f00004bc:	e1a00004 	mov	r0, r4
f00004c0:	e0831001 	add	r1, r3, r1
f00004c4:	e5518024 	ldrb	r8, [r1, #-36]	; 0x24
f00004c8:	e1a01005 	mov	r1, r5
f00004cc:	e7ca8006 	strb	r8, [sl, r6]
f00004d0:	eb00020f 	bl	f0000d14 <__aeabi_idiv>
f00004d4:	e2504000 	subs	r4, r0, #0
f00004d8:	e2863001 	add	r3, r6, #1
f00004dc:	cafffff1 	bgt	f00004a8 <itoa+0x58>
f00004e0:	e3590000 	cmp	r9, #0
f00004e4:	e1a02006 	mov	r2, r6
f00004e8:	13a0302d 	movne	r3, #45	; 0x2d
f00004ec:	13a09001 	movne	r9, #1
f00004f0:	15c73000 	strbne	r3, [r7]
f00004f4:	e2493001 	sub	r3, r9, #1
f00004f8:	e0873003 	add	r3, r7, r3
f00004fc:	ea000000 	b	f0000504 <itoa+0xb4>
f0000500:	e7da8006 	ldrb	r8, [sl, r6]
f0000504:	e2466001 	sub	r6, r6, #1
f0000508:	e5e38001 	strb	r8, [r3, #1]!
f000050c:	e3760001 	cmn	r6, #1
f0000510:	1afffffa 	bne	f0000500 <itoa+0xb0>
f0000514:	e2899001 	add	r9, r9, #1
f0000518:	e3a03000 	mov	r3, #0
f000051c:	e0879009 	add	r9, r7, r9
f0000520:	e7c93002 	strb	r3, [r9, r2]
f0000524:	e1a00007 	mov	r0, r7
f0000528:	e28dd028 	add	sp, sp, #40	; 0x28
f000052c:	e8bd87f0 	pop	{r4, r5, r6, r7, r8, r9, sl, pc}
f0000530:	f0002ecc 			; <UNDEFINED> instruction: 0xf0002ecc

f0000534 <utoa>:
f0000534:	e92d45f0 	push	{r4, r5, r6, r7, r8, sl, lr}
f0000538:	e3500000 	cmp	r0, #0
f000053c:	e59f60a8 	ldr	r6, [pc, #168]	; f00005ec <utoa+0xb8>
f0000540:	e1a07001 	mov	r7, r1
f0000544:	e1a04000 	mov	r4, r0
f0000548:	e1a05002 	mov	r5, r2
f000054c:	e24dd02c 	sub	sp, sp, #44	; 0x2c
f0000550:	13a08000 	movne	r8, #0
f0000554:	e28dc004 	add	ip, sp, #4
f0000558:	128da018 	addne	sl, sp, #24
f000055c:	e8b6000f 	ldm	r6!, {r0, r1, r2, r3}
f0000560:	e5966000 	ldr	r6, [r6]
f0000564:	e8ac000f 	stmia	ip!, {r0, r1, r2, r3}
f0000568:	03a03030 	moveq	r3, #48	; 0x30
f000056c:	05c74001 	strbeq	r4, [r7, #1]
f0000570:	e5cc6000 	strb	r6, [ip]
f0000574:	05c73000 	strbeq	r3, [r7]
f0000578:	1a000001 	bne	f0000584 <utoa+0x50>
f000057c:	ea000017 	b	f00005e0 <utoa+0xac>
f0000580:	e1a08003 	mov	r8, r3
f0000584:	e1a00004 	mov	r0, r4
f0000588:	e1a01005 	mov	r1, r5
f000058c:	eb000213 	bl	f0000de0 <__aeabi_uidivmod>
f0000590:	e28d3028 	add	r3, sp, #40	; 0x28
f0000594:	e1a00004 	mov	r0, r4
f0000598:	e0831001 	add	r1, r3, r1
f000059c:	e5516024 	ldrb	r6, [r1, #-36]	; 0x24
f00005a0:	e1a01005 	mov	r1, r5
f00005a4:	e7ca6008 	strb	r6, [sl, r8]
f00005a8:	eb0001b2 	bl	f0000c78 <__aeabi_uidiv>
f00005ac:	e2504000 	subs	r4, r0, #0
f00005b0:	e2883001 	add	r3, r8, #1
f00005b4:	1afffff1 	bne	f0000580 <utoa+0x4c>
f00005b8:	e2472001 	sub	r2, r7, #1
f00005bc:	e08a3008 	add	r3, sl, r8
f00005c0:	ea000000 	b	f00005c8 <utoa+0x94>
f00005c4:	e5736001 	ldrb	r6, [r3, #-1]!
f00005c8:	e153000a 	cmp	r3, sl
f00005cc:	e5e26001 	strb	r6, [r2, #1]!
f00005d0:	1afffffb 	bne	f00005c4 <utoa+0x90>
f00005d4:	e0878008 	add	r8, r7, r8
f00005d8:	e3a03000 	mov	r3, #0
f00005dc:	e5c83001 	strb	r3, [r8, #1]
f00005e0:	e1a00007 	mov	r0, r7
f00005e4:	e28dd02c 	add	sp, sp, #44	; 0x2c
f00005e8:	e8bd85f0 	pop	{r4, r5, r6, r7, r8, sl, pc}
f00005ec:	f0002ecc 			; <UNDEFINED> instruction: 0xf0002ecc

f00005f0 <print_align>:
f00005f0:	e92d40f0 	push	{r4, r5, r6, r7, lr}
f00005f4:	e1510002 	cmp	r1, r2
f00005f8:	e59f4048 	ldr	r4, [pc, #72]	; f0000648 <print_align+0x58>
f00005fc:	e1a05001 	mov	r5, r1
f0000600:	e1a06002 	mov	r6, r2
f0000604:	e1a07000 	mov	r7, r0
f0000608:	e24dd01c 	sub	sp, sp, #28
f000060c:	a3a05000 	movge	r5, #0
f0000610:	e28dc004 	add	ip, sp, #4
f0000614:	e8b4000f 	ldm	r4!, {r0, r1, r2, r3}
f0000618:	e5944000 	ldr	r4, [r4]
f000061c:	e8ac000f 	stmia	ip!, {r0, r1, r2, r3}
f0000620:	e5cc4000 	strb	r4, [ip]
f0000624:	aa000004 	bge	f000063c <print_align+0x4c>
f0000628:	e0655006 	rsb	r5, r5, r6
f000062c:	e1a00007 	mov	r0, r7
f0000630:	e28d1004 	add	r1, sp, #4
f0000634:	e1a02005 	mov	r2, r5
f0000638:	ebffff40 	bl	f0000340 <strncat>
f000063c:	e1a00005 	mov	r0, r5
f0000640:	e28dd01c 	add	sp, sp, #28
f0000644:	e8bd80f0 	pop	{r4, r5, r6, r7, pc}
f0000648:	f0002ee0 			; <UNDEFINED> instruction: 0xf0002ee0

f000064c <printk>:
f000064c:	e92d000f 	push	{r0, r1, r2, r3}
f0000650:	e59f32dc 	ldr	r3, [pc, #732]	; f0000934 <printk+0x2e8>
f0000654:	e92d47f0 	push	{r4, r5, r6, r7, r8, r9, sl, lr}
f0000658:	e24dd018 	sub	sp, sp, #24
f000065c:	e5933000 	ldr	r3, [r3]
f0000660:	e59d4038 	ldr	r4, [sp, #56]	; 0x38
f0000664:	e3530000 	cmp	r3, #0
f0000668:	13a00000 	movne	r0, #0
f000066c:	0a000003 	beq	f0000680 <printk+0x34>
f0000670:	e28dd018 	add	sp, sp, #24
f0000674:	e8bd47f0 	pop	{r4, r5, r6, r7, r8, r9, sl, lr}
f0000678:	e28dd010 	add	sp, sp, #16
f000067c:	e12fff1e 	bx	lr
f0000680:	e5d43000 	ldrb	r3, [r4]
f0000684:	e28d203c 	add	r2, sp, #60	; 0x3c
f0000688:	e59f82a8 	ldr	r8, [pc, #680]	; f0000938 <printk+0x2ec>
f000068c:	e58d2014 	str	r2, [sp, #20]
f0000690:	e3530000 	cmp	r3, #0
f0000694:	01a05008 	moveq	r5, r8
f0000698:	0a00002c 	beq	f0000750 <printk+0x104>
f000069c:	e3a09025 	mov	r9, #37	; 0x25
f00006a0:	e28d6004 	add	r6, sp, #4
f00006a4:	e1a05008 	mov	r5, r8
f00006a8:	ea000003 	b	f00006bc <printk+0x70>
f00006ac:	e5d43001 	ldrb	r3, [r4, #1]
f00006b0:	e2844001 	add	r4, r4, #1
f00006b4:	e3530000 	cmp	r3, #0
f00006b8:	0a000024 	beq	f0000750 <printk+0x104>
f00006bc:	e3530025 	cmp	r3, #37	; 0x25
f00006c0:	14c53001 	strbne	r3, [r5], #1
f00006c4:	1afffff8 	bne	f00006ac <printk+0x60>
f00006c8:	e5d43001 	ldrb	r3, [r4, #1]
f00006cc:	e2432031 	sub	r2, r3, #49	; 0x31
f00006d0:	e3520008 	cmp	r2, #8
f00006d4:	92437030 	subls	r7, r3, #48	; 0x30
f00006d8:	95d43002 	ldrbls	r3, [r4, #2]
f00006dc:	82844001 	addhi	r4, r4, #1
f00006e0:	83a07000 	movhi	r7, #0
f00006e4:	92844002 	addls	r4, r4, #2
f00006e8:	e2433063 	sub	r3, r3, #99	; 0x63
f00006ec:	e3530015 	cmp	r3, #21
f00006f0:	979ff103 	ldrls	pc, [pc, r3, lsl #2]
f00006f4:	ea00006d 	b	f00008b0 <printk+0x264>
f00006f8:	f0000898 			; <UNDEFINED> instruction: 0xf0000898
f00006fc:	f00008c4 			; <UNDEFINED> instruction: 0xf00008c4
f0000700:	f00008b0 			; <UNDEFINED> instruction: 0xf00008b0
f0000704:	f00008b0 			; <UNDEFINED> instruction: 0xf00008b0
f0000708:	f00008b0 			; <UNDEFINED> instruction: 0xf00008b0
f000070c:	f00008b0 			; <UNDEFINED> instruction: 0xf00008b0
f0000710:	f00008b0 			; <UNDEFINED> instruction: 0xf00008b0
f0000714:	f00008b0 			; <UNDEFINED> instruction: 0xf00008b0
f0000718:	f00008b0 			; <UNDEFINED> instruction: 0xf00008b0
f000071c:	f00008b0 			; <UNDEFINED> instruction: 0xf00008b0
f0000720:	f00008b0 			; <UNDEFINED> instruction: 0xf00008b0
f0000724:	f00008b0 			; <UNDEFINED> instruction: 0xf00008b0
f0000728:	f00008b0 			; <UNDEFINED> instruction: 0xf00008b0
f000072c:	f0000828 			; <UNDEFINED> instruction: 0xf0000828
f0000730:	f00008b0 			; <UNDEFINED> instruction: 0xf00008b0
f0000734:	f00008b0 			; <UNDEFINED> instruction: 0xf00008b0
f0000738:	f00007d8 			; <UNDEFINED> instruction: 0xf00007d8
f000073c:	f00008b0 			; <UNDEFINED> instruction: 0xf00008b0
f0000740:	f0000768 			; <UNDEFINED> instruction: 0xf0000768
f0000744:	f00008b0 			; <UNDEFINED> instruction: 0xf00008b0
f0000748:	f00008b0 			; <UNDEFINED> instruction: 0xf00008b0
f000074c:	f0000828 			; <UNDEFINED> instruction: 0xf0000828
f0000750:	e3a03000 	mov	r3, #0
f0000754:	e59f01dc 	ldr	r0, [pc, #476]	; f0000938 <printk+0x2ec>
f0000758:	e4c53001 	strb	r3, [r5], #1
f000075c:	ebfffe9a 	bl	f00001cc <serial_puts>
f0000760:	e0680005 	rsb	r0, r8, r5
f0000764:	eaffffc1 	b	f0000670 <printk+0x24>
f0000768:	e59d0014 	ldr	r0, [sp, #20]
f000076c:	e1a01006 	mov	r1, r6
f0000770:	e3a0200a 	mov	r2, #10
f0000774:	e2803004 	add	r3, r0, #4
f0000778:	e5900000 	ldr	r0, [r0]
f000077c:	e58d3014 	str	r3, [sp, #20]
f0000780:	ebffff6b 	bl	f0000534 <utoa>
f0000784:	e5d6a000 	ldrb	sl, [r6]
f0000788:	e35a0000 	cmp	sl, #0
f000078c:	0a000004 	beq	f00007a4 <printk+0x158>
f0000790:	e1a0a006 	mov	sl, r6
f0000794:	e5fa3001 	ldrb	r3, [sl, #1]!
f0000798:	e3530000 	cmp	r3, #0
f000079c:	1afffffc 	bne	f0000794 <printk+0x148>
f00007a0:	e066a00a 	rsb	sl, r6, sl
f00007a4:	e1a0100a 	mov	r1, sl
f00007a8:	e1a00006 	mov	r0, r6
f00007ac:	e1a02007 	mov	r2, r7
f00007b0:	ebffff8e 	bl	f00005f0 <print_align>
f00007b4:	e28d3003 	add	r3, sp, #3
f00007b8:	e080000a 	add	r0, r0, sl
f00007bc:	e1a01005 	mov	r1, r5
f00007c0:	e5f32001 	ldrb	r2, [r3, #1]!
f00007c4:	e3520000 	cmp	r2, #0
f00007c8:	e4c12001 	strb	r2, [r1], #1
f00007cc:	1afffffb 	bne	f00007c0 <printk+0x174>
f00007d0:	e0855000 	add	r5, r5, r0
f00007d4:	eaffffb4 	b	f00006ac <printk+0x60>
f00007d8:	e59d3014 	ldr	r3, [sp, #20]
f00007dc:	e1a01005 	mov	r1, r5
f00007e0:	e2832004 	add	r2, r3, #4
f00007e4:	e58d2014 	str	r2, [sp, #20]
f00007e8:	e5930000 	ldr	r0, [r3]
f00007ec:	e2402001 	sub	r2, r0, #1
f00007f0:	e5f23001 	ldrb	r3, [r2, #1]!
f00007f4:	e3530000 	cmp	r3, #0
f00007f8:	e4c13001 	strb	r3, [r1], #1
f00007fc:	1afffffb 	bne	f00007f0 <printk+0x1a4>
f0000800:	e5d03000 	ldrb	r3, [r0]
f0000804:	e3530000 	cmp	r3, #0
f0000808:	0a000004 	beq	f0000820 <printk+0x1d4>
f000080c:	e1a03000 	mov	r3, r0
f0000810:	e5f32001 	ldrb	r2, [r3, #1]!
f0000814:	e3520000 	cmp	r2, #0
f0000818:	1afffffc 	bne	f0000810 <printk+0x1c4>
f000081c:	e0603003 	rsb	r3, r0, r3
f0000820:	e0855003 	add	r5, r5, r3
f0000824:	eaffffa0 	b	f00006ac <printk+0x60>
f0000828:	e59d0014 	ldr	r0, [sp, #20]
f000082c:	e1a01006 	mov	r1, r6
f0000830:	e3a02010 	mov	r2, #16
f0000834:	e2803004 	add	r3, r0, #4
f0000838:	e5900000 	ldr	r0, [r0]
f000083c:	e58d3014 	str	r3, [sp, #20]
f0000840:	ebffff3b 	bl	f0000534 <utoa>
f0000844:	e5d6a000 	ldrb	sl, [r6]
f0000848:	e35a0000 	cmp	sl, #0
f000084c:	0a000004 	beq	f0000864 <printk+0x218>
f0000850:	e1a0a006 	mov	sl, r6
f0000854:	e5fa3001 	ldrb	r3, [sl, #1]!
f0000858:	e3530000 	cmp	r3, #0
f000085c:	1afffffc 	bne	f0000854 <printk+0x208>
f0000860:	e066a00a 	rsb	sl, r6, sl
f0000864:	e1a0100a 	mov	r1, sl
f0000868:	e1a00006 	mov	r0, r6
f000086c:	e1a02007 	mov	r2, r7
f0000870:	ebffff5e 	bl	f00005f0 <print_align>
f0000874:	e28d3003 	add	r3, sp, #3
f0000878:	e080000a 	add	r0, r0, sl
f000087c:	e1a01005 	mov	r1, r5
f0000880:	e5f32001 	ldrb	r2, [r3, #1]!
f0000884:	e3520000 	cmp	r2, #0
f0000888:	e4c12001 	strb	r2, [r1], #1
f000088c:	1afffffb 	bne	f0000880 <printk+0x234>
f0000890:	e0855000 	add	r5, r5, r0
f0000894:	eaffff84 	b	f00006ac <printk+0x60>
f0000898:	e59d3014 	ldr	r3, [sp, #20]
f000089c:	e5932000 	ldr	r2, [r3]
f00008a0:	e2833004 	add	r3, r3, #4
f00008a4:	e58d3014 	str	r3, [sp, #20]
f00008a8:	e5c52000 	strb	r2, [r5]
f00008ac:	eaffff7e 	b	f00006ac <printk+0x60>
f00008b0:	e5c59000 	strb	r9, [r5]
f00008b4:	e5d43000 	ldrb	r3, [r4]
f00008b8:	e5c53001 	strb	r3, [r5, #1]
f00008bc:	e2855002 	add	r5, r5, #2
f00008c0:	eaffff79 	b	f00006ac <printk+0x60>
f00008c4:	e59d0014 	ldr	r0, [sp, #20]
f00008c8:	e1a01006 	mov	r1, r6
f00008cc:	e3a0200a 	mov	r2, #10
f00008d0:	e2803004 	add	r3, r0, #4
f00008d4:	e5900000 	ldr	r0, [r0]
f00008d8:	e58d3014 	str	r3, [sp, #20]
f00008dc:	ebfffedb 	bl	f0000450 <itoa>
f00008e0:	e5d6a000 	ldrb	sl, [r6]
f00008e4:	e35a0000 	cmp	sl, #0
f00008e8:	0a000004 	beq	f0000900 <printk+0x2b4>
f00008ec:	e1a0a006 	mov	sl, r6
f00008f0:	e5fa3001 	ldrb	r3, [sl, #1]!
f00008f4:	e3530000 	cmp	r3, #0
f00008f8:	1afffffc 	bne	f00008f0 <printk+0x2a4>
f00008fc:	e066a00a 	rsb	sl, r6, sl
f0000900:	e1a0100a 	mov	r1, sl
f0000904:	e1a00006 	mov	r0, r6
f0000908:	e1a02007 	mov	r2, r7
f000090c:	ebffff37 	bl	f00005f0 <print_align>
f0000910:	e28d3003 	add	r3, sp, #3
f0000914:	e080000a 	add	r0, r0, sl
f0000918:	e1a01005 	mov	r1, r5
f000091c:	e5f32001 	ldrb	r2, [r3, #1]!
f0000920:	e3520000 	cmp	r2, #0
f0000924:	e4c12001 	strb	r2, [r1], #1
f0000928:	1afffffb 	bne	f000091c <printk+0x2d0>
f000092c:	e0855000 	add	r5, r5, r0
f0000930:	eaffff5d 	b	f00006ac <printk+0x60>
f0000934:	f0002f90 			; <UNDEFINED> instruction: 0xf0002f90
f0000938:	f0003038 			; <UNDEFINED> instruction: 0xf0003038

f000093c <printk_nommu>:
f000093c:	e92d000f 	push	{r0, r1, r2, r3}
f0000940:	e92d47f0 	push	{r4, r5, r6, r7, r8, r9, sl, lr}
f0000944:	e24dd018 	sub	sp, sp, #24
f0000948:	e28d303c 	add	r3, sp, #60	; 0x3c
f000094c:	e59d4038 	ldr	r4, [sp, #56]	; 0x38
f0000950:	e58d3014 	str	r3, [sp, #20]
f0000954:	e59f82b0 	ldr	r8, [pc, #688]	; f0000c0c <printk_nommu+0x2d0>
f0000958:	e5d43000 	ldrb	r3, [r4]
f000095c:	e3530000 	cmp	r3, #0
f0000960:	01a05008 	moveq	r5, r8
f0000964:	0a00002c 	beq	f0000a1c <printk_nommu+0xe0>
f0000968:	e3a09025 	mov	r9, #37	; 0x25
f000096c:	e28d6004 	add	r6, sp, #4
f0000970:	e1a05008 	mov	r5, r8
f0000974:	ea000003 	b	f0000988 <printk_nommu+0x4c>
f0000978:	e5d43001 	ldrb	r3, [r4, #1]
f000097c:	e2844001 	add	r4, r4, #1
f0000980:	e3530000 	cmp	r3, #0
f0000984:	0a000024 	beq	f0000a1c <printk_nommu+0xe0>
f0000988:	e3530025 	cmp	r3, #37	; 0x25
f000098c:	14c53001 	strbne	r3, [r5], #1
f0000990:	1afffff8 	bne	f0000978 <printk_nommu+0x3c>
f0000994:	e5d43001 	ldrb	r3, [r4, #1]
f0000998:	e2432031 	sub	r2, r3, #49	; 0x31
f000099c:	e3520008 	cmp	r2, #8
f00009a0:	92437030 	subls	r7, r3, #48	; 0x30
f00009a4:	95d43002 	ldrbls	r3, [r4, #2]
f00009a8:	82844001 	addhi	r4, r4, #1
f00009ac:	83a07000 	movhi	r7, #0
f00009b0:	92844002 	addls	r4, r4, #2
f00009b4:	e2433063 	sub	r3, r3, #99	; 0x63
f00009b8:	e3530015 	cmp	r3, #21
f00009bc:	979ff103 	ldrls	pc, [pc, r3, lsl #2]
f00009c0:	ea000070 	b	f0000b88 <printk_nommu+0x24c>
f00009c4:	f0000b70 			; <UNDEFINED> instruction: 0xf0000b70
f00009c8:	f0000b9c 			; <UNDEFINED> instruction: 0xf0000b9c
f00009cc:	f0000b88 			; <UNDEFINED> instruction: 0xf0000b88
f00009d0:	f0000b88 			; <UNDEFINED> instruction: 0xf0000b88
f00009d4:	f0000b88 			; <UNDEFINED> instruction: 0xf0000b88
f00009d8:	f0000b88 			; <UNDEFINED> instruction: 0xf0000b88
f00009dc:	f0000b88 			; <UNDEFINED> instruction: 0xf0000b88
f00009e0:	f0000b88 			; <UNDEFINED> instruction: 0xf0000b88
f00009e4:	f0000b88 			; <UNDEFINED> instruction: 0xf0000b88
f00009e8:	f0000b88 			; <UNDEFINED> instruction: 0xf0000b88
f00009ec:	f0000b88 			; <UNDEFINED> instruction: 0xf0000b88
f00009f0:	f0000b88 			; <UNDEFINED> instruction: 0xf0000b88
f00009f4:	f0000b88 			; <UNDEFINED> instruction: 0xf0000b88
f00009f8:	f0000b00 			; <UNDEFINED> instruction: 0xf0000b00
f00009fc:	f0000b88 			; <UNDEFINED> instruction: 0xf0000b88
f0000a00:	f0000b88 			; <UNDEFINED> instruction: 0xf0000b88
f0000a04:	f0000ab0 			; <UNDEFINED> instruction: 0xf0000ab0
f0000a08:	f0000b88 			; <UNDEFINED> instruction: 0xf0000b88
f0000a0c:	f0000a40 			; <UNDEFINED> instruction: 0xf0000a40
f0000a10:	f0000b88 			; <UNDEFINED> instruction: 0xf0000b88
f0000a14:	f0000b88 			; <UNDEFINED> instruction: 0xf0000b88
f0000a18:	f0000b00 			; <UNDEFINED> instruction: 0xf0000b00
f0000a1c:	e3a03000 	mov	r3, #0
f0000a20:	e59f01e4 	ldr	r0, [pc, #484]	; f0000c0c <printk_nommu+0x2d0>
f0000a24:	e4c53001 	strb	r3, [r5], #1
f0000a28:	ebfffdb7 	bl	f000010c <serial_puts_nommu>
f0000a2c:	e0680005 	rsb	r0, r8, r5
f0000a30:	e28dd018 	add	sp, sp, #24
f0000a34:	e8bd47f0 	pop	{r4, r5, r6, r7, r8, r9, sl, lr}
f0000a38:	e28dd010 	add	sp, sp, #16
f0000a3c:	e12fff1e 	bx	lr
f0000a40:	e59d0014 	ldr	r0, [sp, #20]
f0000a44:	e1a01006 	mov	r1, r6
f0000a48:	e3a0200a 	mov	r2, #10
f0000a4c:	e2803004 	add	r3, r0, #4
f0000a50:	e5900000 	ldr	r0, [r0]
f0000a54:	e58d3014 	str	r3, [sp, #20]
f0000a58:	ebfffeb5 	bl	f0000534 <utoa>
f0000a5c:	e5d6a000 	ldrb	sl, [r6]
f0000a60:	e35a0000 	cmp	sl, #0
f0000a64:	0a000004 	beq	f0000a7c <printk_nommu+0x140>
f0000a68:	e1a0a006 	mov	sl, r6
f0000a6c:	e5fa3001 	ldrb	r3, [sl, #1]!
f0000a70:	e3530000 	cmp	r3, #0
f0000a74:	1afffffc 	bne	f0000a6c <printk_nommu+0x130>
f0000a78:	e066a00a 	rsb	sl, r6, sl
f0000a7c:	e1a0100a 	mov	r1, sl
f0000a80:	e1a00006 	mov	r0, r6
f0000a84:	e1a02007 	mov	r2, r7
f0000a88:	ebfffed8 	bl	f00005f0 <print_align>
f0000a8c:	e28d3003 	add	r3, sp, #3
f0000a90:	e080000a 	add	r0, r0, sl
f0000a94:	e1a01005 	mov	r1, r5
f0000a98:	e5f32001 	ldrb	r2, [r3, #1]!
f0000a9c:	e3520000 	cmp	r2, #0
f0000aa0:	e4c12001 	strb	r2, [r1], #1
f0000aa4:	1afffffb 	bne	f0000a98 <printk_nommu+0x15c>
f0000aa8:	e0855000 	add	r5, r5, r0
f0000aac:	eaffffb1 	b	f0000978 <printk_nommu+0x3c>
f0000ab0:	e59d3014 	ldr	r3, [sp, #20]
f0000ab4:	e1a01005 	mov	r1, r5
f0000ab8:	e2832004 	add	r2, r3, #4
f0000abc:	e58d2014 	str	r2, [sp, #20]
f0000ac0:	e5930000 	ldr	r0, [r3]
f0000ac4:	e2402001 	sub	r2, r0, #1
f0000ac8:	e5f23001 	ldrb	r3, [r2, #1]!
f0000acc:	e3530000 	cmp	r3, #0
f0000ad0:	e4c13001 	strb	r3, [r1], #1
f0000ad4:	1afffffb 	bne	f0000ac8 <printk_nommu+0x18c>
f0000ad8:	e5d03000 	ldrb	r3, [r0]
f0000adc:	e3530000 	cmp	r3, #0
f0000ae0:	0a000004 	beq	f0000af8 <printk_nommu+0x1bc>
f0000ae4:	e1a03000 	mov	r3, r0
f0000ae8:	e5f32001 	ldrb	r2, [r3, #1]!
f0000aec:	e3520000 	cmp	r2, #0
f0000af0:	1afffffc 	bne	f0000ae8 <printk_nommu+0x1ac>
f0000af4:	e0603003 	rsb	r3, r0, r3
f0000af8:	e0855003 	add	r5, r5, r3
f0000afc:	eaffff9d 	b	f0000978 <printk_nommu+0x3c>
f0000b00:	e59d0014 	ldr	r0, [sp, #20]
f0000b04:	e1a01006 	mov	r1, r6
f0000b08:	e3a02010 	mov	r2, #16
f0000b0c:	e2803004 	add	r3, r0, #4
f0000b10:	e5900000 	ldr	r0, [r0]
f0000b14:	e58d3014 	str	r3, [sp, #20]
f0000b18:	ebfffe85 	bl	f0000534 <utoa>
f0000b1c:	e5d6a000 	ldrb	sl, [r6]
f0000b20:	e35a0000 	cmp	sl, #0
f0000b24:	0a000004 	beq	f0000b3c <printk_nommu+0x200>
f0000b28:	e1a0a006 	mov	sl, r6
f0000b2c:	e5fa3001 	ldrb	r3, [sl, #1]!
f0000b30:	e3530000 	cmp	r3, #0
f0000b34:	1afffffc 	bne	f0000b2c <printk_nommu+0x1f0>
f0000b38:	e066a00a 	rsb	sl, r6, sl
f0000b3c:	e1a0100a 	mov	r1, sl
f0000b40:	e1a00006 	mov	r0, r6
f0000b44:	e1a02007 	mov	r2, r7
f0000b48:	ebfffea8 	bl	f00005f0 <print_align>
f0000b4c:	e28d3003 	add	r3, sp, #3
f0000b50:	e080000a 	add	r0, r0, sl
f0000b54:	e1a01005 	mov	r1, r5
f0000b58:	e5f32001 	ldrb	r2, [r3, #1]!
f0000b5c:	e3520000 	cmp	r2, #0
f0000b60:	e4c12001 	strb	r2, [r1], #1
f0000b64:	1afffffb 	bne	f0000b58 <printk_nommu+0x21c>
f0000b68:	e0855000 	add	r5, r5, r0
f0000b6c:	eaffff81 	b	f0000978 <printk_nommu+0x3c>
f0000b70:	e59d3014 	ldr	r3, [sp, #20]
f0000b74:	e5932000 	ldr	r2, [r3]
f0000b78:	e2833004 	add	r3, r3, #4
f0000b7c:	e58d3014 	str	r3, [sp, #20]
f0000b80:	e5c52000 	strb	r2, [r5]
f0000b84:	eaffff7b 	b	f0000978 <printk_nommu+0x3c>
f0000b88:	e5c59000 	strb	r9, [r5]
f0000b8c:	e5d43000 	ldrb	r3, [r4]
f0000b90:	e5c53001 	strb	r3, [r5, #1]
f0000b94:	e2855002 	add	r5, r5, #2
f0000b98:	eaffff76 	b	f0000978 <printk_nommu+0x3c>
f0000b9c:	e59d0014 	ldr	r0, [sp, #20]
f0000ba0:	e1a01006 	mov	r1, r6
f0000ba4:	e3a0200a 	mov	r2, #10
f0000ba8:	e2803004 	add	r3, r0, #4
f0000bac:	e5900000 	ldr	r0, [r0]
f0000bb0:	e58d3014 	str	r3, [sp, #20]
f0000bb4:	ebfffe25 	bl	f0000450 <itoa>
f0000bb8:	e5d6a000 	ldrb	sl, [r6]
f0000bbc:	e35a0000 	cmp	sl, #0
f0000bc0:	0a000004 	beq	f0000bd8 <printk_nommu+0x29c>
f0000bc4:	e1a0a006 	mov	sl, r6
f0000bc8:	e5fa3001 	ldrb	r3, [sl, #1]!
f0000bcc:	e3530000 	cmp	r3, #0
f0000bd0:	1afffffc 	bne	f0000bc8 <printk_nommu+0x28c>
f0000bd4:	e066a00a 	rsb	sl, r6, sl
f0000bd8:	e1a0100a 	mov	r1, sl
f0000bdc:	e1a00006 	mov	r0, r6
f0000be0:	e1a02007 	mov	r2, r7
f0000be4:	ebfffe81 	bl	f00005f0 <print_align>
f0000be8:	e28d3003 	add	r3, sp, #3
f0000bec:	e080000a 	add	r0, r0, sl
f0000bf0:	e1a01005 	mov	r1, r5
f0000bf4:	e5f32001 	ldrb	r2, [r3, #1]!
f0000bf8:	e3520000 	cmp	r2, #0
f0000bfc:	e4c12001 	strb	r2, [r1], #1
f0000c00:	1afffffb 	bne	f0000bf4 <printk_nommu+0x2b8>
f0000c04:	e0855000 	add	r5, r5, r0
f0000c08:	eaffff5a 	b	f0000978 <printk_nommu+0x3c>
f0000c0c:	f0003038 			; <UNDEFINED> instruction: 0xf0003038

f0000c10 <__div0>:
f0000c10:	e3020ef4 	movw	r0, #12020	; 0x2ef4
f0000c14:	e34f0000 	movt	r0, #61440	; 0xf000
f0000c18:	eafffe8b 	b	f000064c <printk>

f0000c1c <raw_lib_udiv>:
f0000c1c:	e3510000 	cmp	r1, #0
f0000c20:	01a02001 	moveq	r2, r1
f0000c24:	0a00000d 	beq	f0000c60 <raw_lib_udiv+0x44>
f0000c28:	e3a03000 	mov	r3, #0
f0000c2c:	ba000002 	blt	f0000c3c <raw_lib_udiv+0x20>
f0000c30:	e1b01081 	lsls	r1, r1, #1
f0000c34:	e2833001 	add	r3, r3, #1
f0000c38:	5afffffc 	bpl	f0000c30 <raw_lib_udiv+0x14>
f0000c3c:	e3a02000 	mov	r2, #0
f0000c40:	e1a0c082 	lsl	ip, r2, #1
f0000c44:	e1500001 	cmp	r0, r1
f0000c48:	20610000 	rsbcs	r0, r1, r0
f0000c4c:	31a02082 	lslcc	r2, r2, #1
f0000c50:	238c2001 	orrcs	r2, ip, #1
f0000c54:	e1a010a1 	lsr	r1, r1, #1
f0000c58:	e2533001 	subs	r3, r3, #1
f0000c5c:	5afffff7 	bpl	f0000c40 <raw_lib_udiv+0x24>
f0000c60:	e1a00002 	mov	r0, r2
f0000c64:	e12fff1e 	bx	lr

f0000c68 <Ldiv0>:
f0000c68:	e52de008 	str	lr, [sp, #-8]!
f0000c6c:	ebffffe7 	bl	f0000c10 <__div0>
f0000c70:	e3a00000 	mov	r0, #0
f0000c74:	e49df008 	ldr	pc, [sp], #8

f0000c78 <__aeabi_uidiv>:
f0000c78:	e2512001 	subs	r2, r1, #1
f0000c7c:	01a0f00e 	moveq	pc, lr
f0000c80:	3afffff8 	bcc	f0000c68 <Ldiv0>
f0000c84:	e1500001 	cmp	r0, r1
f0000c88:	9a00001a 	bls	f0000cf8 <__aeabi_uidiv+0x80>
f0000c8c:	e1110002 	tst	r1, r2
f0000c90:	0a00001b 	beq	f0000d04 <__aeabi_uidiv+0x8c>
f0000c94:	e16f3f11 	clz	r3, r1
f0000c98:	e16f2f10 	clz	r2, r0
f0000c9c:	e0432002 	sub	r2, r3, r2
f0000ca0:	e3a03001 	mov	r3, #1
f0000ca4:	e1a01211 	lsl	r1, r1, r2
f0000ca8:	e1a03213 	lsl	r3, r3, r2
f0000cac:	e3a02000 	mov	r2, #0
f0000cb0:	e1500001 	cmp	r0, r1
f0000cb4:	20400001 	subcs	r0, r0, r1
f0000cb8:	21822003 	orrcs	r2, r2, r3
f0000cbc:	e15000a1 	cmp	r0, r1, lsr #1
f0000cc0:	204000a1 	subcs	r0, r0, r1, lsr #1
f0000cc4:	218220a3 	orrcs	r2, r2, r3, lsr #1
f0000cc8:	e1500121 	cmp	r0, r1, lsr #2
f0000ccc:	20400121 	subcs	r0, r0, r1, lsr #2
f0000cd0:	21822123 	orrcs	r2, r2, r3, lsr #2
f0000cd4:	e15001a1 	cmp	r0, r1, lsr #3
f0000cd8:	204001a1 	subcs	r0, r0, r1, lsr #3
f0000cdc:	218221a3 	orrcs	r2, r2, r3, lsr #3
f0000ce0:	e3500000 	cmp	r0, #0
f0000ce4:	11b03223 	lsrsne	r3, r3, #4
f0000ce8:	11a01221 	lsrne	r1, r1, #4
f0000cec:	1affffef 	bne	f0000cb0 <__aeabi_uidiv+0x38>
f0000cf0:	e1a00002 	mov	r0, r2
f0000cf4:	e1a0f00e 	mov	pc, lr
f0000cf8:	03a00001 	moveq	r0, #1
f0000cfc:	13a00000 	movne	r0, #0
f0000d00:	e1a0f00e 	mov	pc, lr
f0000d04:	e16f2f11 	clz	r2, r1
f0000d08:	e262201f 	rsb	r2, r2, #31
f0000d0c:	e1a00230 	lsr	r0, r0, r2
f0000d10:	e1a0f00e 	mov	pc, lr

f0000d14 <__aeabi_idiv>:
f0000d14:	e3510000 	cmp	r1, #0
f0000d18:	e020c001 	eor	ip, r0, r1
f0000d1c:	0affffd1 	beq	f0000c68 <Ldiv0>
f0000d20:	42611000 	rsbmi	r1, r1, #0
f0000d24:	e2512001 	subs	r2, r1, #1
f0000d28:	0a00001f 	beq	f0000dac <__aeabi_idiv+0x98>
f0000d2c:	e1b03000 	movs	r3, r0
f0000d30:	42603000 	rsbmi	r3, r0, #0
f0000d34:	e1530001 	cmp	r3, r1
f0000d38:	9a00001e 	bls	f0000db8 <__aeabi_idiv+0xa4>
f0000d3c:	e1110002 	tst	r1, r2
f0000d40:	0a000020 	beq	f0000dc8 <__aeabi_idiv+0xb4>
f0000d44:	e16f2f11 	clz	r2, r1
f0000d48:	e16f0f13 	clz	r0, r3
f0000d4c:	e0420000 	sub	r0, r2, r0
f0000d50:	e3a02001 	mov	r2, #1
f0000d54:	e1a01011 	lsl	r1, r1, r0
f0000d58:	e1a02012 	lsl	r2, r2, r0
f0000d5c:	e3a00000 	mov	r0, #0
f0000d60:	e1530001 	cmp	r3, r1
f0000d64:	20433001 	subcs	r3, r3, r1
f0000d68:	21800002 	orrcs	r0, r0, r2
f0000d6c:	e15300a1 	cmp	r3, r1, lsr #1
f0000d70:	204330a1 	subcs	r3, r3, r1, lsr #1
f0000d74:	218000a2 	orrcs	r0, r0, r2, lsr #1
f0000d78:	e1530121 	cmp	r3, r1, lsr #2
f0000d7c:	20433121 	subcs	r3, r3, r1, lsr #2
f0000d80:	21800122 	orrcs	r0, r0, r2, lsr #2
f0000d84:	e15301a1 	cmp	r3, r1, lsr #3
f0000d88:	204331a1 	subcs	r3, r3, r1, lsr #3
f0000d8c:	218001a2 	orrcs	r0, r0, r2, lsr #3
f0000d90:	e3530000 	cmp	r3, #0
f0000d94:	11b02222 	lsrsne	r2, r2, #4
f0000d98:	11a01221 	lsrne	r1, r1, #4
f0000d9c:	1affffef 	bne	f0000d60 <__aeabi_idiv+0x4c>
f0000da0:	e35c0000 	cmp	ip, #0
f0000da4:	42600000 	rsbmi	r0, r0, #0
f0000da8:	e1a0f00e 	mov	pc, lr
f0000dac:	e13c0000 	teq	ip, r0
f0000db0:	42600000 	rsbmi	r0, r0, #0
f0000db4:	e1a0f00e 	mov	pc, lr
f0000db8:	33a00000 	movcc	r0, #0
f0000dbc:	01a00fcc 	asreq	r0, ip, #31
f0000dc0:	03800001 	orreq	r0, r0, #1
f0000dc4:	e1a0f00e 	mov	pc, lr
f0000dc8:	e16f2f11 	clz	r2, r1
f0000dcc:	e262201f 	rsb	r2, r2, #31
f0000dd0:	e35c0000 	cmp	ip, #0
f0000dd4:	e1a00233 	lsr	r0, r3, r2
f0000dd8:	42600000 	rsbmi	r0, r0, #0
f0000ddc:	e1a0f00e 	mov	pc, lr

f0000de0 <__aeabi_uidivmod>:
f0000de0:	e92d5003 	push	{r0, r1, ip, lr}
f0000de4:	ebffffa3 	bl	f0000c78 <__aeabi_uidiv>
f0000de8:	e8bd5006 	pop	{r1, r2, ip, lr}
f0000dec:	e0030290 	mul	r3, r0, r2
f0000df0:	e0411003 	sub	r1, r1, r3
f0000df4:	e1a0f00e 	mov	pc, lr

f0000df8 <__aeabi_idivmod>:
f0000df8:	e92d5003 	push	{r0, r1, ip, lr}
f0000dfc:	ebffffc4 	bl	f0000d14 <__aeabi_idiv>
f0000e00:	e8bd5006 	pop	{r1, r2, ip, lr}
f0000e04:	e0030290 	mul	r3, r0, r2
f0000e08:	e0411003 	sub	r1, r1, r3
f0000e0c:	e1a0f00e 	mov	pc, lr

f0000e10 <mem_delay>:
f0000e10:	e92d000f 	push	{r0, r1, r2, r3}
f0000e14:	e3a01011 	mov	r1, #17
f0000e18:	e1a03000 	mov	r3, r0

f0000e1c <loop2>:
f0000e1c:	e2500001 	subs	r0, r0, #1
f0000e20:	8afffffd 	bhi	f0000e1c <loop2>
f0000e24:	e1a00003 	mov	r0, r3
f0000e28:	e2511001 	subs	r1, r1, #1
f0000e2c:	8afffffa 	bhi	f0000e1c <loop2>
f0000e30:	e8bd000f 	pop	{r0, r1, r2, r3}
f0000e34:	e1a0f00e 	mov	pc, lr

f0000e38 <init_perfcounters>:
f0000e38:	e3500000 	cmp	r0, #0
f0000e3c:	13a00007 	movne	r0, #7
f0000e40:	03a00001 	moveq	r0, #1
f0000e44:	e3510000 	cmp	r1, #0
f0000e48:	13800008 	orrne	r0, r0, #8
f0000e4c:	e3800010 	orr	r0, r0, #16
f0000e50:	ee090f1c 	mcr	15, 0, r0, cr9, cr12, {0}
f0000e54:	e3a0313e 	mov	r3, #-2147483633	; 0x8000000f
f0000e58:	ee093f3c 	mcr	15, 0, r3, cr9, cr12, {1}
f0000e5c:	ee093f7c 	mcr	15, 0, r3, cr9, cr12, {3}
f0000e60:	e12fff1e 	bx	lr

f0000e64 <backup_perfcounter>:
f0000e64:	ee192f1c 	mrc	15, 0, r2, cr9, cr12, {0}
f0000e68:	e3023f94 	movw	r3, #12180	; 0x2f94
f0000e6c:	e34f3000 	movt	r3, #61440	; 0xf000
f0000e70:	e5832000 	str	r2, [r3]
f0000e74:	ee192f3c 	mrc	15, 0, r2, cr9, cr12, {1}
f0000e78:	e5832004 	str	r2, [r3, #4]
f0000e7c:	e12fff1e 	bx	lr

f0000e80 <restore_perfcounter>:
f0000e80:	e3023f94 	movw	r3, #12180	; 0x2f94
f0000e84:	e34f3000 	movt	r3, #61440	; 0xf000
f0000e88:	e5933000 	ldr	r3, [r3]
f0000e8c:	ee093f1c 	mcr	15, 0, r3, cr9, cr12, {0}
f0000e90:	e3023f94 	movw	r3, #12180	; 0x2f94
f0000e94:	e34f3000 	movt	r3, #61440	; 0xf000
f0000e98:	e5933004 	ldr	r3, [r3, #4]
f0000e9c:	ee093f3c 	mcr	15, 0, r3, cr9, cr12, {1}
f0000ea0:	e12fff1e 	bx	lr

f0000ea4 <get_cyclecount>:
f0000ea4:	ee190f1d 	mrc	15, 0, r0, cr9, cr13, {0}
f0000ea8:	e12fff1e 	bx	lr

f0000eac <reset_counter>:
f0000eac:	e3a03000 	mov	r3, #0
f0000eb0:	ee193f1c 	mrc	15, 0, r3, cr9, cr12, {0}
f0000eb4:	e3a03004 	mov	r3, #4
f0000eb8:	ee093f1c 	mcr	15, 0, r3, cr9, cr12, {0}
f0000ebc:	e12fff1e 	bx	lr

f0000ec0 <change_runtime_env>:
f0000ec0:	e3a02000 	mov	r2, #0
f0000ec4:	e3500000 	cmp	r0, #0
f0000ec8:	e1a03002 	mov	r3, r2
f0000ecc:	e34021c2 	movt	r2, #450	; 0x1c2
f0000ed0:	e92d4010 	push	{r4, lr}
f0000ed4:	e34f31c2 	movt	r3, #61890	; 0xf1c2
f0000ed8:	01a03002 	moveq	r3, r2
f0000edc:	ee192f1d 	mrc	15, 0, r2, cr9, cr13, {0}
f0000ee0:	ee191f1d 	mrc	15, 0, r1, cr9, cr13, {0}
f0000ee4:	e59f406c 	ldr	r4, [pc, #108]	; f0000f58 <change_runtime_env+0x98>
f0000ee8:	e0622001 	rsb	r2, r2, r1
f0000eec:	e5842008 	str	r2, [r4, #8]
f0000ef0:	e5931054 	ldr	r1, [r3, #84]	; 0x54
f0000ef4:	e7e11851 	ubfx	r1, r1, #16, #2
f0000ef8:	e3510000 	cmp	r1, #0
f0000efc:	03a03020 	moveq	r3, #32
f0000f00:	0584300c 	streq	r3, [r4, #12]
f0000f04:	08bd8010 	popeq	{r4, pc}
f0000f08:	e3510001 	cmp	r1, #1
f0000f0c:	03053dc0 	movweq	r3, #24000	; 0x5dc0
f0000f10:	0584300c 	streq	r3, [r4, #12]
f0000f14:	08bd8010 	popeq	{r4, pc}
f0000f18:	e3510002 	cmp	r1, #2
f0000f1c:	18bd8010 	popne	{r4, pc}
f0000f20:	e5932000 	ldr	r2, [r3]
f0000f24:	e3050dc0 	movw	r0, #24000	; 0x5dc0
f0000f28:	e7e41452 	ubfx	r1, r2, #8, #5
f0000f2c:	e7e13852 	ubfx	r3, r2, #16, #2
f0000f30:	e0000190 	mul	r0, r0, r1
f0000f34:	e3a01001 	mov	r1, #1
f0000f38:	e1a01311 	lsl	r1, r1, r3
f0000f3c:	e7e13252 	ubfx	r3, r2, #4, #2
f0000f40:	e2022003 	and	r2, r2, #3
f0000f44:	e0211192 	mla	r1, r2, r1, r1
f0000f48:	e0200093 	mla	r0, r3, r0, r0
f0000f4c:	ebffff32 	bl	f0000c1c <raw_lib_udiv>
f0000f50:	e584000c 	str	r0, [r4, #12]
f0000f54:	e8bd8010 	pop	{r4, pc}
f0000f58:	f0002f94 			; <UNDEFINED> instruction: 0xf0002f94

f0000f5c <delay_us>:
f0000f5c:	e92d4038 	push	{r3, r4, r5, lr}
f0000f60:	e1a05000 	mov	r5, r0
f0000f64:	e59f4044 	ldr	r4, [pc, #68]	; f0000fb0 <delay_us+0x54>
f0000f68:	e594000c 	ldr	r0, [r4, #12]
f0000f6c:	e3500ffa 	cmp	r0, #1000	; 0x3e8
f0000f70:	98bd8038 	popls	{r3, r4, r5, pc}
f0000f74:	e3a01ffa 	mov	r1, #1000	; 0x3e8
f0000f78:	ebffff27 	bl	f0000c1c <raw_lib_udiv>
f0000f7c:	ee193f1d 	mrc	15, 0, r3, cr9, cr13, {0}
f0000f80:	e5942008 	ldr	r2, [r4, #8]
f0000f84:	e0255590 	mla	r5, r0, r5, r5
f0000f88:	e0622003 	rsb	r2, r2, r3
f0000f8c:	e0825005 	add	r5, r2, r5
f0000f90:	e0653003 	rsb	r3, r5, r3
f0000f94:	e3530000 	cmp	r3, #0
f0000f98:	a8bd8038 	popge	{r3, r4, r5, pc}
f0000f9c:	ee193f1d 	mrc	15, 0, r3, cr9, cr13, {0}
f0000fa0:	e0653003 	rsb	r3, r5, r3
f0000fa4:	e3530000 	cmp	r3, #0
f0000fa8:	bafffffb 	blt	f0000f9c <delay_us+0x40>
f0000fac:	e8bd8038 	pop	{r3, r4, r5, pc}
f0000fb0:	f0002f94 			; <UNDEFINED> instruction: 0xf0002f94

f0000fb4 <delay_ms>:
f0000fb4:	e3a03ffa 	mov	r3, #1000	; 0x3e8
f0000fb8:	e0000093 	mul	r0, r3, r0
f0000fbc:	eaffffe6 	b	f0000f5c <delay_us>

f0000fc0 <init_event_counter>:
f0000fc0:	e3500000 	cmp	r0, #0
f0000fc4:	13a00007 	movne	r0, #7
f0000fc8:	03a00001 	moveq	r0, #1
f0000fcc:	e3510000 	cmp	r1, #0
f0000fd0:	13800008 	orrne	r0, r0, #8
f0000fd4:	e3800010 	orr	r0, r0, #16
f0000fd8:	ee090f1c 	mcr	15, 0, r0, cr9, cr12, {0}
f0000fdc:	e3a0313e 	mov	r3, #-2147483633	; 0x8000000f
f0000fe0:	ee093f3c 	mcr	15, 0, r3, cr9, cr12, {1}
f0000fe4:	ee093f7c 	mcr	15, 0, r3, cr9, cr12, {3}
f0000fe8:	e12fff1e 	bx	lr

f0000fec <set_event_counter>:
f0000fec:	e2403002 	sub	r3, r0, #2
f0000ff0:	e3530003 	cmp	r3, #3
f0000ff4:	959f2018 	ldrls	r2, [pc, #24]	; f0001014 <set_event_counter+0x28>
f0000ff8:	83a03000 	movhi	r3, #0
f0000ffc:	97923103 	ldrls	r3, [r2, r3, lsl #2]
f0001000:	ee093fbc 	mcr	15, 0, r3, cr9, cr12, {5}
f0001004:	ee090f3d 	mcr	15, 0, r0, cr9, cr13, {1}
f0001008:	f57ff04f 	dsb	sy
f000100c:	f57ff06f 	isb	sy
f0001010:	e12fff1e 	bx	lr
f0001014:	f0002ebc 			; <UNDEFINED> instruction: 0xf0002ebc

f0001018 <get_event_counter>:
f0001018:	e2400002 	sub	r0, r0, #2
f000101c:	e3500003 	cmp	r0, #3
f0001020:	959f3018 	ldrls	r3, [pc, #24]	; f0001040 <get_event_counter+0x28>
f0001024:	83a03000 	movhi	r3, #0
f0001028:	97933100 	ldrls	r3, [r3, r0, lsl #2]
f000102c:	ee093fbc 	mcr	15, 0, r3, cr9, cr12, {5}
f0001030:	ee190f5d 	mrc	15, 0, r0, cr9, cr13, {2}
f0001034:	f57ff04f 	dsb	sy
f0001038:	f57ff06f 	isb	sy
f000103c:	e12fff1e 	bx	lr
f0001040:	f0002ebc 			; <UNDEFINED> instruction: 0xf0002ebc
	...

f0001060 <save_sp>:
f0001060:	e1a0000d 	mov	r0, sp
f0001064:	e59fd400 	ldr	sp, [pc, #1024]	; f000146c <mem_preload_tlb_nommu+0xc>
f0001068:	e1a0f00e 	mov	pc, lr

f000106c <save_sp_nommu>:
f000106c:	e1a0000d 	mov	r0, sp
f0001070:	e59fd3f8 	ldr	sp, [pc, #1016]	; f0001470 <mem_preload_tlb_nommu+0x10>
f0001074:	e1a0f00e 	mov	pc, lr

f0001078 <restore_sp>:
f0001078:	e1a0d000 	mov	sp, r0
f000107c:	e1a0f00e 	mov	pc, lr

f0001080 <get_sp>:
f0001080:	e1a0000d 	mov	r0, sp
f0001084:	e1a0f00e 	mov	pc, lr
f0001088:	e320f000 	nop	{0}
f000108c:	e320f000 	nop	{0}

f0001090 <invalidate_dcache>:
f0001090:	f57ff05f 	dmb	sy
f0001094:	ee300f30 	mrc	15, 1, r0, cr0, cr0, {1}
f0001098:	e2103407 	ands	r3, r0, #117440512	; 0x7000000
f000109c:	e1a03ba3 	lsr	r3, r3, #23
f00010a0:	0a00001a 	beq	f0001110 <inv_finished>
f00010a4:	e3a0a000 	mov	sl, #0

f00010a8 <inv_loop1>:
f00010a8:	e08a20aa 	add	r2, sl, sl, lsr #1
f00010ac:	e1a01230 	lsr	r1, r0, r2
f00010b0:	e2011007 	and	r1, r1, #7
f00010b4:	e3510002 	cmp	r1, #2
f00010b8:	ba000011 	blt	f0001104 <inv_skip>
f00010bc:	ee40af10 	mcr	15, 2, sl, cr0, cr0, {0}
f00010c0:	f57ff06f 	isb	sy
f00010c4:	ee301f10 	mrc	15, 1, r1, cr0, cr0, {0}
f00010c8:	e2012007 	and	r2, r1, #7
f00010cc:	e2822004 	add	r2, r2, #4
f00010d0:	e59f439c 	ldr	r4, [pc, #924]	; f0001474 <mem_preload_tlb_nommu+0x14>
f00010d4:	e01441a1 	ands	r4, r4, r1, lsr #3
f00010d8:	e16f5f14 	clz	r5, r4
f00010dc:	e59f7394 	ldr	r7, [pc, #916]	; f0001478 <mem_preload_tlb_nommu+0x18>
f00010e0:	e01776a1 	ands	r7, r7, r1, lsr #13

f00010e4 <inv_loop2>:
f00010e4:	e1a09004 	mov	r9, r4

f00010e8 <inv_loop3>:
f00010e8:	e18ab519 	orr	fp, sl, r9, lsl r5
f00010ec:	e18bb217 	orr	fp, fp, r7, lsl r2
f00010f0:	ee07bf56 	mcr	15, 0, fp, cr7, cr6, {2}
f00010f4:	e2599001 	subs	r9, r9, #1
f00010f8:	aafffffa 	bge	f00010e8 <inv_loop3>
f00010fc:	e2577001 	subs	r7, r7, #1
f0001100:	aafffff7 	bge	f00010e4 <inv_loop2>

f0001104 <inv_skip>:
f0001104:	e28aa002 	add	sl, sl, #2
f0001108:	e153000a 	cmp	r3, sl
f000110c:	caffffe5 	bgt	f00010a8 <inv_loop1>

f0001110 <inv_finished>:
f0001110:	e3a0a000 	mov	sl, #0
f0001114:	ee40af10 	mcr	15, 2, sl, cr0, cr0, {0}
f0001118:	f57ff04f 	dsb	sy
f000111c:	f57ff06f 	isb	sy
f0001120:	e1a0f00e 	mov	pc, lr

f0001124 <invalidate_icache>:
f0001124:	e3a00000 	mov	r0, #0
f0001128:	ee070f11 	mcr	15, 0, r0, cr7, cr1, {0}
f000112c:	ee070f15 	mcr	15, 0, r0, cr7, cr5, {0}
f0001130:	f57ff04f 	dsb	sy
f0001134:	f57ff06f 	isb	sy
f0001138:	e1a0f00e 	mov	pc, lr

f000113c <flush_dcache>:
f000113c:	e92d1fff 	push	{r0, r1, r2, r3, r4, r5, r6, r7, r8, r9, sl, fp, ip}
f0001140:	f57ff05f 	dmb	sy
f0001144:	ee300f30 	mrc	15, 1, r0, cr0, cr0, {1}
f0001148:	e2103407 	ands	r3, r0, #117440512	; 0x7000000
f000114c:	e1a03ba3 	lsr	r3, r3, #23
f0001150:	0a00001a 	beq	f00011c0 <finished>
f0001154:	e3a0a000 	mov	sl, #0

f0001158 <loop1>:
f0001158:	e08a20aa 	add	r2, sl, sl, lsr #1
f000115c:	e1a01230 	lsr	r1, r0, r2
f0001160:	e2011007 	and	r1, r1, #7
f0001164:	e3510002 	cmp	r1, #2
f0001168:	ba000011 	blt	f00011b4 <skip>
f000116c:	ee40af10 	mcr	15, 2, sl, cr0, cr0, {0}
f0001170:	f57ff06f 	isb	sy
f0001174:	ee301f10 	mrc	15, 1, r1, cr0, cr0, {0}
f0001178:	e2012007 	and	r2, r1, #7
f000117c:	e2822004 	add	r2, r2, #4
f0001180:	e59f42ec 	ldr	r4, [pc, #748]	; f0001474 <mem_preload_tlb_nommu+0x14>
f0001184:	e01441a1 	ands	r4, r4, r1, lsr #3
f0001188:	e16f5f14 	clz	r5, r4
f000118c:	e59f72e4 	ldr	r7, [pc, #740]	; f0001478 <mem_preload_tlb_nommu+0x18>
f0001190:	e01776a1 	ands	r7, r7, r1, lsr #13

f0001194 <loop2>:
f0001194:	e1a09004 	mov	r9, r4

f0001198 <loop3>:
f0001198:	e18ab519 	orr	fp, sl, r9, lsl r5
f000119c:	e18bb217 	orr	fp, fp, r7, lsl r2
f00011a0:	ee07bf5e 	mcr	15, 0, fp, cr7, cr14, {2}
f00011a4:	e2599001 	subs	r9, r9, #1
f00011a8:	aafffffa 	bge	f0001198 <loop3>
f00011ac:	e2577001 	subs	r7, r7, #1
f00011b0:	aafffff7 	bge	f0001194 <loop2>

f00011b4 <skip>:
f00011b4:	e28aa002 	add	sl, sl, #2
f00011b8:	e153000a 	cmp	r3, sl
f00011bc:	caffffe5 	bgt	f0001158 <loop1>

f00011c0 <finished>:
f00011c0:	e3a0a000 	mov	sl, #0
f00011c4:	ee40af10 	mcr	15, 2, sl, cr0, cr0, {0}
f00011c8:	f57ff04f 	dsb	sy
f00011cc:	f57ff06f 	isb	sy
f00011d0:	e8bd1fff 	pop	{r0, r1, r2, r3, r4, r5, r6, r7, r8, r9, sl, fp, ip}
f00011d4:	e1a0f00e 	mov	pc, lr

f00011d8 <flush_icache>:
f00011d8:	e92d000f 	push	{r0, r1, r2, r3}
f00011dc:	e3a00000 	mov	r0, #0
f00011e0:	ee070f15 	mcr	15, 0, r0, cr7, cr5, {0}
f00011e4:	ee070f11 	mcr	15, 0, r0, cr7, cr1, {0}
f00011e8:	ee070fd1 	mcr	15, 0, r0, cr7, cr1, {6}
f00011ec:	f57ff06f 	isb	sy
f00011f0:	f57ff04f 	dsb	sy
f00011f4:	e8bd000f 	pop	{r0, r1, r2, r3}
f00011f8:	e1a0f00e 	mov	pc, lr

f00011fc <disable_cache>:
f00011fc:	e92d000f 	push	{r0, r1, r2, r3}
f0001200:	ee110f10 	mrc	15, 0, r0, cr1, cr0, {0}
f0001204:	e3c00a01 	bic	r0, r0, #4096	; 0x1000
f0001208:	e3c00004 	bic	r0, r0, #4
f000120c:	ee010f10 	mcr	15, 0, r0, cr1, cr0, {0}
f0001210:	f57ff06f 	isb	sy
f0001214:	e8bd000f 	pop	{r0, r1, r2, r3}
f0001218:	e1a0f00e 	mov	pc, lr

f000121c <disable_dcache>:
f000121c:	e92d000f 	push	{r0, r1, r2, r3}
f0001220:	ee110f10 	mrc	15, 0, r0, cr1, cr0, {0}
f0001224:	e3c00004 	bic	r0, r0, #4
f0001228:	ee010f10 	mcr	15, 0, r0, cr1, cr0, {0}
f000122c:	f57ff06f 	isb	sy
f0001230:	e8bd000f 	pop	{r0, r1, r2, r3}
f0001234:	e1a0f00e 	mov	pc, lr

f0001238 <disable_icache>:
f0001238:	e92d000f 	push	{r0, r1, r2, r3}
f000123c:	ee110f10 	mrc	15, 0, r0, cr1, cr0, {0}
f0001240:	e3c00a01 	bic	r0, r0, #4096	; 0x1000
f0001244:	ee010f10 	mcr	15, 0, r0, cr1, cr0, {0}
f0001248:	f57ff06f 	isb	sy
f000124c:	e8bd000f 	pop	{r0, r1, r2, r3}
f0001250:	e1a0f00e 	mov	pc, lr

f0001254 <disable_l2cache>:
f0001254:	e92d000f 	push	{r0, r1, r2, r3}
f0001258:	ee110f30 	mrc	15, 0, r0, cr1, cr0, {1}
f000125c:	e3c00002 	bic	r0, r0, #2
f0001260:	ee010f30 	mcr	15, 0, r0, cr1, cr0, {1}
f0001264:	f57ff06f 	isb	sy
f0001268:	e8bd000f 	pop	{r0, r1, r2, r3}
f000126c:	e1a0f00e 	mov	pc, lr

f0001270 <enable_cache>:
f0001270:	e92d000f 	push	{r0, r1, r2, r3}
f0001274:	ee110f10 	mrc	15, 0, r0, cr1, cr0, {0}
f0001278:	e3800a01 	orr	r0, r0, #4096	; 0x1000
f000127c:	e3800004 	orr	r0, r0, #4
f0001280:	ee010f10 	mcr	15, 0, r0, cr1, cr0, {0}
f0001284:	f57ff06f 	isb	sy
f0001288:	e8bd000f 	pop	{r0, r1, r2, r3}
f000128c:	e1a0f00e 	mov	pc, lr

f0001290 <enable_icache>:
f0001290:	e92d000f 	push	{r0, r1, r2, r3}
f0001294:	ee110f10 	mrc	15, 0, r0, cr1, cr0, {0}
f0001298:	e3800a01 	orr	r0, r0, #4096	; 0x1000
f000129c:	ee010f10 	mcr	15, 0, r0, cr1, cr0, {0}
f00012a0:	f57ff06f 	isb	sy
f00012a4:	e8bd000f 	pop	{r0, r1, r2, r3}
f00012a8:	e1a0f00e 	mov	pc, lr

f00012ac <invalidate_branch_predictor>:
f00012ac:	e92d000f 	push	{r0, r1, r2, r3}
f00012b0:	e3a00000 	mov	r0, #0
f00012b4:	ee070fd5 	mcr	15, 0, r0, cr7, cr5, {6}
f00012b8:	f57ff06f 	isb	sy
f00012bc:	e8bd000f 	pop	{r0, r1, r2, r3}
f00012c0:	e1a0f00e 	mov	pc, lr

f00012c4 <disable_program_flow_prediction>:
f00012c4:	e92d000f 	push	{r0, r1, r2, r3}
f00012c8:	ee110f10 	mrc	15, 0, r0, cr1, cr0, {0}
f00012cc:	e3c00b02 	bic	r0, r0, #2048	; 0x800
f00012d0:	ee010f10 	mcr	15, 0, r0, cr1, cr0, {0}
f00012d4:	f57ff06f 	isb	sy
f00012d8:	e8bd000f 	pop	{r0, r1, r2, r3}
f00012dc:	e1a0f00e 	mov	pc, lr

f00012e0 <enable_program_flow_prediction>:
f00012e0:	e92d000f 	push	{r0, r1, r2, r3}
f00012e4:	ee110f10 	mrc	15, 0, r0, cr1, cr0, {0}
f00012e8:	e3800b02 	orr	r0, r0, #2048	; 0x800
f00012ec:	ee010f10 	mcr	15, 0, r0, cr1, cr0, {0}
f00012f0:	f57ff06f 	isb	sy
f00012f4:	e8bd000f 	pop	{r0, r1, r2, r3}
f00012f8:	e1a0f00e 	mov	pc, lr

f00012fc <mem_flush_tlb>:
f00012fc:	e92d000f 	push	{r0, r1, r2, r3}
f0001300:	e3a00000 	mov	r0, #0
f0001304:	ee080f15 	mcr	15, 0, r0, cr8, cr5, {0}
f0001308:	ee080f16 	mcr	15, 0, r0, cr8, cr6, {0}
f000130c:	ee080f17 	mcr	15, 0, r0, cr8, cr7, {0}
f0001310:	f57ff04f 	dsb	sy
f0001314:	f57ff06f 	isb	sy
f0001318:	e8bd000f 	pop	{r0, r1, r2, r3}
f000131c:	e1a0f00e 	mov	pc, lr

f0001320 <mem_preload_tlb>:
f0001320:	e92d000f 	push	{r0, r1, r2, r3}
f0001324:	e3a0020f 	mov	r0, #-268435456	; 0xf0000000
f0001328:	e5901000 	ldr	r1, [r0]
f000132c:	e59f0148 	ldr	r0, [pc, #328]	; f000147c <mem_preload_tlb_nommu+0x1c>
f0001330:	e5901000 	ldr	r1, [r0]
f0001334:	e59f0144 	ldr	r0, [pc, #324]	; f0001480 <mem_preload_tlb_nommu+0x20>
f0001338:	e5901000 	ldr	r1, [r0]
f000133c:	e59f0140 	ldr	r0, [pc, #320]	; f0001484 <mem_preload_tlb_nommu+0x24>
f0001340:	e5901000 	ldr	r1, [r0]
f0001344:	e59f013c 	ldr	r0, [pc, #316]	; f0001488 <mem_preload_tlb_nommu+0x28>
f0001348:	e5901000 	ldr	r1, [r0]
f000134c:	e59f0138 	ldr	r0, [pc, #312]	; f000148c <mem_preload_tlb_nommu+0x2c>
f0001350:	e5901000 	ldr	r1, [r0]
f0001354:	e59f0134 	ldr	r0, [pc, #308]	; f0001490 <mem_preload_tlb_nommu+0x30>
f0001358:	e5901000 	ldr	r1, [r0]
f000135c:	e59f0130 	ldr	r0, [pc, #304]	; f0001494 <mem_preload_tlb_nommu+0x34>
f0001360:	e5901000 	ldr	r1, [r0]
f0001364:	e59f012c 	ldr	r0, [pc, #300]	; f0001498 <mem_preload_tlb_nommu+0x38>
f0001368:	e5901000 	ldr	r1, [r0]
f000136c:	e59f0128 	ldr	r0, [pc, #296]	; f000149c <mem_preload_tlb_nommu+0x3c>
f0001370:	e5901000 	ldr	r1, [r0]
f0001374:	e59f0124 	ldr	r0, [pc, #292]	; f00014a0 <mem_preload_tlb_nommu+0x40>
f0001378:	e5901000 	ldr	r1, [r0]
f000137c:	e59f0120 	ldr	r0, [pc, #288]	; f00014a4 <mem_preload_tlb_nommu+0x44>
f0001380:	e5901000 	ldr	r1, [r0]
f0001384:	e59f011c 	ldr	r0, [pc, #284]	; f00014a8 <mem_preload_tlb_nommu+0x48>
f0001388:	e5901000 	ldr	r1, [r0]
f000138c:	e59f0118 	ldr	r0, [pc, #280]	; f00014ac <mem_preload_tlb_nommu+0x4c>
f0001390:	e5901000 	ldr	r1, [r0]
f0001394:	e59f0114 	ldr	r0, [pc, #276]	; f00014b0 <mem_preload_tlb_nommu+0x50>
f0001398:	e5901000 	ldr	r1, [r0]
f000139c:	f57ff04f 	dsb	sy
f00013a0:	f57ff06f 	isb	sy
f00013a4:	e8bd000f 	pop	{r0, r1, r2, r3}
f00013a8:	e1a0f00e 	mov	pc, lr

f00013ac <disable_mmu>:
f00013ac:	ee111f10 	mrc	15, 0, r1, cr1, cr0, {0}
f00013b0:	e3c11a01 	bic	r1, r1, #4096	; 0x1000
f00013b4:	e3c11005 	bic	r1, r1, #5
f00013b8:	ea000000 	b	f00013c0 <__turn_mmu_off>
f00013bc:	e320f000 	nop	{0}

f00013c0 <__turn_mmu_off>:
f00013c0:	ee011f10 	mcr	15, 0, r1, cr1, cr0, {0}
f00013c4:	ee103f10 	mrc	15, 0, r3, cr0, cr0, {0}
f00013c8:	e1a03003 	mov	r3, r3
f00013cc:	e1a03003 	mov	r3, r3
f00013d0:	e1a0f00e 	mov	pc, lr

f00013d4 <enable_mmu>:
f00013d4:	ee111f10 	mrc	15, 0, r1, cr1, cr0, {0}
f00013d8:	e3811a01 	orr	r1, r1, #4096	; 0x1000
f00013dc:	e3811005 	orr	r1, r1, #5
f00013e0:	ea000006 	b	f0001400 <__turn_mmu_on>
f00013e4:	e320f000 	nop	{0}
f00013e8:	e320f000 	nop	{0}
f00013ec:	e320f000 	nop	{0}
f00013f0:	e320f000 	nop	{0}
f00013f4:	e320f000 	nop	{0}
f00013f8:	e320f000 	nop	{0}
f00013fc:	e320f000 	nop	{0}

f0001400 <__turn_mmu_on>:
f0001400:	ee011f10 	mcr	15, 0, r1, cr1, cr0, {0}
f0001404:	ee103f10 	mrc	15, 0, r3, cr0, cr0, {0}
f0001408:	e1a03003 	mov	r3, r3
f000140c:	e1a03003 	mov	r3, r3
f0001410:	e1a0f00e 	mov	pc, lr

f0001414 <jump_to_suspend>:
f0001414:	ee020f10 	mcr	15, 0, r0, cr2, cr0, {0}
f0001418:	ebffffb7 	bl	f00012fc <mem_flush_tlb>
f000141c:	f57ff04f 	dsb	sy
f0001420:	f57ff06f 	isb	sy
f0001424:	e1a0f001 	mov	pc, r1
f0001428:	e320f000 	nop	{0}
f000142c:	e320f000 	nop	{0}

f0001430 <jump_to_resume>:
f0001430:	e1a0c000 	mov	ip, r0
f0001434:	e1a08001 	mov	r8, r1
f0001438:	ebffff14 	bl	f0001090 <invalidate_dcache>
f000143c:	e1a01008 	mov	r1, r8
f0001440:	e1a0e00c 	mov	lr, ip
f0001444:	e8913fff 	ldm	r1, {r0, r1, r2, r3, r4, r5, r6, r7, r8, r9, sl, fp, ip, sp}
f0001448:	e1a0f00e 	mov	pc, lr
f000144c:	e320f000 	nop	{0}

f0001450 <jump_to_resume0>:
f0001450:	e1a0e000 	mov	lr, r0
f0001454:	e1a0f00e 	mov	pc, lr
f0001458:	e320f000 	nop	{0}
f000145c:	e320f000 	nop	{0}

f0001460 <mem_preload_tlb_nommu>:
f0001460:	e92d000f 	push	{r0, r1, r2, r3}
f0001464:	e8bd000f 	pop	{r0, r1, r2, r3}
f0001468:	e1a0f00e 	mov	pc, lr
f000146c:	f000b3fc 			; <UNDEFINED> instruction: 0xf000b3fc
f0001470:	0000b3fc 	strdeq	fp, [r0], -ip
f0001474:	000003ff 	strdeq	r0, [r0], -pc	; <UNPREDICTABLE>
f0001478:	00007fff 	strdeq	r7, [r0], -pc	; <UNPREDICTABLE>
f000147c:	f0001000 			; <UNDEFINED> instruction: 0xf0001000
f0001480:	f0002000 			; <UNDEFINED> instruction: 0xf0002000
f0001484:	f0003000 			; <UNDEFINED> instruction: 0xf0003000
f0001488:	f0004000 			; <UNDEFINED> instruction: 0xf0004000
f000148c:	f0005000 			; <UNDEFINED> instruction: 0xf0005000
f0001490:	f0006000 			; <UNDEFINED> instruction: 0xf0006000
f0001494:	f0007000 			; <UNDEFINED> instruction: 0xf0007000
f0001498:	f0008000 			; <UNDEFINED> instruction: 0xf0008000
f000149c:	f0009000 			; <UNDEFINED> instruction: 0xf0009000
f00014a0:	f000a000 			; <UNDEFINED> instruction: 0xf000a000
f00014a4:	f000b000 			; <UNDEFINED> instruction: 0xf000b000
f00014a8:	f1c20800 			; <UNDEFINED> instruction: 0xf1c20800
f00014ac:	f1c28000 			; <UNDEFINED> instruction: 0xf1c28000
f00014b0:	f1c20c00 			; <UNDEFINED> instruction: 0xf1c20c00
f00014b4:	e320f000 	nop	{0}
f00014b8:	e320f000 	nop	{0}
f00014bc:	e320f000 	nop	{0}

f00014c0 <mctl_ddr3_reset>:
f00014c0:	e92d4800 	push	{fp, lr}
f00014c4:	e28db004 	add	fp, sp, #4
f00014c8:	e24dd008 	sub	sp, sp, #8
f00014cc:	e3013230 	movw	r3, #4656	; 0x1230
f00014d0:	e34f31c0 	movt	r3, #61888	; 0xf1c0
f00014d4:	e5933000 	ldr	r3, [r3]
f00014d8:	e50b3008 	str	r3, [fp, #-8]
f00014dc:	e51b3008 	ldr	r3, [fp, #-8]
f00014e0:	e3c33a01 	bic	r3, r3, #4096	; 0x1000
f00014e4:	e50b3008 	str	r3, [fp, #-8]
f00014e8:	e3013230 	movw	r3, #4656	; 0x1230
f00014ec:	e34f31c0 	movt	r3, #61888	; 0xf1c0
f00014f0:	e51b2008 	ldr	r2, [fp, #-8]
f00014f4:	e5832000 	str	r2, [r3]
f00014f8:	e3a00c01 	mov	r0, #256	; 0x100
f00014fc:	ebfffe43 	bl	f0000e10 <mem_delay>
f0001500:	e3013230 	movw	r3, #4656	; 0x1230
f0001504:	e34f31c0 	movt	r3, #61888	; 0xf1c0
f0001508:	e5933000 	ldr	r3, [r3]
f000150c:	e50b3008 	str	r3, [fp, #-8]
f0001510:	e51b3008 	ldr	r3, [fp, #-8]
f0001514:	e3833a01 	orr	r3, r3, #4096	; 0x1000
f0001518:	e50b3008 	str	r3, [fp, #-8]
f000151c:	e3013230 	movw	r3, #4656	; 0x1230
f0001520:	e34f31c0 	movt	r3, #61888	; 0xf1c0
f0001524:	e51b2008 	ldr	r2, [fp, #-8]
f0001528:	e5832000 	str	r2, [r3]
f000152c:	e24bd004 	sub	sp, fp, #4
f0001530:	e8bd8800 	pop	{fp, pc}

f0001534 <mctl_set_drive>:
f0001534:	e52db004 	push	{fp}		; (str fp, [sp, #-4]!)
f0001538:	e28db000 	add	fp, sp, #0
f000153c:	e24dd00c 	sub	sp, sp, #12
f0001540:	e3013230 	movw	r3, #4656	; 0x1230
f0001544:	e34f31c0 	movt	r3, #61888	; 0xf1c0
f0001548:	e5933000 	ldr	r3, [r3]
f000154c:	e50b3008 	str	r3, [fp, #-8]
f0001550:	e51b3008 	ldr	r3, [fp, #-8]
f0001554:	e3833a06 	orr	r3, r3, #24576	; 0x6000
f0001558:	e50b3008 	str	r3, [fp, #-8]
f000155c:	e51b3008 	ldr	r3, [fp, #-8]
f0001560:	e3833eff 	orr	r3, r3, #4080	; 0xff0
f0001564:	e383300c 	orr	r3, r3, #12
f0001568:	e50b3008 	str	r3, [fp, #-8]
f000156c:	e51b3008 	ldr	r3, [fp, #-8]
f0001570:	e3c33003 	bic	r3, r3, #3
f0001574:	e50b3008 	str	r3, [fp, #-8]
f0001578:	e51b3008 	ldr	r3, [fp, #-8]
f000157c:	e3c33203 	bic	r3, r3, #805306368	; 0x30000000
f0001580:	e50b3008 	str	r3, [fp, #-8]
f0001584:	e3013230 	movw	r3, #4656	; 0x1230
f0001588:	e34f31c0 	movt	r3, #61888	; 0xf1c0
f000158c:	e51b2008 	ldr	r2, [fp, #-8]
f0001590:	e5832000 	str	r2, [r3]
f0001594:	e28bd000 	add	sp, fp, #0
f0001598:	e8bd0800 	pop	{fp}
f000159c:	e12fff1e 	bx	lr

f00015a0 <mctl_itm_disable>:
f00015a0:	e52db004 	push	{fp}		; (str fp, [sp, #-4]!)
f00015a4:	e28db000 	add	fp, sp, #0
f00015a8:	e24dd00c 	sub	sp, sp, #12
f00015ac:	e3a03000 	mov	r3, #0
f00015b0:	e50b3008 	str	r3, [fp, #-8]
f00015b4:	e3a03a01 	mov	r3, #4096	; 0x1000
f00015b8:	e34f31c0 	movt	r3, #61888	; 0xf1c0
f00015bc:	e5933000 	ldr	r3, [r3]
f00015c0:	e50b3008 	str	r3, [fp, #-8]
f00015c4:	e51b3008 	ldr	r3, [fp, #-8]
f00015c8:	e3833201 	orr	r3, r3, #268435456	; 0x10000000
f00015cc:	e50b3008 	str	r3, [fp, #-8]
f00015d0:	e51b3008 	ldr	r3, [fp, #-8]
f00015d4:	e3c33102 	bic	r3, r3, #-2147483648	; 0x80000000
f00015d8:	e50b3008 	str	r3, [fp, #-8]
f00015dc:	e3a03a01 	mov	r3, #4096	; 0x1000
f00015e0:	e34f31c0 	movt	r3, #61888	; 0xf1c0
f00015e4:	e51b2008 	ldr	r2, [fp, #-8]
f00015e8:	e5832000 	str	r2, [r3]
f00015ec:	e28bd000 	add	sp, fp, #0
f00015f0:	e8bd0800 	pop	{fp}
f00015f4:	e12fff1e 	bx	lr

f00015f8 <mctl_itm_enable>:
f00015f8:	e52db004 	push	{fp}		; (str fp, [sp, #-4]!)
f00015fc:	e28db000 	add	fp, sp, #0
f0001600:	e24dd00c 	sub	sp, sp, #12
f0001604:	e3a03000 	mov	r3, #0
f0001608:	e50b3008 	str	r3, [fp, #-8]
f000160c:	e3a03a01 	mov	r3, #4096	; 0x1000
f0001610:	e34f31c0 	movt	r3, #61888	; 0xf1c0
f0001614:	e5933000 	ldr	r3, [r3]
f0001618:	e50b3008 	str	r3, [fp, #-8]
f000161c:	e51b3008 	ldr	r3, [fp, #-8]
f0001620:	e3c33201 	bic	r3, r3, #268435456	; 0x10000000
f0001624:	e50b3008 	str	r3, [fp, #-8]
f0001628:	e3a03a01 	mov	r3, #4096	; 0x1000
f000162c:	e34f31c0 	movt	r3, #61888	; 0xf1c0
f0001630:	e51b2008 	ldr	r2, [fp, #-8]
f0001634:	e5832000 	str	r2, [r3]
f0001638:	e28bd000 	add	sp, fp, #0
f000163c:	e8bd0800 	pop	{fp}
f0001640:	e12fff1e 	bx	lr

f0001644 <mctl_enable_dll0>:
f0001644:	e92d4800 	push	{fp, lr}
f0001648:	e28db004 	add	fp, sp, #4
f000164c:	e24dd008 	sub	sp, sp, #8
f0001650:	e50b0008 	str	r0, [fp, #-8]
f0001654:	e3013204 	movw	r3, #4612	; 0x1204
f0001658:	e34f31c0 	movt	r3, #61888	; 0xf1c0
f000165c:	e3012204 	movw	r2, #4612	; 0x1204
f0001660:	e34f21c0 	movt	r2, #61888	; 0xf1c0
f0001664:	e5922000 	ldr	r2, [r2]
f0001668:	e3c21d3f 	bic	r1, r2, #4032	; 0xfc0
f000166c:	e51b2008 	ldr	r2, [fp, #-8]
f0001670:	e1a02822 	lsr	r2, r2, #16
f0001674:	e202203f 	and	r2, r2, #63	; 0x3f
f0001678:	e1a02302 	lsl	r2, r2, #6
f000167c:	e1812002 	orr	r2, r1, r2
f0001680:	e5832000 	str	r2, [r3]
f0001684:	e3013204 	movw	r3, #4612	; 0x1204
f0001688:	e34f31c0 	movt	r3, #61888	; 0xf1c0
f000168c:	e3012204 	movw	r2, #4612	; 0x1204
f0001690:	e34f21c0 	movt	r2, #61888	; 0xf1c0
f0001694:	e5922000 	ldr	r2, [r2]
f0001698:	e3c22103 	bic	r2, r2, #-1073741824	; 0xc0000000
f000169c:	e3822102 	orr	r2, r2, #-2147483648	; 0x80000000
f00016a0:	e5832000 	str	r2, [r3]
f00016a4:	e3a0000a 	mov	r0, #10
f00016a8:	ebfffe2b 	bl	f0000f5c <delay_us>
f00016ac:	e3013204 	movw	r3, #4612	; 0x1204
f00016b0:	e34f31c0 	movt	r3, #61888	; 0xf1c0
f00016b4:	e3012204 	movw	r2, #4612	; 0x1204
f00016b8:	e34f21c0 	movt	r2, #61888	; 0xf1c0
f00016bc:	e5922000 	ldr	r2, [r2]
f00016c0:	e3c22103 	bic	r2, r2, #-1073741824	; 0xc0000000
f00016c4:	e5832000 	str	r2, [r3]
f00016c8:	e3a0000a 	mov	r0, #10
f00016cc:	ebfffe22 	bl	f0000f5c <delay_us>
f00016d0:	e3013204 	movw	r3, #4612	; 0x1204
f00016d4:	e34f31c0 	movt	r3, #61888	; 0xf1c0
f00016d8:	e3012204 	movw	r2, #4612	; 0x1204
f00016dc:	e34f21c0 	movt	r2, #61888	; 0xf1c0
f00016e0:	e5922000 	ldr	r2, [r2]
f00016e4:	e3c22103 	bic	r2, r2, #-1073741824	; 0xc0000000
f00016e8:	e3822101 	orr	r2, r2, #1073741824	; 0x40000000
f00016ec:	e5832000 	str	r2, [r3]
f00016f0:	e3a00064 	mov	r0, #100	; 0x64
f00016f4:	ebfffe18 	bl	f0000f5c <delay_us>
f00016f8:	e24bd004 	sub	sp, fp, #4
f00016fc:	e8bd8800 	pop	{fp, pc}

f0001700 <mctl_enable_dllx>:
f0001700:	e92d4800 	push	{fp, lr}
f0001704:	e28db004 	add	fp, sp, #4
f0001708:	e24dd018 	sub	sp, sp, #24
f000170c:	e50b0018 	str	r0, [fp, #-24]
f0001710:	e3a03000 	mov	r3, #0
f0001714:	e50b3008 	str	r3, [fp, #-8]
f0001718:	e51b3018 	ldr	r3, [fp, #-24]
f000171c:	e50b3010 	str	r3, [fp, #-16]
f0001720:	e3013004 	movw	r3, #4100	; 0x1004
f0001724:	e34f31c0 	movt	r3, #61888	; 0xf1c0
f0001728:	e5933000 	ldr	r3, [r3]
f000172c:	e50b3014 	str	r3, [fp, #-20]
f0001730:	e51b3014 	ldr	r3, [fp, #-20]
f0001734:	e1a03323 	lsr	r3, r3, #6
f0001738:	e50b3014 	str	r3, [fp, #-20]
f000173c:	e51b3014 	ldr	r3, [fp, #-20]
f0001740:	e2033007 	and	r3, r3, #7
f0001744:	e50b3014 	str	r3, [fp, #-20]
f0001748:	e51b3014 	ldr	r3, [fp, #-20]
f000174c:	e3530003 	cmp	r3, #3
f0001750:	1a000002 	bne	f0001760 <mctl_enable_dllx+0x60>
f0001754:	e3a03005 	mov	r3, #5
f0001758:	e50b300c 	str	r3, [fp, #-12]
f000175c:	ea000001 	b	f0001768 <mctl_enable_dllx+0x68>
f0001760:	e3a03003 	mov	r3, #3
f0001764:	e50b300c 	str	r3, [fp, #-12]
f0001768:	e3a03001 	mov	r3, #1
f000176c:	e50b3008 	str	r3, [fp, #-8]
f0001770:	ea000026 	b	f0001810 <mctl_enable_dllx+0x110>
f0001774:	e51b3008 	ldr	r3, [fp, #-8]
f0001778:	e1a02103 	lsl	r2, r3, #2
f000177c:	e3013204 	movw	r3, #4612	; 0x1204
f0001780:	e34f31c0 	movt	r3, #61888	; 0xf1c0
f0001784:	e0823003 	add	r3, r2, r3
f0001788:	e1a02003 	mov	r2, r3
f000178c:	e51b3008 	ldr	r3, [fp, #-8]
f0001790:	e1a01103 	lsl	r1, r3, #2
f0001794:	e3013204 	movw	r3, #4612	; 0x1204
f0001798:	e34f31c0 	movt	r3, #61888	; 0xf1c0
f000179c:	e0813003 	add	r3, r1, r3
f00017a0:	e5933000 	ldr	r3, [r3]
f00017a4:	e3c3190f 	bic	r1, r3, #245760	; 0x3c000
f00017a8:	e51b3010 	ldr	r3, [fp, #-16]
f00017ac:	e203300f 	and	r3, r3, #15
f00017b0:	e1a03703 	lsl	r3, r3, #14
f00017b4:	e1813003 	orr	r3, r1, r3
f00017b8:	e5823000 	str	r3, [r2]
f00017bc:	e51b3008 	ldr	r3, [fp, #-8]
f00017c0:	e1a02103 	lsl	r2, r3, #2
f00017c4:	e3013204 	movw	r3, #4612	; 0x1204
f00017c8:	e34f31c0 	movt	r3, #61888	; 0xf1c0
f00017cc:	e0823003 	add	r3, r2, r3
f00017d0:	e1a02003 	mov	r2, r3
f00017d4:	e51b3008 	ldr	r3, [fp, #-8]
f00017d8:	e1a01103 	lsl	r1, r3, #2
f00017dc:	e3013204 	movw	r3, #4612	; 0x1204
f00017e0:	e34f31c0 	movt	r3, #61888	; 0xf1c0
f00017e4:	e0813003 	add	r3, r1, r3
f00017e8:	e5933000 	ldr	r3, [r3]
f00017ec:	e3c33103 	bic	r3, r3, #-1073741824	; 0xc0000000
f00017f0:	e3833102 	orr	r3, r3, #-2147483648	; 0x80000000
f00017f4:	e5823000 	str	r3, [r2]
f00017f8:	e51b3010 	ldr	r3, [fp, #-16]
f00017fc:	e1a03223 	lsr	r3, r3, #4
f0001800:	e50b3010 	str	r3, [fp, #-16]
f0001804:	e51b3008 	ldr	r3, [fp, #-8]
f0001808:	e2833001 	add	r3, r3, #1
f000180c:	e50b3008 	str	r3, [fp, #-8]
f0001810:	e51b2008 	ldr	r2, [fp, #-8]
f0001814:	e51b300c 	ldr	r3, [fp, #-12]
f0001818:	e1520003 	cmp	r2, r3
f000181c:	3affffd4 	bcc	f0001774 <mctl_enable_dllx+0x74>
f0001820:	e3a0000a 	mov	r0, #10
f0001824:	ebfffdcc 	bl	f0000f5c <delay_us>
f0001828:	e3a03001 	mov	r3, #1
f000182c:	e50b3008 	str	r3, [fp, #-8]
f0001830:	ea000010 	b	f0001878 <mctl_enable_dllx+0x178>
f0001834:	e51b3008 	ldr	r3, [fp, #-8]
f0001838:	e1a02103 	lsl	r2, r3, #2
f000183c:	e3013204 	movw	r3, #4612	; 0x1204
f0001840:	e34f31c0 	movt	r3, #61888	; 0xf1c0
f0001844:	e0823003 	add	r3, r2, r3
f0001848:	e1a02003 	mov	r2, r3
f000184c:	e51b3008 	ldr	r3, [fp, #-8]
f0001850:	e1a01103 	lsl	r1, r3, #2
f0001854:	e3013204 	movw	r3, #4612	; 0x1204
f0001858:	e34f31c0 	movt	r3, #61888	; 0xf1c0
f000185c:	e0813003 	add	r3, r1, r3
f0001860:	e5933000 	ldr	r3, [r3]
f0001864:	e3c33103 	bic	r3, r3, #-1073741824	; 0xc0000000
f0001868:	e5823000 	str	r3, [r2]
f000186c:	e51b3008 	ldr	r3, [fp, #-8]
f0001870:	e2833001 	add	r3, r3, #1
f0001874:	e50b3008 	str	r3, [fp, #-8]
f0001878:	e51b2008 	ldr	r2, [fp, #-8]
f000187c:	e51b300c 	ldr	r3, [fp, #-12]
f0001880:	e1520003 	cmp	r2, r3
f0001884:	3affffea 	bcc	f0001834 <mctl_enable_dllx+0x134>
f0001888:	e3a0000a 	mov	r0, #10
f000188c:	ebfffdb2 	bl	f0000f5c <delay_us>
f0001890:	e3a03001 	mov	r3, #1
f0001894:	e50b3008 	str	r3, [fp, #-8]
f0001898:	ea000011 	b	f00018e4 <mctl_enable_dllx+0x1e4>
f000189c:	e51b3008 	ldr	r3, [fp, #-8]
f00018a0:	e1a02103 	lsl	r2, r3, #2
f00018a4:	e3013204 	movw	r3, #4612	; 0x1204
f00018a8:	e34f31c0 	movt	r3, #61888	; 0xf1c0
f00018ac:	e0823003 	add	r3, r2, r3
f00018b0:	e1a02003 	mov	r2, r3
f00018b4:	e51b3008 	ldr	r3, [fp, #-8]
f00018b8:	e1a01103 	lsl	r1, r3, #2
f00018bc:	e3013204 	movw	r3, #4612	; 0x1204
f00018c0:	e34f31c0 	movt	r3, #61888	; 0xf1c0
f00018c4:	e0813003 	add	r3, r1, r3
f00018c8:	e5933000 	ldr	r3, [r3]
f00018cc:	e3c33103 	bic	r3, r3, #-1073741824	; 0xc0000000
f00018d0:	e3833101 	orr	r3, r3, #1073741824	; 0x40000000
f00018d4:	e5823000 	str	r3, [r2]
f00018d8:	e51b3008 	ldr	r3, [fp, #-8]
f00018dc:	e2833001 	add	r3, r3, #1
f00018e0:	e50b3008 	str	r3, [fp, #-8]
f00018e4:	e51b2008 	ldr	r2, [fp, #-8]
f00018e8:	e51b300c 	ldr	r3, [fp, #-12]
f00018ec:	e1520003 	cmp	r2, r3
f00018f0:	3affffe9 	bcc	f000189c <mctl_enable_dllx+0x19c>
f00018f4:	e3a00064 	mov	r0, #100	; 0x64
f00018f8:	ebfffd97 	bl	f0000f5c <delay_us>
f00018fc:	e24bd004 	sub	sp, fp, #4
f0001900:	e8bd8800 	pop	{fp, pc}

f0001904 <mctl_disable_dll>:
f0001904:	e52db004 	push	{fp}		; (str fp, [sp, #-4]!)
f0001908:	e28db000 	add	fp, sp, #0
f000190c:	e24dd00c 	sub	sp, sp, #12
f0001910:	e3013204 	movw	r3, #4612	; 0x1204
f0001914:	e34f31c0 	movt	r3, #61888	; 0xf1c0
f0001918:	e5933000 	ldr	r3, [r3]
f000191c:	e50b3008 	str	r3, [fp, #-8]
f0001920:	e51b3008 	ldr	r3, [fp, #-8]
f0001924:	e3c33101 	bic	r3, r3, #1073741824	; 0x40000000
f0001928:	e50b3008 	str	r3, [fp, #-8]
f000192c:	e51b3008 	ldr	r3, [fp, #-8]
f0001930:	e3833102 	orr	r3, r3, #-2147483648	; 0x80000000
f0001934:	e50b3008 	str	r3, [fp, #-8]
f0001938:	e3013204 	movw	r3, #4612	; 0x1204
f000193c:	e34f31c0 	movt	r3, #61888	; 0xf1c0
f0001940:	e51b2008 	ldr	r2, [fp, #-8]
f0001944:	e5832000 	str	r2, [r3]
f0001948:	e3013208 	movw	r3, #4616	; 0x1208
f000194c:	e34f31c0 	movt	r3, #61888	; 0xf1c0
f0001950:	e5933000 	ldr	r3, [r3]
f0001954:	e50b3008 	str	r3, [fp, #-8]
f0001958:	e51b3008 	ldr	r3, [fp, #-8]
f000195c:	e3c33101 	bic	r3, r3, #1073741824	; 0x40000000
f0001960:	e50b3008 	str	r3, [fp, #-8]
f0001964:	e51b3008 	ldr	r3, [fp, #-8]
f0001968:	e3833102 	orr	r3, r3, #-2147483648	; 0x80000000
f000196c:	e50b3008 	str	r3, [fp, #-8]
f0001970:	e3013208 	movw	r3, #4616	; 0x1208
f0001974:	e34f31c0 	movt	r3, #61888	; 0xf1c0
f0001978:	e51b2008 	ldr	r2, [fp, #-8]
f000197c:	e5832000 	str	r2, [r3]
f0001980:	e301320c 	movw	r3, #4620	; 0x120c
f0001984:	e34f31c0 	movt	r3, #61888	; 0xf1c0
f0001988:	e5933000 	ldr	r3, [r3]
f000198c:	e50b3008 	str	r3, [fp, #-8]
f0001990:	e51b3008 	ldr	r3, [fp, #-8]
f0001994:	e3c33101 	bic	r3, r3, #1073741824	; 0x40000000
f0001998:	e50b3008 	str	r3, [fp, #-8]
f000199c:	e51b3008 	ldr	r3, [fp, #-8]
f00019a0:	e3833102 	orr	r3, r3, #-2147483648	; 0x80000000
f00019a4:	e50b3008 	str	r3, [fp, #-8]
f00019a8:	e301320c 	movw	r3, #4620	; 0x120c
f00019ac:	e34f31c0 	movt	r3, #61888	; 0xf1c0
f00019b0:	e51b2008 	ldr	r2, [fp, #-8]
f00019b4:	e5832000 	str	r2, [r3]
f00019b8:	e3013210 	movw	r3, #4624	; 0x1210
f00019bc:	e34f31c0 	movt	r3, #61888	; 0xf1c0
f00019c0:	e5933000 	ldr	r3, [r3]
f00019c4:	e50b3008 	str	r3, [fp, #-8]
f00019c8:	e51b3008 	ldr	r3, [fp, #-8]
f00019cc:	e3c33101 	bic	r3, r3, #1073741824	; 0x40000000
f00019d0:	e50b3008 	str	r3, [fp, #-8]
f00019d4:	e51b3008 	ldr	r3, [fp, #-8]
f00019d8:	e3833102 	orr	r3, r3, #-2147483648	; 0x80000000
f00019dc:	e50b3008 	str	r3, [fp, #-8]
f00019e0:	e3013210 	movw	r3, #4624	; 0x1210
f00019e4:	e34f31c0 	movt	r3, #61888	; 0xf1c0
f00019e8:	e51b2008 	ldr	r2, [fp, #-8]
f00019ec:	e5832000 	str	r2, [r3]
f00019f0:	e3013214 	movw	r3, #4628	; 0x1214
f00019f4:	e34f31c0 	movt	r3, #61888	; 0xf1c0
f00019f8:	e5933000 	ldr	r3, [r3]
f00019fc:	e50b3008 	str	r3, [fp, #-8]
f0001a00:	e51b3008 	ldr	r3, [fp, #-8]
f0001a04:	e3c33101 	bic	r3, r3, #1073741824	; 0x40000000
f0001a08:	e50b3008 	str	r3, [fp, #-8]
f0001a0c:	e51b3008 	ldr	r3, [fp, #-8]
f0001a10:	e3833102 	orr	r3, r3, #-2147483648	; 0x80000000
f0001a14:	e50b3008 	str	r3, [fp, #-8]
f0001a18:	e3013214 	movw	r3, #4628	; 0x1214
f0001a1c:	e34f31c0 	movt	r3, #61888	; 0xf1c0
f0001a20:	e51b2008 	ldr	r2, [fp, #-8]
f0001a24:	e5832000 	str	r2, [r3]
f0001a28:	e28bd000 	add	sp, fp, #0
f0001a2c:	e8bd0800 	pop	{fp}
f0001a30:	e12fff1e 	bx	lr

f0001a34 <mctl_configure_hostport>:
f0001a34:	e52db004 	push	{fp}		; (str fp, [sp, #-4]!)
f0001a38:	e28db000 	add	fp, sp, #0
f0001a3c:	e24dd00c 	sub	sp, sp, #12
f0001a40:	e3a03000 	mov	r3, #0
f0001a44:	e50b3008 	str	r3, [fp, #-8]
f0001a48:	ea00000d 	b	f0001a84 <mctl_configure_hostport+0x50>
f0001a4c:	e51b3008 	ldr	r3, [fp, #-8]
f0001a50:	e1a02103 	lsl	r2, r3, #2
f0001a54:	e3013250 	movw	r3, #4688	; 0x1250
f0001a58:	e34f31c0 	movt	r3, #61888	; 0xf1c0
f0001a5c:	e0823003 	add	r3, r2, r3
f0001a60:	e1a02003 	mov	r2, r3
f0001a64:	e3023f10 	movw	r3, #12048	; 0x2f10
f0001a68:	e34f3000 	movt	r3, #61440	; 0xf000
f0001a6c:	e51b1008 	ldr	r1, [fp, #-8]
f0001a70:	e7933101 	ldr	r3, [r3, r1, lsl #2]
f0001a74:	e5823000 	str	r3, [r2]
f0001a78:	e51b3008 	ldr	r3, [fp, #-8]
f0001a7c:	e2833001 	add	r3, r3, #1
f0001a80:	e50b3008 	str	r3, [fp, #-8]
f0001a84:	e51b3008 	ldr	r3, [fp, #-8]
f0001a88:	e3530007 	cmp	r3, #7
f0001a8c:	9affffee 	bls	f0001a4c <mctl_configure_hostport+0x18>
f0001a90:	e3a03010 	mov	r3, #16
f0001a94:	e50b3008 	str	r3, [fp, #-8]
f0001a98:	ea00000d 	b	f0001ad4 <mctl_configure_hostport+0xa0>
f0001a9c:	e51b3008 	ldr	r3, [fp, #-8]
f0001aa0:	e1a02103 	lsl	r2, r3, #2
f0001aa4:	e3013250 	movw	r3, #4688	; 0x1250
f0001aa8:	e34f31c0 	movt	r3, #61888	; 0xf1c0
f0001aac:	e0823003 	add	r3, r2, r3
f0001ab0:	e1a02003 	mov	r2, r3
f0001ab4:	e3023f10 	movw	r3, #12048	; 0x2f10
f0001ab8:	e34f3000 	movt	r3, #61440	; 0xf000
f0001abc:	e51b1008 	ldr	r1, [fp, #-8]
f0001ac0:	e7933101 	ldr	r3, [r3, r1, lsl #2]
f0001ac4:	e5823000 	str	r3, [r2]
f0001ac8:	e51b3008 	ldr	r3, [fp, #-8]
f0001acc:	e2833001 	add	r3, r3, #1
f0001ad0:	e50b3008 	str	r3, [fp, #-8]
f0001ad4:	e51b3008 	ldr	r3, [fp, #-8]
f0001ad8:	e353001b 	cmp	r3, #27
f0001adc:	9affffee 	bls	f0001a9c <mctl_configure_hostport+0x68>
f0001ae0:	e30132c4 	movw	r3, #4804	; 0x12c4
f0001ae4:	e34f31c0 	movt	r3, #61888	; 0xf1c0
f0001ae8:	e3022f10 	movw	r2, #12048	; 0x2f10
f0001aec:	e34f2000 	movt	r2, #61440	; 0xf000
f0001af0:	e51b1008 	ldr	r1, [fp, #-8]
f0001af4:	e7922101 	ldr	r2, [r2, r1, lsl #2]
f0001af8:	e5832000 	str	r2, [r3]
f0001afc:	e30132cc 	movw	r3, #4812	; 0x12cc
f0001b00:	e34f31c0 	movt	r3, #61888	; 0xf1c0
f0001b04:	e3022f10 	movw	r2, #12048	; 0x2f10
f0001b08:	e34f2000 	movt	r2, #61440	; 0xf000
f0001b0c:	e51b1008 	ldr	r1, [fp, #-8]
f0001b10:	e7922101 	ldr	r2, [r2, r1, lsl #2]
f0001b14:	e5832000 	str	r2, [r3]
f0001b18:	e28bd000 	add	sp, fp, #0
f0001b1c:	e8bd0800 	pop	{fp}
f0001b20:	e12fff1e 	bx	lr

f0001b24 <mctl_setup_dram_clock>:
f0001b24:	e92d4800 	push	{fp, lr}
f0001b28:	e28db004 	add	fp, sp, #4
f0001b2c:	e24dd010 	sub	sp, sp, #16
f0001b30:	e50b0010 	str	r0, [fp, #-16]
f0001b34:	e50b1014 	str	r1, [fp, #-20]
f0001b38:	e51b3014 	ldr	r3, [fp, #-20]
f0001b3c:	e3530000 	cmp	r3, #0
f0001b40:	0a000018 	beq	f0001ba8 <mctl_setup_dram_clock+0x84>
f0001b44:	e3a03000 	mov	r3, #0
f0001b48:	e50b3008 	str	r3, [fp, #-8]
f0001b4c:	e51b3008 	ldr	r3, [fp, #-8]
f0001b50:	e3833c33 	orr	r3, r3, #13056	; 0x3300
f0001b54:	e3833033 	orr	r3, r3, #51	; 0x33
f0001b58:	e50b3008 	str	r3, [fp, #-8]
f0001b5c:	e51b3008 	ldr	r3, [fp, #-8]
f0001b60:	e3833411 	orr	r3, r3, #285212672	; 0x11000000
f0001b64:	e3833603 	orr	r3, r3, #3145728	; 0x300000
f0001b68:	e50b3008 	str	r3, [fp, #-8]
f0001b6c:	e51b3008 	ldr	r3, [fp, #-8]
f0001b70:	e3833101 	orr	r3, r3, #1073741824	; 0x40000000
f0001b74:	e50b3008 	str	r3, [fp, #-8]
f0001b78:	e3a0303c 	mov	r3, #60	; 0x3c
f0001b7c:	e34f31c2 	movt	r3, #61890	; 0xf1c2
f0001b80:	e51b2008 	ldr	r2, [fp, #-8]
f0001b84:	e5832000 	str	r2, [r3]
f0001b88:	e51b3008 	ldr	r3, [fp, #-8]
f0001b8c:	e3833102 	orr	r3, r3, #-2147483648	; 0x80000000
f0001b90:	e50b3008 	str	r3, [fp, #-8]
f0001b94:	e3a0303c 	mov	r3, #60	; 0x3c
f0001b98:	e34f31c2 	movt	r3, #61890	; 0xf1c2
f0001b9c:	e51b2008 	ldr	r2, [fp, #-8]
f0001ba0:	e5832000 	str	r2, [r3]
f0001ba4:	ea000003 	b	f0001bb8 <mctl_setup_dram_clock+0x94>
f0001ba8:	e3a0303c 	mov	r3, #60	; 0x3c
f0001bac:	e34f31c2 	movt	r3, #61890	; 0xf1c2
f0001bb0:	e3a02000 	mov	r2, #0
f0001bb4:	e5832000 	str	r2, [r3]
f0001bb8:	e3a03020 	mov	r3, #32
f0001bbc:	e34f31c2 	movt	r3, #61890	; 0xf1c2
f0001bc0:	e5933000 	ldr	r3, [r3]
f0001bc4:	e50b3008 	str	r3, [fp, #-8]
f0001bc8:	e51b3008 	ldr	r3, [fp, #-8]
f0001bcc:	e3c33102 	bic	r3, r3, #-2147483648	; 0x80000000
f0001bd0:	e50b3008 	str	r3, [fp, #-8]
f0001bd4:	e3a03020 	mov	r3, #32
f0001bd8:	e34f31c2 	movt	r3, #61890	; 0xf1c2
f0001bdc:	e51b2008 	ldr	r2, [fp, #-8]
f0001be0:	e5832000 	str	r2, [r3]
f0001be4:	e3a00014 	mov	r0, #20
f0001be8:	ebfffcdb 	bl	f0000f5c <delay_us>
f0001bec:	e51b3008 	ldr	r3, [fp, #-8]
f0001bf0:	e3c33003 	bic	r3, r3, #3
f0001bf4:	e50b3008 	str	r3, [fp, #-8]
f0001bf8:	e51b3008 	ldr	r3, [fp, #-8]
f0001bfc:	e3833001 	orr	r3, r3, #1
f0001c00:	e50b3008 	str	r3, [fp, #-8]
f0001c04:	e51b3008 	ldr	r3, [fp, #-8]
f0001c08:	e3c33030 	bic	r3, r3, #48	; 0x30
f0001c0c:	e50b3008 	str	r3, [fp, #-8]
f0001c10:	e51b3008 	ldr	r3, [fp, #-8]
f0001c14:	e3833010 	orr	r3, r3, #16
f0001c18:	e50b3008 	str	r3, [fp, #-8]
f0001c1c:	e51b3008 	ldr	r3, [fp, #-8]
f0001c20:	e3c33c1f 	bic	r3, r3, #7936	; 0x1f00
f0001c24:	e50b3008 	str	r3, [fp, #-8]
f0001c28:	e51b2010 	ldr	r2, [fp, #-16]
f0001c2c:	e30a3aab 	movw	r3, #43691	; 0xaaab
f0001c30:	e34a3aaa 	movt	r3, #43690	; 0xaaaa
f0001c34:	e0831293 	umull	r1, r3, r3, r2
f0001c38:	e1a03223 	lsr	r3, r3, #4
f0001c3c:	e203301f 	and	r3, r3, #31
f0001c40:	e1a03403 	lsl	r3, r3, #8
f0001c44:	e51b2008 	ldr	r2, [fp, #-8]
f0001c48:	e1823003 	orr	r3, r2, r3
f0001c4c:	e50b3008 	str	r3, [fp, #-8]
f0001c50:	e51b3008 	ldr	r3, [fp, #-8]
f0001c54:	e3c33803 	bic	r3, r3, #196608	; 0x30000
f0001c58:	e50b3008 	str	r3, [fp, #-8]
f0001c5c:	e51b3008 	ldr	r3, [fp, #-8]
f0001c60:	e3833801 	orr	r3, r3, #65536	; 0x10000
f0001c64:	e50b3008 	str	r3, [fp, #-8]
f0001c68:	e51b3008 	ldr	r3, [fp, #-8]
f0001c6c:	e3c33202 	bic	r3, r3, #536870912	; 0x20000000
f0001c70:	e50b3008 	str	r3, [fp, #-8]
f0001c74:	e51b3008 	ldr	r3, [fp, #-8]
f0001c78:	e3833102 	orr	r3, r3, #-2147483648	; 0x80000000
f0001c7c:	e50b3008 	str	r3, [fp, #-8]
f0001c80:	e3a03020 	mov	r3, #32
f0001c84:	e34f31c2 	movt	r3, #61890	; 0xf1c2
f0001c88:	e51b2008 	ldr	r2, [fp, #-8]
f0001c8c:	e5832000 	str	r2, [r3]
f0001c90:	e3020710 	movw	r0, #10000	; 0x2710
f0001c94:	ebfffcb0 	bl	f0000f5c <delay_us>
f0001c98:	e3a03020 	mov	r3, #32
f0001c9c:	e34f31c2 	movt	r3, #61890	; 0xf1c2
f0001ca0:	e5933000 	ldr	r3, [r3]
f0001ca4:	e50b3008 	str	r3, [fp, #-8]
f0001ca8:	e51b3008 	ldr	r3, [fp, #-8]
f0001cac:	e3833202 	orr	r3, r3, #536870912	; 0x20000000
f0001cb0:	e50b3008 	str	r3, [fp, #-8]
f0001cb4:	e3a03020 	mov	r3, #32
f0001cb8:	e34f31c2 	movt	r3, #61890	; 0xf1c2
f0001cbc:	e51b2008 	ldr	r2, [fp, #-8]
f0001cc0:	e5832000 	str	r2, [r3]
f0001cc4:	e3a03001 	mov	r3, #1
f0001cc8:	e3483101 	movt	r3, #33025	; 0x8101
f0001ccc:	e50b3008 	str	r3, [fp, #-8]
f0001cd0:	e3a03f57 	mov	r3, #348	; 0x15c
f0001cd4:	e34f31c2 	movt	r3, #61890	; 0xf1c2
f0001cd8:	e51b2008 	ldr	r2, [fp, #-8]
f0001cdc:	e5832000 	str	r2, [r3]
f0001ce0:	e3a03060 	mov	r3, #96	; 0x60
f0001ce4:	e34f31c2 	movt	r3, #61890	; 0xf1c2
f0001ce8:	e5933000 	ldr	r3, [r3]
f0001cec:	e50b3008 	str	r3, [fp, #-8]
f0001cf0:	e51b3008 	ldr	r3, [fp, #-8]
f0001cf4:	e3c33903 	bic	r3, r3, #49152	; 0xc000
f0001cf8:	e50b3008 	str	r3, [fp, #-8]
f0001cfc:	e3a03060 	mov	r3, #96	; 0x60
f0001d00:	e34f31c2 	movt	r3, #61890	; 0xf1c2
f0001d04:	e51b2008 	ldr	r2, [fp, #-8]
f0001d08:	e5832000 	str	r2, [r3]
f0001d0c:	e3a0000a 	mov	r0, #10
f0001d10:	ebfffc91 	bl	f0000f5c <delay_us>
f0001d14:	e51b3008 	ldr	r3, [fp, #-8]
f0001d18:	e3833903 	orr	r3, r3, #49152	; 0xc000
f0001d1c:	e50b3008 	str	r3, [fp, #-8]
f0001d20:	e3a03060 	mov	r3, #96	; 0x60
f0001d24:	e34f31c2 	movt	r3, #61890	; 0xf1c2
f0001d28:	e51b2008 	ldr	r2, [fp, #-8]
f0001d2c:	e5832000 	str	r2, [r3]
f0001d30:	e3a0000a 	mov	r0, #10
f0001d34:	ebfffc88 	bl	f0000f5c <delay_us>
f0001d38:	e24bd004 	sub	sp, fp, #4
f0001d3c:	e8bd8800 	pop	{fp, pc}

f0001d40 <DRAMC_init>:
f0001d40:	e92d4800 	push	{fp, lr}
f0001d44:	e28db004 	add	fp, sp, #4
f0001d48:	e24dd018 	sub	sp, sp, #24
f0001d4c:	e50b0018 	str	r0, [fp, #-24]
f0001d50:	e3a03000 	mov	r3, #0
f0001d54:	e50b300c 	str	r3, [fp, #-12]
f0001d58:	e51b3018 	ldr	r3, [fp, #-24]
f0001d5c:	e3530000 	cmp	r3, #0
f0001d60:	1a000001 	bne	f0001d6c <DRAMC_init+0x2c>
f0001d64:	e3a03000 	mov	r3, #0
f0001d68:	ea0001df 	b	f00024ec <DRAMC_init+0x7ac>
f0001d6c:	e3a03060 	mov	r3, #96	; 0x60
f0001d70:	e34f31c2 	movt	r3, #61890	; 0xf1c2
f0001d74:	e5933000 	ldr	r3, [r3]
f0001d78:	e50b3008 	str	r3, [fp, #-8]
f0001d7c:	e51b3008 	ldr	r3, [fp, #-8]
f0001d80:	e3c33903 	bic	r3, r3, #49152	; 0xc000
f0001d84:	e50b3008 	str	r3, [fp, #-8]
f0001d88:	e3a03060 	mov	r3, #96	; 0x60
f0001d8c:	e34f31c2 	movt	r3, #61890	; 0xf1c2
f0001d90:	e51b2008 	ldr	r2, [fp, #-8]
f0001d94:	e5832000 	str	r2, [r3]
f0001d98:	e3a0000a 	mov	r0, #10
f0001d9c:	ebfffc6e 	bl	f0000f5c <delay_us>
f0001da0:	e51b3018 	ldr	r3, [fp, #-24]
f0001da4:	e593303c 	ldr	r3, [r3, #60]	; 0x3c
f0001da8:	e2033004 	and	r3, r3, #4
f0001dac:	e3530000 	cmp	r3, #0
f0001db0:	0a000005 	beq	f0001dcc <DRAMC_init+0x8c>
f0001db4:	e51b3018 	ldr	r3, [fp, #-24]
f0001db8:	e5933004 	ldr	r3, [r3, #4]
f0001dbc:	e1a00003 	mov	r0, r3
f0001dc0:	e3a01001 	mov	r1, #1
f0001dc4:	ebffff56 	bl	f0001b24 <mctl_setup_dram_clock>
f0001dc8:	ea000004 	b	f0001de0 <DRAMC_init+0xa0>
f0001dcc:	e51b3018 	ldr	r3, [fp, #-24]
f0001dd0:	e5933004 	ldr	r3, [r3, #4]
f0001dd4:	e1a00003 	mov	r0, r3
f0001dd8:	e3a01000 	mov	r1, #0
f0001ddc:	ebffff50 	bl	f0001b24 <mctl_setup_dram_clock>
f0001de0:	ebfffdd3 	bl	f0001534 <mctl_set_drive>
f0001de4:	e3a00000 	mov	r0, #0
f0001de8:	eb0001f1 	bl	f00025b4 <DRAMC_clock_output_en>
f0001dec:	ebfffdeb 	bl	f00015a0 <mctl_itm_disable>
f0001df0:	e51b3018 	ldr	r3, [fp, #-24]
f0001df4:	e5933004 	ldr	r3, [r3, #4]
f0001df8:	e3530f4b 	cmp	r3, #300	; 0x12c
f0001dfc:	9a000004 	bls	f0001e14 <DRAMC_init+0xd4>
f0001e00:	e51b3018 	ldr	r3, [fp, #-24]
f0001e04:	e5933038 	ldr	r3, [r3, #56]	; 0x38
f0001e08:	e1a00003 	mov	r0, r3
f0001e0c:	ebfffe0c 	bl	f0001644 <mctl_enable_dll0>
f0001e10:	ea000000 	b	f0001e18 <DRAMC_init+0xd8>
f0001e14:	ebfffeba 	bl	f0001904 <mctl_disable_dll>
f0001e18:	e3a03000 	mov	r3, #0
f0001e1c:	e50b3008 	str	r3, [fp, #-8]
f0001e20:	e51b3018 	ldr	r3, [fp, #-24]
f0001e24:	e5933008 	ldr	r3, [r3, #8]
f0001e28:	e3530003 	cmp	r3, #3
f0001e2c:	1a000002 	bne	f0001e3c <DRAMC_init+0xfc>
f0001e30:	e51b3008 	ldr	r3, [fp, #-8]
f0001e34:	e3833001 	orr	r3, r3, #1
f0001e38:	e50b3008 	str	r3, [fp, #-8]
f0001e3c:	e51b3018 	ldr	r3, [fp, #-24]
f0001e40:	e5933014 	ldr	r3, [r3, #20]
f0001e44:	e1a031a3 	lsr	r3, r3, #3
f0001e48:	e1a03083 	lsl	r3, r3, #1
f0001e4c:	e51b2008 	ldr	r2, [fp, #-8]
f0001e50:	e1823003 	orr	r3, r2, r3
f0001e54:	e50b3008 	str	r3, [fp, #-8]
f0001e58:	e51b3018 	ldr	r3, [fp, #-24]
f0001e5c:	e5933010 	ldr	r3, [r3, #16]
f0001e60:	e3530c01 	cmp	r3, #256	; 0x100
f0001e64:	0a000027 	beq	f0001f08 <DRAMC_init+0x1c8>
f0001e68:	e51b3018 	ldr	r3, [fp, #-24]
f0001e6c:	e5933010 	ldr	r3, [r3, #16]
f0001e70:	e3530c02 	cmp	r3, #512	; 0x200
f0001e74:	1a000003 	bne	f0001e88 <DRAMC_init+0x148>
f0001e78:	e51b3008 	ldr	r3, [fp, #-8]
f0001e7c:	e3833008 	orr	r3, r3, #8
f0001e80:	e50b3008 	str	r3, [fp, #-8]
f0001e84:	ea000020 	b	f0001f0c <DRAMC_init+0x1cc>
f0001e88:	e51b3018 	ldr	r3, [fp, #-24]
f0001e8c:	e5933010 	ldr	r3, [r3, #16]
f0001e90:	e3530b01 	cmp	r3, #1024	; 0x400
f0001e94:	1a000003 	bne	f0001ea8 <DRAMC_init+0x168>
f0001e98:	e51b3008 	ldr	r3, [fp, #-8]
f0001e9c:	e3833010 	orr	r3, r3, #16
f0001ea0:	e50b3008 	str	r3, [fp, #-8]
f0001ea4:	ea000018 	b	f0001f0c <DRAMC_init+0x1cc>
f0001ea8:	e51b3018 	ldr	r3, [fp, #-24]
f0001eac:	e5933010 	ldr	r3, [r3, #16]
f0001eb0:	e3530b02 	cmp	r3, #2048	; 0x800
f0001eb4:	1a000003 	bne	f0001ec8 <DRAMC_init+0x188>
f0001eb8:	e51b3008 	ldr	r3, [fp, #-8]
f0001ebc:	e3833018 	orr	r3, r3, #24
f0001ec0:	e50b3008 	str	r3, [fp, #-8]
f0001ec4:	ea000010 	b	f0001f0c <DRAMC_init+0x1cc>
f0001ec8:	e51b3018 	ldr	r3, [fp, #-24]
f0001ecc:	e5933010 	ldr	r3, [r3, #16]
f0001ed0:	e3530a01 	cmp	r3, #4096	; 0x1000
f0001ed4:	1a000003 	bne	f0001ee8 <DRAMC_init+0x1a8>
f0001ed8:	e51b3008 	ldr	r3, [fp, #-8]
f0001edc:	e3833020 	orr	r3, r3, #32
f0001ee0:	e50b3008 	str	r3, [fp, #-8]
f0001ee4:	ea000008 	b	f0001f0c <DRAMC_init+0x1cc>
f0001ee8:	e51b3018 	ldr	r3, [fp, #-24]
f0001eec:	e5933010 	ldr	r3, [r3, #16]
f0001ef0:	e3530a02 	cmp	r3, #8192	; 0x2000
f0001ef4:	1a000004 	bne	f0001f0c <DRAMC_init+0x1cc>
f0001ef8:	e51b3008 	ldr	r3, [fp, #-8]
f0001efc:	e3833028 	orr	r3, r3, #40	; 0x28
f0001f00:	e50b3008 	str	r3, [fp, #-8]
f0001f04:	ea000000 	b	f0001f0c <DRAMC_init+0x1cc>
f0001f08:	e1a00000 	nop			; (mov r0, r0)
f0001f0c:	e51b3018 	ldr	r3, [fp, #-24]
f0001f10:	e5933018 	ldr	r3, [r3, #24]
f0001f14:	e1a031a3 	lsr	r3, r3, #3
f0001f18:	e2433001 	sub	r3, r3, #1
f0001f1c:	e1a03303 	lsl	r3, r3, #6
f0001f20:	e51b2008 	ldr	r2, [fp, #-8]
f0001f24:	e1823003 	orr	r3, r2, r3
f0001f28:	e50b3008 	str	r3, [fp, #-8]
f0001f2c:	e51b3018 	ldr	r3, [fp, #-24]
f0001f30:	e593300c 	ldr	r3, [r3, #12]
f0001f34:	e2433001 	sub	r3, r3, #1
f0001f38:	e1a03503 	lsl	r3, r3, #10
f0001f3c:	e51b2008 	ldr	r2, [fp, #-8]
f0001f40:	e1823003 	orr	r3, r2, r3
f0001f44:	e50b3008 	str	r3, [fp, #-8]
f0001f48:	e51b3008 	ldr	r3, [fp, #-8]
f0001f4c:	e3833a01 	orr	r3, r3, #4096	; 0x1000
f0001f50:	e50b3008 	str	r3, [fp, #-8]
f0001f54:	e51b3008 	ldr	r3, [fp, #-8]
f0001f58:	e3833a02 	orr	r3, r3, #8192	; 0x2000
f0001f5c:	e50b3008 	str	r3, [fp, #-8]
f0001f60:	e3013004 	movw	r3, #4100	; 0x1004
f0001f64:	e34f31c0 	movt	r3, #61888	; 0xf1c0
f0001f68:	e51b2008 	ldr	r2, [fp, #-8]
f0001f6c:	e5832000 	str	r2, [r3]
f0001f70:	e30130ac 	movw	r3, #4268	; 0x10ac
f0001f74:	e34f31c0 	movt	r3, #61888	; 0xf1c0
f0001f78:	e5933000 	ldr	r3, [r3]
f0001f7c:	e50b3008 	str	r3, [fp, #-8]
f0001f80:	e51b3008 	ldr	r3, [fp, #-8]
f0001f84:	e3833401 	orr	r3, r3, #16777216	; 0x1000000
f0001f88:	e3833002 	orr	r3, r3, #2
f0001f8c:	e50b3008 	str	r3, [fp, #-8]
f0001f90:	e51b3018 	ldr	r3, [fp, #-24]
f0001f94:	e593303c 	ldr	r3, [r3, #60]	; 0x3c
f0001f98:	e2033002 	and	r3, r3, #2
f0001f9c:	e3530000 	cmp	r3, #0
f0001fa0:	0a000003 	beq	f0001fb4 <DRAMC_init+0x274>
f0001fa4:	e51b3008 	ldr	r3, [fp, #-8]
f0001fa8:	e3c33401 	bic	r3, r3, #16777216	; 0x1000000
f0001fac:	e3c33002 	bic	r3, r3, #2
f0001fb0:	e50b3008 	str	r3, [fp, #-8]
f0001fb4:	e30130ac 	movw	r3, #4268	; 0x10ac
f0001fb8:	e34f31c0 	movt	r3, #61888	; 0xf1c0
f0001fbc:	e51b2008 	ldr	r2, [fp, #-8]
f0001fc0:	e5832000 	str	r2, [r3]
f0001fc4:	e3a00001 	mov	r0, #1
f0001fc8:	eb000179 	bl	f00025b4 <DRAMC_clock_output_en>
f0001fcc:	e301323c 	movw	r3, #4668	; 0x123c
f0001fd0:	e34f31c0 	movt	r3, #61888	; 0xf1c0
f0001fd4:	e5933000 	ldr	r3, [r3]
f0001fd8:	e50b300c 	str	r3, [fp, #-12]
f0001fdc:	e51b300c 	ldr	r3, [fp, #-12]
f0001fe0:	e3530000 	cmp	r3, #0
f0001fe4:	1a00001f 	bne	f0002068 <DRAMC_init+0x328>
f0001fe8:	e51b3018 	ldr	r3, [fp, #-24]
f0001fec:	e5933020 	ldr	r3, [r3, #32]
f0001ff0:	e1a03423 	lsr	r3, r3, #8
f0001ff4:	e3c334ff 	bic	r3, r3, #-16777216	; 0xff000000
f0001ff8:	e3c3360f 	bic	r3, r3, #15728640	; 0xf00000
f0001ffc:	e50b3008 	str	r3, [fp, #-8]
f0002000:	e51b3018 	ldr	r3, [fp, #-24]
f0002004:	e5933020 	ldr	r3, [r3, #32]
f0002008:	e6ef3073 	uxtb	r3, r3
f000200c:	e1a03a03 	lsl	r3, r3, #20
f0002010:	e51b2008 	ldr	r2, [fp, #-8]
f0002014:	e1823003 	orr	r3, r2, r3
f0002018:	e50b3008 	str	r3, [fp, #-8]
f000201c:	e51b3018 	ldr	r3, [fp, #-24]
f0002020:	e5933020 	ldr	r3, [r3, #32]
f0002024:	e203320f 	and	r3, r3, #-268435456	; 0xf0000000
f0002028:	e51b2008 	ldr	r2, [fp, #-8]
f000202c:	e1823003 	orr	r3, r2, r3
f0002030:	e50b3008 	str	r3, [fp, #-8]
f0002034:	e51b3008 	ldr	r3, [fp, #-8]
f0002038:	e3833102 	orr	r3, r3, #-2147483648	; 0x80000000
f000203c:	e50b3008 	str	r3, [fp, #-8]
f0002040:	e30130a8 	movw	r3, #4264	; 0x10a8
f0002044:	e34f31c0 	movt	r3, #61888	; 0xf1c0
f0002048:	e51b2008 	ldr	r2, [fp, #-8]
f000204c:	e5832000 	str	r2, [r3]
f0002050:	e1a00000 	nop			; (mov r0, r0)
f0002054:	e30130b0 	movw	r3, #4272	; 0x10b0
f0002058:	e34f31c0 	movt	r3, #61888	; 0xf1c0
f000205c:	e5933000 	ldr	r3, [r3]
f0002060:	e3530000 	cmp	r3, #0
f0002064:	aafffffa 	bge	f0002054 <DRAMC_init+0x314>
f0002068:	e30130b4 	movw	r3, #4276	; 0x10b4
f000206c:	e34f31c0 	movt	r3, #61888	; 0xf1c0
f0002070:	e5933000 	ldr	r3, [r3]
f0002074:	e50b3008 	str	r3, [fp, #-8]
f0002078:	e51b3008 	ldr	r3, [fp, #-8]
f000207c:	e1e038a3 	mvn	r3, r3, lsr #17
f0002080:	e1e03883 	mvn	r3, r3, lsl #17
f0002084:	e50b3008 	str	r3, [fp, #-8]
f0002088:	e30130b4 	movw	r3, #4276	; 0x10b4
f000208c:	e34f31c0 	movt	r3, #61888	; 0xf1c0
f0002090:	e51b2008 	ldr	r2, [fp, #-8]
f0002094:	e5832000 	str	r2, [r3]
f0002098:	e51b300c 	ldr	r3, [fp, #-12]
f000209c:	e3530000 	cmp	r3, #0
f00020a0:	1a000001 	bne	f00020ac <DRAMC_init+0x36c>
f00020a4:	ebfffd05 	bl	f00014c0 <mctl_ddr3_reset>
f00020a8:	ea00000a 	b	f00020d8 <DRAMC_init+0x398>
f00020ac:	e3013230 	movw	r3, #4656	; 0x1230
f00020b0:	e34f31c0 	movt	r3, #61888	; 0xf1c0
f00020b4:	e5933000 	ldr	r3, [r3]
f00020b8:	e50b3008 	str	r3, [fp, #-8]
f00020bc:	e51b3008 	ldr	r3, [fp, #-8]
f00020c0:	e3833a01 	orr	r3, r3, #4096	; 0x1000
f00020c4:	e50b3008 	str	r3, [fp, #-8]
f00020c8:	e3013230 	movw	r3, #4656	; 0x1230
f00020cc:	e34f31c0 	movt	r3, #61888	; 0xf1c0
f00020d0:	e51b2008 	ldr	r2, [fp, #-8]
f00020d4:	e5832000 	str	r2, [r3]
f00020d8:	e3a00010 	mov	r0, #16
f00020dc:	ebfffb4b 	bl	f0000e10 <mem_delay>
f00020e0:	e1a00000 	nop			; (mov r0, r0)
f00020e4:	e3a03a01 	mov	r3, #4096	; 0x1000
f00020e8:	e34f31c0 	movt	r3, #61888	; 0xf1c0
f00020ec:	e5933000 	ldr	r3, [r3]
f00020f0:	e3530000 	cmp	r3, #0
f00020f4:	bafffffa 	blt	f00020e4 <DRAMC_init+0x3a4>
f00020f8:	e51b3018 	ldr	r3, [fp, #-24]
f00020fc:	e5933004 	ldr	r3, [r3, #4]
f0002100:	e3530f4b 	cmp	r3, #300	; 0x12c
f0002104:	9a000003 	bls	f0002118 <DRAMC_init+0x3d8>
f0002108:	e51b3018 	ldr	r3, [fp, #-24]
f000210c:	e5933038 	ldr	r3, [r3, #56]	; 0x38
f0002110:	e1a00003 	mov	r0, r3
f0002114:	ebfffd79 	bl	f0001700 <mctl_enable_dllx>
f0002118:	e51b3018 	ldr	r3, [fp, #-24]
f000211c:	e5933004 	ldr	r3, [r3, #4]
f0002120:	e1a00003 	mov	r0, r3
f0002124:	eb00013b 	bl	f0002618 <DRAMC_set_autorefresh_cycle>
f0002128:	e3013014 	movw	r3, #4116	; 0x1014
f000212c:	e34f31c0 	movt	r3, #61888	; 0xf1c0
f0002130:	e51b2018 	ldr	r2, [fp, #-24]
f0002134:	e592202c 	ldr	r2, [r2, #44]	; 0x2c
f0002138:	e5832000 	str	r2, [r3]
f000213c:	e3013018 	movw	r3, #4120	; 0x1018
f0002140:	e34f31c0 	movt	r3, #61888	; 0xf1c0
f0002144:	e51b2018 	ldr	r2, [fp, #-24]
f0002148:	e5922030 	ldr	r2, [r2, #48]	; 0x30
f000214c:	e5832000 	str	r2, [r3]
f0002150:	e301301c 	movw	r3, #4124	; 0x101c
f0002154:	e34f31c0 	movt	r3, #61888	; 0xf1c0
f0002158:	e51b2018 	ldr	r2, [fp, #-24]
f000215c:	e5922034 	ldr	r2, [r2, #52]	; 0x34
f0002160:	e5832000 	str	r2, [r3]
f0002164:	e51b3018 	ldr	r3, [fp, #-24]
f0002168:	e5933008 	ldr	r3, [r3, #8]
f000216c:	e3530003 	cmp	r3, #3
f0002170:	1a00000c 	bne	f00021a8 <DRAMC_init+0x468>
f0002174:	e3a03a01 	mov	r3, #4096	; 0x1000
f0002178:	e50b3008 	str	r3, [fp, #-8]
f000217c:	e51b3018 	ldr	r3, [fp, #-24]
f0002180:	e593301c 	ldr	r3, [r3, #28]
f0002184:	e2433004 	sub	r3, r3, #4
f0002188:	e1a03203 	lsl	r3, r3, #4
f000218c:	e51b2008 	ldr	r2, [fp, #-8]
f0002190:	e1823003 	orr	r3, r2, r3
f0002194:	e50b3008 	str	r3, [fp, #-8]
f0002198:	e51b3008 	ldr	r3, [fp, #-8]
f000219c:	e3833c0a 	orr	r3, r3, #2560	; 0xa00
f00021a0:	e50b3008 	str	r3, [fp, #-8]
f00021a4:	ea00000e 	b	f00021e4 <DRAMC_init+0x4a4>
f00021a8:	e51b3018 	ldr	r3, [fp, #-24]
f00021ac:	e5933008 	ldr	r3, [r3, #8]
f00021b0:	e3530002 	cmp	r3, #2
f00021b4:	1a00000a 	bne	f00021e4 <DRAMC_init+0x4a4>
f00021b8:	e3a03002 	mov	r3, #2
f00021bc:	e50b3008 	str	r3, [fp, #-8]
f00021c0:	e51b3018 	ldr	r3, [fp, #-24]
f00021c4:	e593301c 	ldr	r3, [r3, #28]
f00021c8:	e1a03203 	lsl	r3, r3, #4
f00021cc:	e51b2008 	ldr	r2, [fp, #-8]
f00021d0:	e1823003 	orr	r3, r2, r3
f00021d4:	e50b3008 	str	r3, [fp, #-8]
f00021d8:	e51b3008 	ldr	r3, [fp, #-8]
f00021dc:	e3833c0a 	orr	r3, r3, #2560	; 0xa00
f00021e0:	e50b3008 	str	r3, [fp, #-8]
f00021e4:	e30131f0 	movw	r3, #4592	; 0x11f0
f00021e8:	e34f31c0 	movt	r3, #61888	; 0xf1c0
f00021ec:	e51b2008 	ldr	r2, [fp, #-8]
f00021f0:	e5832000 	str	r2, [r3]
f00021f4:	e30131f4 	movw	r3, #4596	; 0x11f4
f00021f8:	e34f31c0 	movt	r3, #61888	; 0xf1c0
f00021fc:	e51b2018 	ldr	r2, [fp, #-24]
f0002200:	e5922044 	ldr	r2, [r2, #68]	; 0x44
f0002204:	e5832000 	str	r2, [r3]
f0002208:	e30131f8 	movw	r3, #4600	; 0x11f8
f000220c:	e34f31c0 	movt	r3, #61888	; 0xf1c0
f0002210:	e51b2018 	ldr	r2, [fp, #-24]
f0002214:	e5922048 	ldr	r2, [r2, #72]	; 0x48
f0002218:	e5832000 	str	r2, [r3]
f000221c:	e30131fc 	movw	r3, #4604	; 0x11fc
f0002220:	e34f31c0 	movt	r3, #61888	; 0xf1c0
f0002224:	e51b2018 	ldr	r2, [fp, #-24]
f0002228:	e592204c 	ldr	r2, [r2, #76]	; 0x4c
f000222c:	e5832000 	str	r2, [r3]
f0002230:	e3a03a01 	mov	r3, #4096	; 0x1000
f0002234:	e34f31c0 	movt	r3, #61888	; 0xf1c0
f0002238:	e5933000 	ldr	r3, [r3]
f000223c:	e50b3008 	str	r3, [fp, #-8]
f0002240:	e51b3008 	ldr	r3, [fp, #-8]
f0002244:	e3833901 	orr	r3, r3, #16384	; 0x4000
f0002248:	e50b3008 	str	r3, [fp, #-8]
f000224c:	e51b3008 	ldr	r3, [fp, #-8]
f0002250:	e3c33802 	bic	r3, r3, #131072	; 0x20000
f0002254:	e50b3008 	str	r3, [fp, #-8]
f0002258:	e51b3018 	ldr	r3, [fp, #-24]
f000225c:	e593303c 	ldr	r3, [r3, #60]	; 0x3c
f0002260:	e2033001 	and	r3, r3, #1
f0002264:	e6ef3073 	uxtb	r3, r3
f0002268:	e3530000 	cmp	r3, #0
f000226c:	0a000002 	beq	f000227c <DRAMC_init+0x53c>
f0002270:	e51b3008 	ldr	r3, [fp, #-8]
f0002274:	e3833020 	orr	r3, r3, #32
f0002278:	e50b3008 	str	r3, [fp, #-8]
f000227c:	e3a03a01 	mov	r3, #4096	; 0x1000
f0002280:	e34f31c0 	movt	r3, #61888	; 0xf1c0
f0002284:	e51b2008 	ldr	r2, [fp, #-8]
f0002288:	e5832000 	str	r2, [r3]
f000228c:	e3a03a01 	mov	r3, #4096	; 0x1000
f0002290:	e34f31c0 	movt	r3, #61888	; 0xf1c0
f0002294:	e5933000 	ldr	r3, [r3]
f0002298:	e50b3008 	str	r3, [fp, #-8]
f000229c:	e51b3008 	ldr	r3, [fp, #-8]
f00022a0:	e3833102 	orr	r3, r3, #-2147483648	; 0x80000000
f00022a4:	e50b3008 	str	r3, [fp, #-8]
f00022a8:	e3a03a01 	mov	r3, #4096	; 0x1000
f00022ac:	e34f31c0 	movt	r3, #61888	; 0xf1c0
f00022b0:	e51b2008 	ldr	r2, [fp, #-8]
f00022b4:	e5832000 	str	r2, [r3]
f00022b8:	e1a00000 	nop			; (mov r0, r0)
f00022bc:	e3a03a01 	mov	r3, #4096	; 0x1000
f00022c0:	e34f31c0 	movt	r3, #61888	; 0xf1c0
f00022c4:	e5933000 	ldr	r3, [r3]
f00022c8:	e3530000 	cmp	r3, #0
f00022cc:	bafffffa 	blt	f00022bc <DRAMC_init+0x57c>
f00022d0:	e51b300c 	ldr	r3, [fp, #-12]
f00022d4:	e3530001 	cmp	r3, #1
f00022d8:	1a000065 	bne	f0002474 <DRAMC_init+0x734>
f00022dc:	e3013010 	movw	r3, #4112	; 0x1010
f00022e0:	e34f31c0 	movt	r3, #61888	; 0xf1c0
f00022e4:	e5933000 	ldr	r3, [r3]
f00022e8:	e50b3008 	str	r3, [fp, #-8]
f00022ec:	e51b3008 	ldr	r3, [fp, #-8]
f00022f0:	e3833102 	orr	r3, r3, #-2147483648	; 0x80000000
f00022f4:	e50b3008 	str	r3, [fp, #-8]
f00022f8:	e3013010 	movw	r3, #4112	; 0x1010
f00022fc:	e34f31c0 	movt	r3, #61888	; 0xf1c0
f0002300:	e51b2008 	ldr	r2, [fp, #-8]
f0002304:	e5832000 	str	r2, [r3]
f0002308:	e3a03ed2 	mov	r3, #3360	; 0xd20
f000230c:	e34f31c2 	movt	r3, #61890	; 0xf1c2
f0002310:	e5933000 	ldr	r3, [r3]
f0002314:	e50b3008 	str	r3, [fp, #-8]
f0002318:	e51b3008 	ldr	r3, [fp, #-8]
f000231c:	e3c334ff 	bic	r3, r3, #-16777216	; 0xff000000
f0002320:	e3c3360f 	bic	r3, r3, #15728640	; 0xf00000
f0002324:	e50b3008 	str	r3, [fp, #-8]
f0002328:	e3a03ed2 	mov	r3, #3360	; 0xd20
f000232c:	e34f31c2 	movt	r3, #61890	; 0xf1c2
f0002330:	e51b2008 	ldr	r2, [fp, #-8]
f0002334:	e5832000 	str	r2, [r3]
f0002338:	e51b3018 	ldr	r3, [fp, #-24]
f000233c:	e5933020 	ldr	r3, [r3, #32]
f0002340:	e1a02a03 	lsl	r2, r3, #20
f0002344:	e51b3008 	ldr	r3, [fp, #-8]
f0002348:	e1823003 	orr	r3, r2, r3
f000234c:	e3833201 	orr	r3, r3, #268435456	; 0x10000000
f0002350:	e50b3008 	str	r3, [fp, #-8]
f0002354:	e30130a8 	movw	r3, #4264	; 0x10a8
f0002358:	e34f31c0 	movt	r3, #61888	; 0xf1c0
f000235c:	e51b2008 	ldr	r2, [fp, #-8]
f0002360:	e5832000 	str	r2, [r3]
f0002364:	e3013004 	movw	r3, #4100	; 0x1004
f0002368:	e34f31c0 	movt	r3, #61888	; 0xf1c0
f000236c:	e5933000 	ldr	r3, [r3]
f0002370:	e50b3008 	str	r3, [fp, #-8]
f0002374:	e51b3008 	ldr	r3, [fp, #-8]
f0002378:	e3c3333e 	bic	r3, r3, #-134217728	; 0xf8000000
f000237c:	e50b3008 	str	r3, [fp, #-8]
f0002380:	e51b3008 	ldr	r3, [fp, #-8]
f0002384:	e3833209 	orr	r3, r3, #-1879048192	; 0x90000000
f0002388:	e50b3008 	str	r3, [fp, #-8]
f000238c:	e3013004 	movw	r3, #4100	; 0x1004
f0002390:	e34f31c0 	movt	r3, #61888	; 0xf1c0
f0002394:	e51b2008 	ldr	r2, [fp, #-8]
f0002398:	e5832000 	str	r2, [r3]
f000239c:	e1a00000 	nop			; (mov r0, r0)
f00023a0:	e3013004 	movw	r3, #4100	; 0x1004
f00023a4:	e34f31c0 	movt	r3, #61888	; 0xf1c0
f00023a8:	e5933000 	ldr	r3, [r3]
f00023ac:	e3530000 	cmp	r3, #0
f00023b0:	bafffffa 	blt	f00023a0 <DRAMC_init+0x660>
f00023b4:	e3a00c01 	mov	r0, #256	; 0x100
f00023b8:	ebfffa94 	bl	f0000e10 <mem_delay>
f00023bc:	e301323c 	movw	r3, #4668	; 0x123c
f00023c0:	e34f31c0 	movt	r3, #61888	; 0xf1c0
f00023c4:	e3a02000 	mov	r2, #0
f00023c8:	e3412651 	movt	r2, #5713	; 0x1651
f00023cc:	e5832000 	str	r2, [r3]
f00023d0:	e1a00000 	nop			; (mov r0, r0)
f00023d4:	e301323c 	movw	r3, #4668	; 0x123c
f00023d8:	e34f31c0 	movt	r3, #61888	; 0xf1c0
f00023dc:	e5933000 	ldr	r3, [r3]
f00023e0:	e2033001 	and	r3, r3, #1
f00023e4:	e6ef3073 	uxtb	r3, r3
f00023e8:	e3530000 	cmp	r3, #0
f00023ec:	1afffff8 	bne	f00023d4 <DRAMC_init+0x694>
f00023f0:	e3013004 	movw	r3, #4100	; 0x1004
f00023f4:	e34f31c0 	movt	r3, #61888	; 0xf1c0
f00023f8:	e5933000 	ldr	r3, [r3]
f00023fc:	e50b3008 	str	r3, [fp, #-8]
f0002400:	e51b3008 	ldr	r3, [fp, #-8]
f0002404:	e3c3333e 	bic	r3, r3, #-134217728	; 0xf8000000
f0002408:	e50b3008 	str	r3, [fp, #-8]
f000240c:	e51b3008 	ldr	r3, [fp, #-8]
f0002410:	e383332e 	orr	r3, r3, #-1207959552	; 0xb8000000
f0002414:	e50b3008 	str	r3, [fp, #-8]
f0002418:	e3013004 	movw	r3, #4100	; 0x1004
f000241c:	e34f31c0 	movt	r3, #61888	; 0xf1c0
f0002420:	e51b2008 	ldr	r2, [fp, #-8]
f0002424:	e5832000 	str	r2, [r3]
f0002428:	e1a00000 	nop			; (mov r0, r0)
f000242c:	e3013004 	movw	r3, #4100	; 0x1004
f0002430:	e34f31c0 	movt	r3, #61888	; 0xf1c0
f0002434:	e5933000 	ldr	r3, [r3]
f0002438:	e3530000 	cmp	r3, #0
f000243c:	bafffffa 	blt	f000242c <DRAMC_init+0x6ec>
f0002440:	e3013010 	movw	r3, #4112	; 0x1010
f0002444:	e34f31c0 	movt	r3, #61888	; 0xf1c0
f0002448:	e5933000 	ldr	r3, [r3]
f000244c:	e50b3008 	str	r3, [fp, #-8]
f0002450:	e51b3008 	ldr	r3, [fp, #-8]
f0002454:	e3c33102 	bic	r3, r3, #-2147483648	; 0x80000000
f0002458:	e50b3008 	str	r3, [fp, #-8]
f000245c:	e3013010 	movw	r3, #4112	; 0x1010
f0002460:	e34f31c0 	movt	r3, #61888	; 0xf1c0
f0002464:	e51b2008 	ldr	r2, [fp, #-8]
f0002468:	e5832000 	str	r2, [r3]
f000246c:	e3a00c01 	mov	r0, #256	; 0x100
f0002470:	ebfffa66 	bl	f0000e10 <mem_delay>
f0002474:	ebfffc5f 	bl	f00015f8 <mctl_itm_enable>
f0002478:	e51b300c 	ldr	r3, [fp, #-12]
f000247c:	e3530000 	cmp	r3, #0
f0002480:	1a000006 	bne	f00024a0 <DRAMC_init+0x760>
f0002484:	eb00001b 	bl	f00024f8 <DRAMC_scan_readpipe>
f0002488:	e50b0010 	str	r0, [fp, #-16]
f000248c:	e51b3010 	ldr	r3, [fp, #-16]
f0002490:	e3530000 	cmp	r3, #0
f0002494:	aa000011 	bge	f00024e0 <DRAMC_init+0x7a0>
f0002498:	e3a03000 	mov	r3, #0
f000249c:	ea000012 	b	f00024ec <DRAMC_init+0x7ac>
f00024a0:	e3003d24 	movw	r3, #3364	; 0xd24
f00024a4:	e34f31c2 	movt	r3, #61890	; 0xf1c2
f00024a8:	e5933000 	ldr	r3, [r3]
f00024ac:	e50b3008 	str	r3, [fp, #-8]
f00024b0:	e301304c 	movw	r3, #4172	; 0x104c
f00024b4:	e34f31c0 	movt	r3, #61888	; 0xf1c0
f00024b8:	e51b2008 	ldr	r2, [fp, #-8]
f00024bc:	e5832000 	str	r2, [r3]
f00024c0:	e3003d28 	movw	r3, #3368	; 0xd28
f00024c4:	e34f31c2 	movt	r3, #61890	; 0xf1c2
f00024c8:	e5933000 	ldr	r3, [r3]
f00024cc:	e50b3008 	str	r3, [fp, #-8]
f00024d0:	e301305c 	movw	r3, #4188	; 0x105c
f00024d4:	e34f31c0 	movt	r3, #61888	; 0xf1c0
f00024d8:	e51b2008 	ldr	r2, [fp, #-8]
f00024dc:	e5832000 	str	r2, [r3]
f00024e0:	ebfffd53 	bl	f0001a34 <mctl_configure_hostport>
f00024e4:	eb00006b 	bl	f0002698 <DRAMC_get_dram_size>
f00024e8:	e1a03000 	mov	r3, r0
f00024ec:	e1a00003 	mov	r0, r3
f00024f0:	e24bd004 	sub	sp, fp, #4
f00024f4:	e8bd8800 	pop	{fp, pc}

f00024f8 <DRAMC_scan_readpipe>:
f00024f8:	e52db004 	push	{fp}		; (str fp, [sp, #-4]!)
f00024fc:	e28db000 	add	fp, sp, #0
f0002500:	e24dd00c 	sub	sp, sp, #12
f0002504:	e301300c 	movw	r3, #4108	; 0x100c
f0002508:	e34f31c0 	movt	r3, #61888	; 0xf1c0
f000250c:	e5933000 	ldr	r3, [r3]
f0002510:	e50b3008 	str	r3, [fp, #-8]
f0002514:	e51b3008 	ldr	r3, [fp, #-8]
f0002518:	e3c33601 	bic	r3, r3, #1048576	; 0x100000
f000251c:	e50b3008 	str	r3, [fp, #-8]
f0002520:	e301300c 	movw	r3, #4108	; 0x100c
f0002524:	e34f31c0 	movt	r3, #61888	; 0xf1c0
f0002528:	e51b2008 	ldr	r2, [fp, #-8]
f000252c:	e5832000 	str	r2, [r3]
f0002530:	e3a03a01 	mov	r3, #4096	; 0x1000
f0002534:	e34f31c0 	movt	r3, #61888	; 0xf1c0
f0002538:	e5933000 	ldr	r3, [r3]
f000253c:	e50b3008 	str	r3, [fp, #-8]
f0002540:	e51b3008 	ldr	r3, [fp, #-8]
f0002544:	e3833101 	orr	r3, r3, #1073741824	; 0x40000000
f0002548:	e50b3008 	str	r3, [fp, #-8]
f000254c:	e3a03a01 	mov	r3, #4096	; 0x1000
f0002550:	e34f31c0 	movt	r3, #61888	; 0xf1c0
f0002554:	e51b2008 	ldr	r2, [fp, #-8]
f0002558:	e5832000 	str	r2, [r3]
f000255c:	e1a00000 	nop			; (mov r0, r0)
f0002560:	e3a03a01 	mov	r3, #4096	; 0x1000
f0002564:	e34f31c0 	movt	r3, #61888	; 0xf1c0
f0002568:	e5933000 	ldr	r3, [r3]
f000256c:	e2033101 	and	r3, r3, #1073741824	; 0x40000000
f0002570:	e3530000 	cmp	r3, #0
f0002574:	1afffff9 	bne	f0002560 <DRAMC_scan_readpipe+0x68>
f0002578:	e301300c 	movw	r3, #4108	; 0x100c
f000257c:	e34f31c0 	movt	r3, #61888	; 0xf1c0
f0002580:	e5933000 	ldr	r3, [r3]
f0002584:	e50b3008 	str	r3, [fp, #-8]
f0002588:	e51b3008 	ldr	r3, [fp, #-8]
f000258c:	e2033601 	and	r3, r3, #1048576	; 0x100000
f0002590:	e3530000 	cmp	r3, #0
f0002594:	0a000001 	beq	f00025a0 <DRAMC_scan_readpipe+0xa8>
f0002598:	e3e03000 	mvn	r3, #0
f000259c:	ea000000 	b	f00025a4 <DRAMC_scan_readpipe+0xac>
f00025a0:	e3a03000 	mov	r3, #0
f00025a4:	e1a00003 	mov	r0, r3
f00025a8:	e28bd000 	add	sp, fp, #0
f00025ac:	e8bd0800 	pop	{fp}
f00025b0:	e12fff1e 	bx	lr

f00025b4 <DRAMC_clock_output_en>:
f00025b4:	e52db004 	push	{fp}		; (str fp, [sp, #-4]!)
f00025b8:	e28db000 	add	fp, sp, #0
f00025bc:	e24dd014 	sub	sp, sp, #20
f00025c0:	e50b0010 	str	r0, [fp, #-16]
f00025c4:	e3013230 	movw	r3, #4656	; 0x1230
f00025c8:	e34f31c0 	movt	r3, #61888	; 0xf1c0
f00025cc:	e5933000 	ldr	r3, [r3]
f00025d0:	e50b3008 	str	r3, [fp, #-8]
f00025d4:	e51b3010 	ldr	r3, [fp, #-16]
f00025d8:	e3530000 	cmp	r3, #0
f00025dc:	0a000003 	beq	f00025f0 <DRAMC_clock_output_en+0x3c>
f00025e0:	e51b3008 	ldr	r3, [fp, #-8]
f00025e4:	e3833801 	orr	r3, r3, #65536	; 0x10000
f00025e8:	e50b3008 	str	r3, [fp, #-8]
f00025ec:	ea000002 	b	f00025fc <DRAMC_clock_output_en+0x48>
f00025f0:	e51b3008 	ldr	r3, [fp, #-8]
f00025f4:	e3c33801 	bic	r3, r3, #65536	; 0x10000
f00025f8:	e50b3008 	str	r3, [fp, #-8]
f00025fc:	e3013230 	movw	r3, #4656	; 0x1230
f0002600:	e34f31c0 	movt	r3, #61888	; 0xf1c0
f0002604:	e51b2008 	ldr	r2, [fp, #-8]
f0002608:	e5832000 	str	r2, [r3]
f000260c:	e28bd000 	add	sp, fp, #0
f0002610:	e8bd0800 	pop	{fp}
f0002614:	e12fff1e 	bx	lr

f0002618 <DRAMC_set_autorefresh_cycle>:
f0002618:	e52db004 	push	{fp}		; (str fp, [sp, #-4]!)
f000261c:	e28db000 	add	fp, sp, #0
f0002620:	e24dd014 	sub	sp, sp, #20
f0002624:	e50b0010 	str	r0, [fp, #-16]
f0002628:	e3a03083 	mov	r3, #131	; 0x83
f000262c:	e50b3008 	str	r3, [fp, #-8]
f0002630:	e51b3010 	ldr	r3, [fp, #-16]
f0002634:	e3012f33 	movw	r2, #7987	; 0x1f33
f0002638:	e0030392 	mul	r3, r2, r3
f000263c:	e1a03523 	lsr	r3, r3, #10
f0002640:	e50b300c 	str	r3, [fp, #-12]
f0002644:	e51b200c 	ldr	r2, [fp, #-12]
f0002648:	e1a03002 	mov	r3, r2
f000264c:	e1a03183 	lsl	r3, r3, #3
f0002650:	e0833002 	add	r3, r3, r2
f0002654:	e24330c8 	sub	r3, r3, #200	; 0xc8
f0002658:	e50b300c 	str	r3, [fp, #-12]
f000265c:	e51b300c 	ldr	r3, [fp, #-12]
f0002660:	e1a03403 	lsl	r3, r3, #8
f0002664:	e51b2008 	ldr	r2, [fp, #-8]
f0002668:	e1823003 	orr	r3, r2, r3
f000266c:	e50b3008 	str	r3, [fp, #-8]
f0002670:	e51b3008 	ldr	r3, [fp, #-8]
f0002674:	e3833302 	orr	r3, r3, #134217728	; 0x8000000
f0002678:	e50b3008 	str	r3, [fp, #-8]
f000267c:	e3013010 	movw	r3, #4112	; 0x1010
f0002680:	e34f31c0 	movt	r3, #61888	; 0xf1c0
f0002684:	e51b2008 	ldr	r2, [fp, #-8]
f0002688:	e5832000 	str	r2, [r3]
f000268c:	e28bd000 	add	sp, fp, #0
f0002690:	e8bd0800 	pop	{fp}
f0002694:	e12fff1e 	bx	lr

f0002698 <DRAMC_get_dram_size>:
f0002698:	e52db004 	push	{fp}		; (str fp, [sp, #-4]!)
f000269c:	e28db000 	add	fp, sp, #0
f00026a0:	e24dd014 	sub	sp, sp, #20
f00026a4:	e3013004 	movw	r3, #4100	; 0x1004
f00026a8:	e34f31c0 	movt	r3, #61888	; 0xf1c0
f00026ac:	e5933000 	ldr	r3, [r3]
f00026b0:	e50b300c 	str	r3, [fp, #-12]
f00026b4:	e51b300c 	ldr	r3, [fp, #-12]
f00026b8:	e1a031a3 	lsr	r3, r3, #3
f00026bc:	e2033007 	and	r3, r3, #7
f00026c0:	e50b3010 	str	r3, [fp, #-16]
f00026c4:	e51b3010 	ldr	r3, [fp, #-16]
f00026c8:	e3530000 	cmp	r3, #0
f00026cc:	1a000002 	bne	f00026dc <DRAMC_get_dram_size+0x44>
f00026d0:	e3a03020 	mov	r3, #32
f00026d4:	e50b3008 	str	r3, [fp, #-8]
f00026d8:	ea000019 	b	f0002744 <DRAMC_get_dram_size+0xac>
f00026dc:	e51b3010 	ldr	r3, [fp, #-16]
f00026e0:	e3530001 	cmp	r3, #1
f00026e4:	1a000002 	bne	f00026f4 <DRAMC_get_dram_size+0x5c>
f00026e8:	e3a03040 	mov	r3, #64	; 0x40
f00026ec:	e50b3008 	str	r3, [fp, #-8]
f00026f0:	ea000013 	b	f0002744 <DRAMC_get_dram_size+0xac>
f00026f4:	e51b3010 	ldr	r3, [fp, #-16]
f00026f8:	e3530002 	cmp	r3, #2
f00026fc:	1a000002 	bne	f000270c <DRAMC_get_dram_size+0x74>
f0002700:	e3a03080 	mov	r3, #128	; 0x80
f0002704:	e50b3008 	str	r3, [fp, #-8]
f0002708:	ea00000d 	b	f0002744 <DRAMC_get_dram_size+0xac>
f000270c:	e51b3010 	ldr	r3, [fp, #-16]
f0002710:	e3530003 	cmp	r3, #3
f0002714:	1a000002 	bne	f0002724 <DRAMC_get_dram_size+0x8c>
f0002718:	e3a03c01 	mov	r3, #256	; 0x100
f000271c:	e50b3008 	str	r3, [fp, #-8]
f0002720:	ea000007 	b	f0002744 <DRAMC_get_dram_size+0xac>
f0002724:	e51b3010 	ldr	r3, [fp, #-16]
f0002728:	e3530004 	cmp	r3, #4
f000272c:	1a000002 	bne	f000273c <DRAMC_get_dram_size+0xa4>
f0002730:	e3a03c02 	mov	r3, #512	; 0x200
f0002734:	e50b3008 	str	r3, [fp, #-8]
f0002738:	ea000001 	b	f0002744 <DRAMC_get_dram_size+0xac>
f000273c:	e3a03b01 	mov	r3, #1024	; 0x400
f0002740:	e50b3008 	str	r3, [fp, #-8]
f0002744:	e51b300c 	ldr	r3, [fp, #-12]
f0002748:	e1a030a3 	lsr	r3, r3, #1
f000274c:	e2033003 	and	r3, r3, #3
f0002750:	e3530001 	cmp	r3, #1
f0002754:	1a000002 	bne	f0002764 <DRAMC_get_dram_size+0xcc>
f0002758:	e51b3008 	ldr	r3, [fp, #-8]
f000275c:	e1a03083 	lsl	r3, r3, #1
f0002760:	e50b3008 	str	r3, [fp, #-8]
f0002764:	e51b300c 	ldr	r3, [fp, #-12]
f0002768:	e1a03323 	lsr	r3, r3, #6
f000276c:	e2033007 	and	r3, r3, #7
f0002770:	e3530003 	cmp	r3, #3
f0002774:	1a000002 	bne	f0002784 <DRAMC_get_dram_size+0xec>
f0002778:	e51b3008 	ldr	r3, [fp, #-8]
f000277c:	e1a03083 	lsl	r3, r3, #1
f0002780:	e50b3008 	str	r3, [fp, #-8]
f0002784:	e51b300c 	ldr	r3, [fp, #-12]
f0002788:	e1a03523 	lsr	r3, r3, #10
f000278c:	e2033003 	and	r3, r3, #3
f0002790:	e3530001 	cmp	r3, #1
f0002794:	1a000002 	bne	f00027a4 <DRAMC_get_dram_size+0x10c>
f0002798:	e51b3008 	ldr	r3, [fp, #-8]
f000279c:	e1a03083 	lsl	r3, r3, #1
f00027a0:	e50b3008 	str	r3, [fp, #-8]
f00027a4:	e51b3008 	ldr	r3, [fp, #-8]
f00027a8:	e1a00003 	mov	r0, r3
f00027ac:	e28bd000 	add	sp, fp, #0
f00027b0:	e8bd0800 	pop	{fp}
f00027b4:	e12fff1e 	bx	lr

f00027b8 <dram_init>:
f00027b8:	e52db004 	push	{fp}		; (str fp, [sp, #-4]!)
f00027bc:	e28db000 	add	fp, sp, #0
f00027c0:	e3a03000 	mov	r3, #0
f00027c4:	e1a00003 	mov	r0, r3
f00027c8:	e28bd000 	add	sp, fp, #0
f00027cc:	e8bd0800 	pop	{fp}
f00027d0:	e12fff1e 	bx	lr

f00027d4 <save_mem_status>:
f00027d4:	e52db004 	push	{fp}		; (str fp, [sp, #-4]!)
f00027d8:	e28db000 	add	fp, sp, #0
f00027dc:	e24dd00c 	sub	sp, sp, #12
f00027e0:	e50b0008 	str	r0, [fp, #-8]
f00027e4:	e28bd000 	add	sp, fp, #0
f00027e8:	e8bd0800 	pop	{fp}
f00027ec:	e12fff1e 	bx	lr

f00027f0 <mctl_self_refresh_entry>:
f00027f0:	e92d4800 	push	{fp, lr}
f00027f4:	e28db004 	add	fp, sp, #4
f00027f8:	e24dd008 	sub	sp, sp, #8
f00027fc:	e3013010 	movw	r3, #4112	; 0x1010
f0002800:	e34f31c0 	movt	r3, #61888	; 0xf1c0
f0002804:	e5933000 	ldr	r3, [r3]
f0002808:	e50b3008 	str	r3, [fp, #-8]
f000280c:	e51b3008 	ldr	r3, [fp, #-8]
f0002810:	e3833102 	orr	r3, r3, #-2147483648	; 0x80000000
f0002814:	e50b3008 	str	r3, [fp, #-8]
f0002818:	e3013010 	movw	r3, #4112	; 0x1010
f000281c:	e34f31c0 	movt	r3, #61888	; 0xf1c0
f0002820:	e51b2008 	ldr	r2, [fp, #-8]
f0002824:	e5832000 	str	r2, [r3]
f0002828:	e3013004 	movw	r3, #4100	; 0x1004
f000282c:	e34f31c0 	movt	r3, #61888	; 0xf1c0
f0002830:	e5933000 	ldr	r3, [r3]
f0002834:	e50b3008 	str	r3, [fp, #-8]
f0002838:	e51b3008 	ldr	r3, [fp, #-8]
f000283c:	e3c3333e 	bic	r3, r3, #-134217728	; 0xf8000000
f0002840:	e50b3008 	str	r3, [fp, #-8]
f0002844:	e51b3008 	ldr	r3, [fp, #-8]
f0002848:	e3833209 	orr	r3, r3, #-1879048192	; 0x90000000
f000284c:	e50b3008 	str	r3, [fp, #-8]
f0002850:	e3013004 	movw	r3, #4100	; 0x1004
f0002854:	e34f31c0 	movt	r3, #61888	; 0xf1c0
f0002858:	e51b2008 	ldr	r2, [fp, #-8]
f000285c:	e5832000 	str	r2, [r3]
f0002860:	e1a00000 	nop			; (mov r0, r0)
f0002864:	e3013004 	movw	r3, #4100	; 0x1004
f0002868:	e34f31c0 	movt	r3, #61888	; 0xf1c0
f000286c:	e5933000 	ldr	r3, [r3]
f0002870:	e3530000 	cmp	r3, #0
f0002874:	bafffffa 	blt	f0002864 <mctl_self_refresh_entry+0x74>
f0002878:	e3a0000a 	mov	r0, #10
f000287c:	ebfff9b6 	bl	f0000f5c <delay_us>
f0002880:	e24bd004 	sub	sp, fp, #4
f0002884:	e8bd8800 	pop	{fp, pc}

f0002888 <setup_dram_pll>:
f0002888:	e92d4800 	push	{fp, lr}
f000288c:	e28db004 	add	fp, sp, #4
f0002890:	e24dd010 	sub	sp, sp, #16
f0002894:	e50b0010 	str	r0, [fp, #-16]
f0002898:	e3a03020 	mov	r3, #32
f000289c:	e34f31c2 	movt	r3, #61890	; 0xf1c2
f00028a0:	e5933000 	ldr	r3, [r3]
f00028a4:	e50b3008 	str	r3, [fp, #-8]
f00028a8:	e51b3008 	ldr	r3, [fp, #-8]
f00028ac:	e3c33202 	bic	r3, r3, #536870912	; 0x20000000
f00028b0:	e50b3008 	str	r3, [fp, #-8]
f00028b4:	e3a03020 	mov	r3, #32
f00028b8:	e34f31c2 	movt	r3, #61890	; 0xf1c2
f00028bc:	e51b2008 	ldr	r2, [fp, #-8]
f00028c0:	e5832000 	str	r2, [r3]
f00028c4:	e3a0000a 	mov	r0, #10
f00028c8:	ebfff9a3 	bl	f0000f5c <delay_us>
f00028cc:	e51b3008 	ldr	r3, [fp, #-8]
f00028d0:	e3c33102 	bic	r3, r3, #-2147483648	; 0x80000000
f00028d4:	e50b3008 	str	r3, [fp, #-8]
f00028d8:	e3a03020 	mov	r3, #32
f00028dc:	e34f31c2 	movt	r3, #61890	; 0xf1c2
f00028e0:	e51b2008 	ldr	r2, [fp, #-8]
f00028e4:	e5832000 	str	r2, [r3]
f00028e8:	e3a0000a 	mov	r0, #10
f00028ec:	ebfff99a 	bl	f0000f5c <delay_us>
f00028f0:	e51b3008 	ldr	r3, [fp, #-8]
f00028f4:	e3c33003 	bic	r3, r3, #3
f00028f8:	e50b3008 	str	r3, [fp, #-8]
f00028fc:	e51b3008 	ldr	r3, [fp, #-8]
f0002900:	e3833001 	orr	r3, r3, #1
f0002904:	e50b3008 	str	r3, [fp, #-8]
f0002908:	e51b3008 	ldr	r3, [fp, #-8]
f000290c:	e3c33030 	bic	r3, r3, #48	; 0x30
f0002910:	e50b3008 	str	r3, [fp, #-8]
f0002914:	e51b3008 	ldr	r3, [fp, #-8]
f0002918:	e3833010 	orr	r3, r3, #16
f000291c:	e50b3008 	str	r3, [fp, #-8]
f0002920:	e51b3008 	ldr	r3, [fp, #-8]
f0002924:	e3c33c1f 	bic	r3, r3, #7936	; 0x1f00
f0002928:	e50b3008 	str	r3, [fp, #-8]
f000292c:	e51b2010 	ldr	r2, [fp, #-16]
f0002930:	e30a3aab 	movw	r3, #43691	; 0xaaab
f0002934:	e34a3aaa 	movt	r3, #43690	; 0xaaaa
f0002938:	e0831293 	umull	r1, r3, r3, r2
f000293c:	e1a03223 	lsr	r3, r3, #4
f0002940:	e203301f 	and	r3, r3, #31
f0002944:	e1a03403 	lsl	r3, r3, #8
f0002948:	e51b2008 	ldr	r2, [fp, #-8]
f000294c:	e1823003 	orr	r3, r2, r3
f0002950:	e50b3008 	str	r3, [fp, #-8]
f0002954:	e51b3008 	ldr	r3, [fp, #-8]
f0002958:	e3c33803 	bic	r3, r3, #196608	; 0x30000
f000295c:	e50b3008 	str	r3, [fp, #-8]
f0002960:	e51b3008 	ldr	r3, [fp, #-8]
f0002964:	e3833801 	orr	r3, r3, #65536	; 0x10000
f0002968:	e50b3008 	str	r3, [fp, #-8]
f000296c:	e51b3008 	ldr	r3, [fp, #-8]
f0002970:	e3c33202 	bic	r3, r3, #536870912	; 0x20000000
f0002974:	e50b3008 	str	r3, [fp, #-8]
f0002978:	e51b3008 	ldr	r3, [fp, #-8]
f000297c:	e3833102 	orr	r3, r3, #-2147483648	; 0x80000000
f0002980:	e50b3008 	str	r3, [fp, #-8]
f0002984:	e3a03020 	mov	r3, #32
f0002988:	e34f31c2 	movt	r3, #61890	; 0xf1c2
f000298c:	e51b2008 	ldr	r2, [fp, #-8]
f0002990:	e5832000 	str	r2, [r3]
f0002994:	e3a00e4b 	mov	r0, #1200	; 0x4b0
f0002998:	ebfff96f 	bl	f0000f5c <delay_us>
f000299c:	e3a03020 	mov	r3, #32
f00029a0:	e34f31c2 	movt	r3, #61890	; 0xf1c2
f00029a4:	e5933000 	ldr	r3, [r3]
f00029a8:	e50b3008 	str	r3, [fp, #-8]
f00029ac:	e51b3008 	ldr	r3, [fp, #-8]
f00029b0:	e3833202 	orr	r3, r3, #536870912	; 0x20000000
f00029b4:	e50b3008 	str	r3, [fp, #-8]
f00029b8:	e3a03020 	mov	r3, #32
f00029bc:	e34f31c2 	movt	r3, #61890	; 0xf1c2
f00029c0:	e51b2008 	ldr	r2, [fp, #-8]
f00029c4:	e5832000 	str	r2, [r3]
f00029c8:	e3a00064 	mov	r0, #100	; 0x64
f00029cc:	ebfff962 	bl	f0000f5c <delay_us>
f00029d0:	e24bd004 	sub	sp, fp, #4
f00029d4:	e8bd8800 	pop	{fp, pc}

f00029d8 <dram_freq_jum>:
f00029d8:	e92d4800 	push	{fp, lr}
f00029dc:	e28db004 	add	fp, sp, #4
f00029e0:	e24dd010 	sub	sp, sp, #16
f00029e4:	e1a03000 	mov	r3, r0
f00029e8:	e50b1014 	str	r1, [fp, #-20]
f00029ec:	e54b300d 	strb	r3, [fp, #-13]
f00029f0:	e3a03000 	mov	r3, #0
f00029f4:	e50b3008 	str	r3, [fp, #-8]
f00029f8:	e51b3014 	ldr	r3, [fp, #-20]
f00029fc:	e593303c 	ldr	r3, [r3, #60]	; 0x3c
f0002a00:	e2033008 	and	r3, r3, #8
f0002a04:	e3530000 	cmp	r3, #0
f0002a08:	1a000001 	bne	f0002a14 <dram_freq_jum+0x3c>
f0002a0c:	e3a03000 	mov	r3, #0
f0002a10:	ea0000e4 	b	f0002da8 <dram_freq_jum+0x3d0>
f0002a14:	e55b300d 	ldrb	r3, [fp, #-13]
f0002a18:	e3530000 	cmp	r3, #0
f0002a1c:	1a00006c 	bne	f0002bd4 <dram_freq_jum+0x1fc>
f0002a20:	ebffff72 	bl	f00027f0 <mctl_self_refresh_entry>
f0002a24:	ebfffbb6 	bl	f0001904 <mctl_disable_dll>
f0002a28:	e3a00000 	mov	r0, #0
f0002a2c:	ebfffee0 	bl	f00025b4 <DRAMC_clock_output_en>
f0002a30:	e3a00078 	mov	r0, #120	; 0x78
f0002a34:	ebffff93 	bl	f0002888 <setup_dram_pll>
f0002a38:	e3a0000a 	mov	r0, #10
f0002a3c:	ebfff946 	bl	f0000f5c <delay_us>
f0002a40:	ebfffad6 	bl	f00015a0 <mctl_itm_disable>
f0002a44:	e51b3014 	ldr	r3, [fp, #-20]
f0002a48:	e5933038 	ldr	r3, [r3, #56]	; 0x38
f0002a4c:	e1a00003 	mov	r0, r3
f0002a50:	ebfffafb 	bl	f0001644 <mctl_enable_dll0>
f0002a54:	e3a0000a 	mov	r0, #10
f0002a58:	ebfff93f 	bl	f0000f5c <delay_us>
f0002a5c:	e3a00001 	mov	r0, #1
f0002a60:	ebfffed3 	bl	f00025b4 <DRAMC_clock_output_en>
f0002a64:	e3a00ffa 	mov	r0, #1000	; 0x3e8
f0002a68:	ebfff93b 	bl	f0000f5c <delay_us>
f0002a6c:	e3a00078 	mov	r0, #120	; 0x78
f0002a70:	ebfffee8 	bl	f0002618 <DRAMC_set_autorefresh_cycle>
f0002a74:	e51b3014 	ldr	r3, [fp, #-20]
f0002a78:	e5933038 	ldr	r3, [r3, #56]	; 0x38
f0002a7c:	e1a00003 	mov	r0, r3
f0002a80:	ebfffb1e 	bl	f0001700 <mctl_enable_dllx>
f0002a84:	e3a00064 	mov	r0, #100	; 0x64
f0002a88:	ebfff933 	bl	f0000f5c <delay_us>
f0002a8c:	e3013010 	movw	r3, #4112	; 0x1010
f0002a90:	e34f31c0 	movt	r3, #61888	; 0xf1c0
f0002a94:	e5933000 	ldr	r3, [r3]
f0002a98:	e50b3008 	str	r3, [fp, #-8]
f0002a9c:	e51b3008 	ldr	r3, [fp, #-8]
f0002aa0:	e3833102 	orr	r3, r3, #-2147483648	; 0x80000000
f0002aa4:	e50b3008 	str	r3, [fp, #-8]
f0002aa8:	e3013010 	movw	r3, #4112	; 0x1010
f0002aac:	e34f31c0 	movt	r3, #61888	; 0xf1c0
f0002ab0:	e51b2008 	ldr	r2, [fp, #-8]
f0002ab4:	e5832000 	str	r2, [r3]
f0002ab8:	e3013004 	movw	r3, #4100	; 0x1004
f0002abc:	e34f31c0 	movt	r3, #61888	; 0xf1c0
f0002ac0:	e5933000 	ldr	r3, [r3]
f0002ac4:	e50b3008 	str	r3, [fp, #-8]
f0002ac8:	e51b3008 	ldr	r3, [fp, #-8]
f0002acc:	e3c3333e 	bic	r3, r3, #-134217728	; 0xf8000000
f0002ad0:	e50b3008 	str	r3, [fp, #-8]
f0002ad4:	e51b3008 	ldr	r3, [fp, #-8]
f0002ad8:	e3833209 	orr	r3, r3, #-1879048192	; 0x90000000
f0002adc:	e50b3008 	str	r3, [fp, #-8]
f0002ae0:	e3013004 	movw	r3, #4100	; 0x1004
f0002ae4:	e34f31c0 	movt	r3, #61888	; 0xf1c0
f0002ae8:	e51b2008 	ldr	r2, [fp, #-8]
f0002aec:	e5832000 	str	r2, [r3]
f0002af0:	e1a00000 	nop			; (mov r0, r0)
f0002af4:	e3013004 	movw	r3, #4100	; 0x1004
f0002af8:	e34f31c0 	movt	r3, #61888	; 0xf1c0
f0002afc:	e5933000 	ldr	r3, [r3]
f0002b00:	e3530000 	cmp	r3, #0
f0002b04:	bafffffa 	blt	f0002af4 <dram_freq_jum+0x11c>
f0002b08:	e3a0000a 	mov	r0, #10
f0002b0c:	ebfff912 	bl	f0000f5c <delay_us>
f0002b10:	e3013004 	movw	r3, #4100	; 0x1004
f0002b14:	e34f31c0 	movt	r3, #61888	; 0xf1c0
f0002b18:	e5933000 	ldr	r3, [r3]
f0002b1c:	e50b3008 	str	r3, [fp, #-8]
f0002b20:	e51b3008 	ldr	r3, [fp, #-8]
f0002b24:	e3c3333e 	bic	r3, r3, #-134217728	; 0xf8000000
f0002b28:	e50b3008 	str	r3, [fp, #-8]
f0002b2c:	e51b3008 	ldr	r3, [fp, #-8]
f0002b30:	e383332e 	orr	r3, r3, #-1207959552	; 0xb8000000
f0002b34:	e50b3008 	str	r3, [fp, #-8]
f0002b38:	e3013004 	movw	r3, #4100	; 0x1004
f0002b3c:	e34f31c0 	movt	r3, #61888	; 0xf1c0
f0002b40:	e51b2008 	ldr	r2, [fp, #-8]
f0002b44:	e5832000 	str	r2, [r3]
f0002b48:	e1a00000 	nop			; (mov r0, r0)
f0002b4c:	e3013004 	movw	r3, #4100	; 0x1004
f0002b50:	e34f31c0 	movt	r3, #61888	; 0xf1c0
f0002b54:	e5933000 	ldr	r3, [r3]
f0002b58:	e3530000 	cmp	r3, #0
f0002b5c:	bafffffa 	blt	f0002b4c <dram_freq_jum+0x174>
f0002b60:	e3013010 	movw	r3, #4112	; 0x1010
f0002b64:	e34f31c0 	movt	r3, #61888	; 0xf1c0
f0002b68:	e5933000 	ldr	r3, [r3]
f0002b6c:	e50b3008 	str	r3, [fp, #-8]
f0002b70:	e51b3008 	ldr	r3, [fp, #-8]
f0002b74:	e3c33102 	bic	r3, r3, #-2147483648	; 0x80000000
f0002b78:	e50b3008 	str	r3, [fp, #-8]
f0002b7c:	e3013010 	movw	r3, #4112	; 0x1010
f0002b80:	e34f31c0 	movt	r3, #61888	; 0xf1c0
f0002b84:	e51b2008 	ldr	r2, [fp, #-8]
f0002b88:	e5832000 	str	r2, [r3]
f0002b8c:	ebfffa99 	bl	f00015f8 <mctl_itm_enable>
f0002b90:	e301304c 	movw	r3, #4172	; 0x104c
f0002b94:	e34f31c0 	movt	r3, #61888	; 0xf1c0
f0002b98:	e51b2014 	ldr	r2, [fp, #-20]
f0002b9c:	e5922040 	ldr	r2, [r2, #64]	; 0x40
f0002ba0:	e1a02a02 	lsl	r2, r2, #20
f0002ba4:	e1a02a22 	lsr	r2, r2, #20
f0002ba8:	e5832000 	str	r2, [r3]
f0002bac:	e301305c 	movw	r3, #4188	; 0x105c
f0002bb0:	e34f31c0 	movt	r3, #61888	; 0xf1c0
f0002bb4:	e51b2014 	ldr	r2, [fp, #-20]
f0002bb8:	e5922040 	ldr	r2, [r2, #64]	; 0x40
f0002bbc:	e1a02822 	lsr	r2, r2, #16
f0002bc0:	e6ef2072 	uxtb	r2, r2
f0002bc4:	e5832000 	str	r2, [r3]
f0002bc8:	e3a0000a 	mov	r0, #10
f0002bcc:	ebfff8e2 	bl	f0000f5c <delay_us>
f0002bd0:	ea000074 	b	f0002da8 <dram_freq_jum+0x3d0>
f0002bd4:	e55b300d 	ldrb	r3, [fp, #-13]
f0002bd8:	e3530001 	cmp	r3, #1
f0002bdc:	1a000071 	bne	f0002da8 <dram_freq_jum+0x3d0>
f0002be0:	ebffff02 	bl	f00027f0 <mctl_self_refresh_entry>
f0002be4:	ebfffb46 	bl	f0001904 <mctl_disable_dll>
f0002be8:	e3a00000 	mov	r0, #0
f0002bec:	ebfffe70 	bl	f00025b4 <DRAMC_clock_output_en>
f0002bf0:	e51b3014 	ldr	r3, [fp, #-20]
f0002bf4:	e5933004 	ldr	r3, [r3, #4]
f0002bf8:	e1a00003 	mov	r0, r3
f0002bfc:	ebffff21 	bl	f0002888 <setup_dram_pll>
f0002c00:	e3a0000a 	mov	r0, #10
f0002c04:	ebfff8d4 	bl	f0000f5c <delay_us>
f0002c08:	ebfffa64 	bl	f00015a0 <mctl_itm_disable>
f0002c0c:	e51b3014 	ldr	r3, [fp, #-20]
f0002c10:	e5933038 	ldr	r3, [r3, #56]	; 0x38
f0002c14:	e1a00003 	mov	r0, r3
f0002c18:	ebfffa89 	bl	f0001644 <mctl_enable_dll0>
f0002c1c:	e3a0000a 	mov	r0, #10
f0002c20:	ebfff8cd 	bl	f0000f5c <delay_us>
f0002c24:	e3a00001 	mov	r0, #1
f0002c28:	ebfffe61 	bl	f00025b4 <DRAMC_clock_output_en>
f0002c2c:	e3a00ffa 	mov	r0, #1000	; 0x3e8
f0002c30:	ebfff8c9 	bl	f0000f5c <delay_us>
f0002c34:	e51b3014 	ldr	r3, [fp, #-20]
f0002c38:	e5933004 	ldr	r3, [r3, #4]
f0002c3c:	e1a00003 	mov	r0, r3
f0002c40:	ebfffe74 	bl	f0002618 <DRAMC_set_autorefresh_cycle>
f0002c44:	e51b3014 	ldr	r3, [fp, #-20]
f0002c48:	e5933038 	ldr	r3, [r3, #56]	; 0x38
f0002c4c:	e1a00003 	mov	r0, r3
f0002c50:	ebfffaaa 	bl	f0001700 <mctl_enable_dllx>
f0002c54:	e3a00064 	mov	r0, #100	; 0x64
f0002c58:	ebfff8bf 	bl	f0000f5c <delay_us>
f0002c5c:	e3013010 	movw	r3, #4112	; 0x1010
f0002c60:	e34f31c0 	movt	r3, #61888	; 0xf1c0
f0002c64:	e5933000 	ldr	r3, [r3]
f0002c68:	e50b3008 	str	r3, [fp, #-8]
f0002c6c:	e51b3008 	ldr	r3, [fp, #-8]
f0002c70:	e3833102 	orr	r3, r3, #-2147483648	; 0x80000000
f0002c74:	e50b3008 	str	r3, [fp, #-8]
f0002c78:	e3013010 	movw	r3, #4112	; 0x1010
f0002c7c:	e34f31c0 	movt	r3, #61888	; 0xf1c0
f0002c80:	e51b2008 	ldr	r2, [fp, #-8]
f0002c84:	e5832000 	str	r2, [r3]
f0002c88:	e3013004 	movw	r3, #4100	; 0x1004
f0002c8c:	e34f31c0 	movt	r3, #61888	; 0xf1c0
f0002c90:	e5933000 	ldr	r3, [r3]
f0002c94:	e50b3008 	str	r3, [fp, #-8]
f0002c98:	e51b3008 	ldr	r3, [fp, #-8]
f0002c9c:	e3c3333e 	bic	r3, r3, #-134217728	; 0xf8000000
f0002ca0:	e50b3008 	str	r3, [fp, #-8]
f0002ca4:	e51b3008 	ldr	r3, [fp, #-8]
f0002ca8:	e3833209 	orr	r3, r3, #-1879048192	; 0x90000000
f0002cac:	e50b3008 	str	r3, [fp, #-8]
f0002cb0:	e3013004 	movw	r3, #4100	; 0x1004
f0002cb4:	e34f31c0 	movt	r3, #61888	; 0xf1c0
f0002cb8:	e51b2008 	ldr	r2, [fp, #-8]
f0002cbc:	e5832000 	str	r2, [r3]
f0002cc0:	e1a00000 	nop			; (mov r0, r0)
f0002cc4:	e3013004 	movw	r3, #4100	; 0x1004
f0002cc8:	e34f31c0 	movt	r3, #61888	; 0xf1c0
f0002ccc:	e5933000 	ldr	r3, [r3]
f0002cd0:	e3530000 	cmp	r3, #0
f0002cd4:	bafffffa 	blt	f0002cc4 <dram_freq_jum+0x2ec>
f0002cd8:	e3a0000a 	mov	r0, #10
f0002cdc:	ebfff89e 	bl	f0000f5c <delay_us>
f0002ce0:	e3013004 	movw	r3, #4100	; 0x1004
f0002ce4:	e34f31c0 	movt	r3, #61888	; 0xf1c0
f0002ce8:	e5933000 	ldr	r3, [r3]
f0002cec:	e50b3008 	str	r3, [fp, #-8]
f0002cf0:	e51b3008 	ldr	r3, [fp, #-8]
f0002cf4:	e3c3333e 	bic	r3, r3, #-134217728	; 0xf8000000
f0002cf8:	e50b3008 	str	r3, [fp, #-8]
f0002cfc:	e51b3008 	ldr	r3, [fp, #-8]
f0002d00:	e383332e 	orr	r3, r3, #-1207959552	; 0xb8000000
f0002d04:	e50b3008 	str	r3, [fp, #-8]
f0002d08:	e3013004 	movw	r3, #4100	; 0x1004
f0002d0c:	e34f31c0 	movt	r3, #61888	; 0xf1c0
f0002d10:	e51b2008 	ldr	r2, [fp, #-8]
f0002d14:	e5832000 	str	r2, [r3]
f0002d18:	e1a00000 	nop			; (mov r0, r0)
f0002d1c:	e3013004 	movw	r3, #4100	; 0x1004
f0002d20:	e34f31c0 	movt	r3, #61888	; 0xf1c0
f0002d24:	e5933000 	ldr	r3, [r3]
f0002d28:	e3530000 	cmp	r3, #0
f0002d2c:	bafffffa 	blt	f0002d1c <dram_freq_jum+0x344>
f0002d30:	e3013010 	movw	r3, #4112	; 0x1010
f0002d34:	e34f31c0 	movt	r3, #61888	; 0xf1c0
f0002d38:	e5933000 	ldr	r3, [r3]
f0002d3c:	e50b3008 	str	r3, [fp, #-8]
f0002d40:	e51b3008 	ldr	r3, [fp, #-8]
f0002d44:	e3c33102 	bic	r3, r3, #-2147483648	; 0x80000000
f0002d48:	e50b3008 	str	r3, [fp, #-8]
f0002d4c:	e3013010 	movw	r3, #4112	; 0x1010
f0002d50:	e34f31c0 	movt	r3, #61888	; 0xf1c0
f0002d54:	e51b2008 	ldr	r2, [fp, #-8]
f0002d58:	e5832000 	str	r2, [r3]
f0002d5c:	ebfffa25 	bl	f00015f8 <mctl_itm_enable>
f0002d60:	e3003d24 	movw	r3, #3364	; 0xd24
f0002d64:	e34f31c2 	movt	r3, #61890	; 0xf1c2
f0002d68:	e5933000 	ldr	r3, [r3]
f0002d6c:	e50b3008 	str	r3, [fp, #-8]
f0002d70:	e301304c 	movw	r3, #4172	; 0x104c
f0002d74:	e34f31c0 	movt	r3, #61888	; 0xf1c0
f0002d78:	e51b2008 	ldr	r2, [fp, #-8]
f0002d7c:	e5832000 	str	r2, [r3]
f0002d80:	e3003d28 	movw	r3, #3368	; 0xd28
f0002d84:	e34f31c2 	movt	r3, #61890	; 0xf1c2
f0002d88:	e5933000 	ldr	r3, [r3]
f0002d8c:	e50b3008 	str	r3, [fp, #-8]
f0002d90:	e301305c 	movw	r3, #4188	; 0x105c
f0002d94:	e34f31c0 	movt	r3, #61888	; 0xf1c0
f0002d98:	e51b2008 	ldr	r2, [fp, #-8]
f0002d9c:	e5832000 	str	r2, [r3]
f0002da0:	e3a0000a 	mov	r0, #10
f0002da4:	ebfff86c 	bl	f0000f5c <delay_us>
f0002da8:	e1a00003 	mov	r0, r3
f0002dac:	e24bd004 	sub	sp, fp, #4
f0002db0:	e8bd8800 	pop	{fp, pc}

f0002db4 <init_DRAM>:
f0002db4:	e92d4800 	push	{fp, lr}
f0002db8:	e28db004 	add	fp, sp, #4
f0002dbc:	e24dd010 	sub	sp, sp, #16
f0002dc0:	e50b0010 	str	r0, [fp, #-16]
f0002dc4:	e3a03000 	mov	r3, #0
f0002dc8:	e50b300c 	str	r3, [fp, #-12]
f0002dcc:	e3a03000 	mov	r3, #0
f0002dd0:	e50b3008 	str	r3, [fp, #-8]
f0002dd4:	ea000005 	b	f0002df0 <init_DRAM+0x3c>
f0002dd8:	e51b0010 	ldr	r0, [fp, #-16]
f0002ddc:	ebfffbd7 	bl	f0001d40 <DRAMC_init>
f0002de0:	e50b000c 	str	r0, [fp, #-12]
f0002de4:	e51b3008 	ldr	r3, [fp, #-8]
f0002de8:	e2833001 	add	r3, r3, #1
f0002dec:	e50b3008 	str	r3, [fp, #-8]
f0002df0:	e51b300c 	ldr	r3, [fp, #-12]
f0002df4:	e3530000 	cmp	r3, #0
f0002df8:	1a000002 	bne	f0002e08 <init_DRAM+0x54>
f0002dfc:	e51b3008 	ldr	r3, [fp, #-8]
f0002e00:	e3530003 	cmp	r3, #3
f0002e04:	9afffff3 	bls	f0002dd8 <init_DRAM+0x24>
f0002e08:	e51b300c 	ldr	r3, [fp, #-12]
f0002e0c:	e1a00003 	mov	r0, r3
f0002e10:	e24bd004 	sub	sp, fp, #4
f0002e14:	e8bd8800 	pop	{fp, pc}

f0002e18 <dram_exit>:
f0002e18:	e52db004 	push	{fp}		; (str fp, [sp, #-4]!)
f0002e1c:	e28db000 	add	fp, sp, #0
f0002e20:	e3a03000 	mov	r3, #0
f0002e24:	e1a00003 	mov	r0, r3
f0002e28:	e28bd000 	add	sp, fp, #0
f0002e2c:	e8bd0800 	pop	{fp}
f0002e30:	e12fff1e 	bx	lr

f0002e34 <dram_get_size>:
f0002e34:	e92d4800 	push	{fp, lr}
f0002e38:	e28db004 	add	fp, sp, #4
f0002e3c:	ebfffe15 	bl	f0002698 <DRAMC_get_dram_size>
f0002e40:	e1a03000 	mov	r3, r0
f0002e44:	e1a00003 	mov	r0, r3
f0002e48:	e8bd8800 	pop	{fp, pc}

f0002e4c <dram_set_clock>:
f0002e4c:	e92d4800 	push	{fp, lr}
f0002e50:	e28db004 	add	fp, sp, #4
f0002e54:	e24dd008 	sub	sp, sp, #8
f0002e58:	e50b0008 	str	r0, [fp, #-8]
f0002e5c:	e51b3008 	ldr	r3, [fp, #-8]
f0002e60:	e1a00003 	mov	r0, r3
f0002e64:	e3a01000 	mov	r1, #0
f0002e68:	ebfffb2d 	bl	f0001b24 <mctl_setup_dram_clock>
f0002e6c:	e24bd004 	sub	sp, fp, #4
f0002e70:	e8bd8800 	pop	{fp, pc}

f0002e74 <dram_set_drive>:
f0002e74:	e92d4800 	push	{fp, lr}
f0002e78:	e28db004 	add	fp, sp, #4
f0002e7c:	ebfff9ac 	bl	f0001534 <mctl_set_drive>
f0002e80:	e8bd8800 	pop	{fp, pc}

f0002e84 <dram_set_autorefresh_cycle>:
f0002e84:	e92d4800 	push	{fp, lr}
f0002e88:	e28db004 	add	fp, sp, #4
f0002e8c:	e24dd008 	sub	sp, sp, #8
f0002e90:	e50b0008 	str	r0, [fp, #-8]
f0002e94:	e51b0008 	ldr	r0, [fp, #-8]
f0002e98:	ebfffdde 	bl	f0002618 <DRAMC_set_autorefresh_cycle>
f0002e9c:	e24bd004 	sub	sp, fp, #4
f0002ea0:	e8bd8800 	pop	{fp, pc}

f0002ea4 <dram_scan_readpipe>:
f0002ea4:	e92d4800 	push	{fp, lr}
f0002ea8:	e28db004 	add	fp, sp, #4
f0002eac:	ebfffd91 	bl	f00024f8 <DRAMC_scan_readpipe>
f0002eb0:	e1a03000 	mov	r3, r0
f0002eb4:	e1a00003 	mov	r0, r3
f0002eb8:	e8bd8800 	pop	{fp, pc}

f0002ebc <CSWTCH.10>:
f0002ebc:	00000001 	andeq	r0, r0, r1
f0002ec0:	00000002 	andeq	r0, r0, r2
f0002ec4:	00000000 	andeq	r0, r0, r0
f0002ec8:	00000003 	andeq	r0, r0, r3

Disassembly of section .rodata.str1.4:

f0002ecc <.rodata.str1.4>:
f0002ecc:	33323130 	teqcc	r2, #12
f0002ed0:	37363534 			; <UNDEFINED> instruction: 0x37363534
f0002ed4:	42413938 	submi	r3, r1, #917504	; 0xe0000
f0002ed8:	46454443 	strbmi	r4, [r5], -r3, asr #8
f0002edc:	00000000 	andeq	r0, r0, r0
f0002ee0:	20202020 	eorcs	r2, r0, r0, lsr #32
f0002ee4:	20202020 	eorcs	r2, r0, r0, lsr #32
f0002ee8:	20202020 	eorcs	r2, r0, r0, lsr #32
f0002eec:	20202020 	eorcs	r2, r0, r0, lsr #32
f0002ef0:	00000000 	andeq	r0, r0, r0
f0002ef4:	65747441 	ldrbvs	r7, [r4, #-1089]!	; 0x441
f0002ef8:	6974706d 	ldmdbvs	r4!, {r0, r2, r3, r5, r6, ip, sp, lr}^
f0002efc:	6420676e 	strtvs	r6, [r0], #-1902	; 0x76e
f0002f00:	73697669 	cmnvc	r9, #110100480	; 0x6900000
f0002f04:	206e6f69 	rsbcs	r6, lr, r9, ror #30
f0002f08:	30207962 	eorcc	r7, r0, r2, ror #18
f0002f0c:	00000021 	andeq	r0, r0, r1, lsr #32

Disassembly of section .data:

f0002f10 <hpcr_value>:
f0002f10:	00000301 	andeq	r0, r0, r1, lsl #6
f0002f14:	00000301 	andeq	r0, r0, r1, lsl #6
f0002f18:	00000301 	andeq	r0, r0, r1, lsl #6
f0002f1c:	00000301 	andeq	r0, r0, r1, lsl #6
f0002f20:	00000301 	andeq	r0, r0, r1, lsl #6
f0002f24:	00000301 	andeq	r0, r0, r1, lsl #6
f0002f28:	00000301 	andeq	r0, r0, r1, lsl #6
f0002f2c:	00000301 	andeq	r0, r0, r1, lsl #6
	...
f0002f50:	00001031 	andeq	r1, r0, r1, lsr r0
f0002f54:	00001031 	andeq	r1, r0, r1, lsr r0
f0002f58:	00000735 	andeq	r0, r0, r5, lsr r7
f0002f5c:	00001035 	andeq	r1, r0, r5, lsr r0
f0002f60:	00001035 	andeq	r1, r0, r5, lsr r0
f0002f64:	00000731 	andeq	r0, r0, r1, lsr r7
f0002f68:	00001031 	andeq	r1, r0, r1, lsr r0
f0002f6c:	00000735 	andeq	r0, r0, r5, lsr r7
f0002f70:	00001035 	andeq	r1, r0, r5, lsr r0
f0002f74:	00001031 	andeq	r1, r0, r1, lsr r0
f0002f78:	00000731 	andeq	r0, r0, r1, lsr r7
f0002f7c:	00001035 	andeq	r1, r0, r5, lsr r0
f0002f80:	00001031 	andeq	r1, r0, r1, lsr r0
f0002f84:	00000301 	andeq	r0, r0, r1, lsl #6
f0002f88:	00000301 	andeq	r0, r0, r1, lsl #6
f0002f8c:	00000731 	andeq	r0, r0, r1, lsr r7

Disassembly of section .bss:

f0002f90 <dram_suspend_flag>:
f0002f90:	00000000 	andeq	r0, r0, r0

f0002f94 <backup_perf_counter_ctrl_reg>:
f0002f94:	00000000 	andeq	r0, r0, r0

f0002f98 <backup_perf_counter_enable_reg>:
f0002f98:	00000000 	andeq	r0, r0, r0

f0002f9c <overhead>:
f0002f9c:	00000000 	andeq	r0, r0, r0

f0002fa0 <cpu_freq>:
f0002fa0:	00000000 	andeq	r0, r0, r0

f0002fa4 <sp_backup>:
f0002fa4:	00000000 	andeq	r0, r0, r0

f0002fa8 <dram_traning_back>:
	...

f0002fe8 <g_dram_para>:
	...

f0003038 <debugger_buffer>:
	...

Disassembly of section .debug_info:

00000000 <.debug_info>:
       0:	0000035f 	andeq	r0, r0, pc, asr r3
       4:	00000002 	andeq	r0, r0, r2
       8:	01040000 	mrseq	r0, (UNDEF: 4)
       c:	00000097 	muleq	r0, r7, r0
      10:	0000c701 	andeq	ip, r0, r1, lsl #14
      14:	00020f00 	andeq	r0, r2, r0, lsl #30
	...
      28:	06010200 	streq	r0, [r1], -r0, lsl #4
      2c:	000000bb 	strheq	r0, [r0], -fp
      30:	b9080102 	stmdblt	r8, {r1, r8}
      34:	02000000 	andeq	r0, r0, #0
      38:	01f10502 	mvnseq	r0, r2, lsl #10
      3c:	02020000 	andeq	r0, r2, #0
      40:	0000d907 	andeq	sp, r0, r7, lsl #18
      44:	05040300 	streq	r0, [r4, #-768]	; 0x300
      48:	00746e69 	rsbseq	r6, r4, r9, ror #28
      4c:	00002d04 	andeq	r2, r0, r4, lsl #26
      50:	57130300 	ldrpl	r0, [r3, -r0, lsl #6]
      54:	02000000 	andeq	r0, r0, #0
      58:	01740704 	cmneq	r4, r4, lsl #14
      5c:	08020000 	stmdaeq	r2, {}	; <UNPREDICTABLE>
      60:	0001e305 	andeq	lr, r1, r5, lsl #6
      64:	07080200 	streq	r0, [r8, -r0, lsl #4]
      68:	0000016a 	andeq	r0, r0, sl, ror #2
      6c:	00010505 	andeq	r0, r1, r5, lsl #10
      70:	5c025000 	stcpl	0, cr5, [r2], {-0}
      74:	00000191 	muleq	r0, r1, r1
      78:	00015006 	andeq	r5, r1, r6
      7c:	575e0200 	ldrbpl	r0, [lr, -r0, lsl #4]
      80:	02000000 	andeq	r0, r0, #0
      84:	8e060023 	cdphi	0, 0, cr0, cr6, cr3, {1}
      88:	02000000 	andeq	r0, r0, #0
      8c:	0000575f 	andeq	r5, r0, pc, asr r7
      90:	04230200 	strteq	r0, [r3], #-512	; 0x200
      94:	0001a306 	andeq	sl, r1, r6, lsl #6
      98:	57600200 	strbpl	r0, [r0, -r0, lsl #4]!
      9c:	02000000 	andeq	r0, r0, #0
      a0:	17060823 	strne	r0, [r6, -r3, lsr #16]
      a4:	02000001 	andeq	r0, r0, #1
      a8:	00005761 	andeq	r5, r0, r1, ror #14
      ac:	0c230200 	sfmeq	f0, 4, [r3], #-0
      b0:	00000806 	andeq	r0, r0, r6, lsl #16
      b4:	57620200 	strbpl	r0, [r2, -r0, lsl #4]!
      b8:	02000000 	andeq	r0, r0, #0
      bc:	b7061023 	strlt	r1, [r6, -r3, lsr #32]
      c0:	02000001 	andeq	r0, r0, #1
      c4:	00005763 	andeq	r5, r0, r3, ror #14
      c8:	14230200 	strtne	r0, [r3], #-512	; 0x200
      cc:	00003c06 	andeq	r3, r0, r6, lsl #24
      d0:	57640200 	strbpl	r0, [r4, -r0, lsl #4]!
      d4:	02000000 	andeq	r0, r0, #0
      d8:	31061823 	tstcc	r6, r3, lsr #16
      dc:	02000001 	andeq	r0, r0, #1
      e0:	00005765 	andeq	r5, r0, r5, ror #14
      e4:	1c230200 	sfmne	f0, 4, [r3], #-0
      e8:	00000006 	andeq	r0, r0, r6
      ec:	57660200 	strbpl	r0, [r6, -r0, lsl #4]!
      f0:	02000000 	andeq	r0, r0, #0
      f4:	6e062023 	cdpvs	0, 0, cr2, cr6, cr3, {1}
      f8:	02000000 	andeq	r0, r0, #0
      fc:	00005767 	andeq	r5, r0, r7, ror #14
     100:	24230200 	strtcs	r0, [r3], #-512	; 0x200
     104:	0016c606 	andseq	ip, r6, r6, lsl #12
     108:	57680200 	strbpl	r0, [r8, -r0, lsl #4]!
     10c:	02000000 	andeq	r0, r0, #0
     110:	fb062823 	blx	18a1a6 <__dram_freq_start+0x18a1a6>
     114:	02000001 	andeq	r0, r0, #1
     118:	00005769 	andeq	r5, r0, r9, ror #14
     11c:	2c230200 	sfmcs	f0, 4, [r3], #-0
     120:	00005a06 	andeq	r5, r0, r6, lsl #20
     124:	576a0200 	strbpl	r0, [sl, -r0, lsl #4]!
     128:	02000000 	andeq	r0, r0, #0
     12c:	64063023 	strvs	r3, [r6], #-35	; 0x23
     130:	02000000 	andeq	r0, r0, #0
     134:	0000576b 	andeq	r5, r0, fp, ror #14
     138:	34230200 	strtcc	r0, [r3], #-512	; 0x200
     13c:	00020506 	andeq	r0, r2, r6, lsl #10
     140:	576c0200 	strbpl	r0, [ip, -r0, lsl #4]!
     144:	02000000 	andeq	r0, r0, #0
     148:	7a063823 	bvc	18e1dc <__dram_freq_start+0x18e1dc>
     14c:	02000000 	andeq	r0, r0, #0
     150:	0000576d 	andeq	r5, r0, sp, ror #14
     154:	3c230200 	sfmcc	f0, 4, [r3], #-0
     158:	00008406 	andeq	r8, r0, r6, lsl #8
     15c:	576e0200 	strbpl	r0, [lr, -r0, lsl #4]!
     160:	02000000 	andeq	r0, r0, #0
     164:	6c064023 	stcvs	0, cr4, [r6], {35}	; 0x23
     168:	02000002 	andeq	r0, r0, #2
     16c:	0000576f 	andeq	r5, r0, pc, ror #14
     170:	44230200 	strtmi	r0, [r3], #-512	; 0x200
     174:	00027606 	andeq	r7, r2, r6, lsl #12
     178:	57700200 	ldrbpl	r0, [r0, -r0, lsl #4]!
     17c:	02000000 	andeq	r0, r0, #0
     180:	80064823 	andhi	r4, r6, r3, lsr #16
     184:	02000002 	andeq	r0, r0, #2
     188:	00005771 	andeq	r5, r0, r1, ror r7
     18c:	4c230200 	sfmmi	f0, 4, [r3], #-0
     190:	001a0400 	andseq	r0, sl, r0, lsl #8
     194:	72020000 	andvc	r0, r2, #0
     198:	0000006c 	andeq	r0, r0, ip, rrx
     19c:	94080407 	strls	r0, [r8], #-1031	; 0x407
     1a0:	01000001 	tsteq	r0, r1
     1a4:	e101017d 	tst	r1, sp, ror r1
     1a8:	09000001 	stmdbeq	r0, {r0}
     1ac:	000003bc 			; <UNDEFINED> instruction: 0x000003bc
     1b0:	019c7d01 	orrseq	r7, ip, r1, lsl #26
     1b4:	730a0000 	movwvc	r0, #40960	; 0xa000
     1b8:	01006372 	tsteq	r0, r2, ror r3
     1bc:	00019c7d 	andeq	r9, r1, sp, ror ip
     1c0:	006e0a00 	rsbeq	r0, lr, r0, lsl #20
     1c4:	00457d01 	subeq	r7, r5, r1, lsl #26
     1c8:	520b0000 	andpl	r0, fp, #0
     1cc:	01000000 	mrseq	r0, (UNDEF: 0)
     1d0:	0001e17f 	andeq	lr, r1, pc, ror r1
     1d4:	018c0b00 	orreq	r0, ip, r0, lsl #22
     1d8:	80010000 	andhi	r0, r1, r0
     1dc:	000001e1 	andeq	r0, r0, r1, ror #3
     1e0:	e7040c00 	str	r0, [r4, -r0, lsl #24]
     1e4:	02000001 	andeq	r0, r0, #1
     1e8:	00c20801 	sbceq	r0, r2, r1, lsl #16
     1ec:	9e0d0000 	cdpls	0, 0, cr0, cr13, cr0, {0}
     1f0:	c4000001 	strgt	r0, [r0], #-1
     1f4:	f8f00000 			; <UNDEFINED> instruction: 0xf8f00000
     1f8:	02f00000 	rscseq	r0, r0, #0
     1fc:	0265007d 	rsbeq	r0, r5, #125	; 0x7d
     200:	ab0e0000 	blge	380208 <__dram_freq_start+0x380208>
     204:	01000001 	tsteq	r0, r1
     208:	01b60e50 			; <UNDEFINED> instruction: 0x01b60e50
     20c:	51010000 	mrspl	r0, (UNDEF: 1)
     210:	0001c10e 	andeq	ip, r1, lr, lsl #2
     214:	0f520100 	svceq	0x00520100
     218:	000001ca 	andeq	r0, r0, sl, asr #3
     21c:	d50f5101 	strle	r5, [pc, #-257]	; 123 <__dram_freq_start+0x123>
     220:	01000001 	tsteq	r0, r1
     224:	019e1050 	orrseq	r1, lr, r0, asr r0
     228:	00d80000 	sbcseq	r0, r8, r0
     22c:	00f8f000 	rscseq	pc, r8, r0
     230:	7d01f000 	stcvc	0, cr15, [r1, #-0]
     234:	0001c111 	andeq	ip, r1, r1, lsl r1
     238:	00000000 	andeq	r0, r0, r0
     23c:	01b61200 			; <UNDEFINED> instruction: 0x01b61200
     240:	ab120000 	blge	480248 <__dram_freq_start+0x480248>
     244:	13000001 	movwne	r0, #1
     248:	f00000d8 			; <UNDEFINED> instruction: 0xf00000d8
     24c:	f00000f8 			; <UNDEFINED> instruction: 0xf00000f8
     250:	0001ca14 	andeq	ip, r1, r4, lsl sl
     254:	00001300 	andeq	r1, r0, r0, lsl #6
     258:	01d51400 	bicseq	r1, r5, r0, lsl #8
     25c:	00260000 	eoreq	r0, r6, r0
     260:	00000000 	andeq	r0, r0, r0
     264:	41011500 	tstmi	r1, r0, lsl #10
     268:	01000001 	tsteq	r0, r1
     26c:	00450135 	subeq	r0, r5, r5, lsr r1
     270:	00000000 	andeq	r0, r0, r0
     274:	00c4f000 	sbceq	pc, r4, r0
     278:	0039f000 	eorseq	pc, r9, r0
     27c:	02e90000 	rsceq	r0, r9, #0
     280:	81160000 	tsthi	r6, r0
     284:	01000001 	tsteq	r0, r1
     288:	00005735 	andeq	r5, r0, r5, lsr r7
     28c:	00005900 	andeq	r5, r0, r0, lsl #18
     290:	00fa1600 	rscseq	r1, sl, r0, lsl #12
     294:	36010000 	strcc	r0, [r1], -r0
     298:	000002e9 	andeq	r0, r0, r9, ror #5
     29c:	00000077 	andeq	r0, r0, r7, ror r0
     2a0:	00003316 	andeq	r3, r0, r6, lsl r3
     2a4:	9c360100 	ldflss	f0, [r6], #-0
     2a8:	95000001 	strls	r0, [r0, #-1]
     2ac:	17000000 	strne	r0, [r0, -r0]
     2b0:	0000004b 	andeq	r0, r0, fp, asr #32
     2b4:	01e13801 	mvneq	r3, r1, lsl #16
     2b8:	00a80000 	adceq	r0, r8, r0
     2bc:	250b0000 	strcs	r0, [fp, #-0]
     2c0:	01000001 	tsteq	r0, r1
     2c4:	0002ef39 	andeq	lr, r2, r9, lsr pc
     2c8:	013a1800 	teqeq	sl, r0, lsl #16
     2cc:	3a010000 	bcc	402d4 <__dram_freq_start+0x402d4>
     2d0:	0000004c 	andeq	r0, r0, ip, asr #32
     2d4:	8081fffc 	strdhi	pc, [r1], ip
     2d8:	ec01197f 	stc	9, cr1, [r1], {127}	; 0x7f
     2dc:	01000000 	mrseq	r0, (UNDEF: 0)
     2e0:	00004560 	andeq	r4, r0, r0, ror #10
     2e4:	001a0100 	andseq	r0, sl, r0, lsl #2
     2e8:	91040c00 	tstls	r4, r0, lsl #24
     2ec:	0c000001 	stceq	0, cr0, [r0], {1}
     2f0:	00004504 	andeq	r4, r0, r4, lsl #10
     2f4:	01c51b00 	biceq	r1, r5, r0, lsl #22
     2f8:	16040000 	strne	r0, [r4], -r0
     2fc:	00000045 	andeq	r0, r0, r5, asr #32
     300:	5e1b0101 	mufple	f0, f3, f1
     304:	01000001 	tsteq	r0, r1
     308:	0001e118 	andeq	lr, r1, r8, lsl r1
     30c:	1b010100 	blne	40714 <__dram_freq_start+0x40714>
     310:	000001ad 	andeq	r0, r0, sp, lsr #3
     314:	01e11901 	mvneq	r1, r1, lsl #18
     318:	01010000 	mrseq	r0, (UNDEF: 1)
     31c:	0001d71c 	andeq	sp, r1, ip, lsl r7
     320:	911d0100 	tstls	sp, r0, lsl #2
     324:	01000001 	tsteq	r0, r1
     328:	2fe80305 	svccs	0x00e80305
     32c:	301df000 	andscc	pc, sp, r0
     330:	3e000000 	cdpcc	0, 0, cr0, cr0, cr0, {0}
     334:	1e000003 	cdpne	0, 0, cr0, cr0, cr3, {0}
     338:	00000057 	andeq	r0, r0, r7, asr r0
     33c:	5a1c003f 	bpl	700440 <__dram_freq_start+0x700440>
     340:	01000002 	tsteq	r0, r2
     344:	00032e1e 	andeq	r2, r3, lr, lsl lr
     348:	03050100 	movweq	r0, #20736	; 0x5100
     34c:	f0002fa8 			; <UNDEFINED> instruction: 0xf0002fa8
     350:	00028a1c 	andeq	r8, r2, ip, lsl sl
     354:	4c1f0100 	ldfmis	f0, [pc], {-0}
     358:	01000000 	mrseq	r0, (UNDEF: 0)
     35c:	2fa40305 	svccs	0x00a40305
     360:	b700f000 	strlt	pc, [r0, -r0]
     364:	02000002 	andeq	r0, r0, #2
     368:	00018100 	andeq	r8, r1, r0, lsl #2
     36c:	97010400 	strls	r0, [r1, -r0, lsl #8]
     370:	01000000 	mrseq	r0, (UNDEF: 0)
     374:	000002a4 	andeq	r0, r0, r4, lsr #5
     378:	0000020f 	andeq	r0, r0, pc, lsl #4
     37c:	f00000f8 			; <UNDEFINED> instruction: 0xf00000f8
     380:	f0000290 			; <UNDEFINED> instruction: 0xf0000290
     384:	0000009f 	muleq	r0, pc, r0	; <UNPREDICTABLE>
     388:	bb060102 	bllt	180798 <__dram_freq_start+0x180798>
     38c:	02000000 	andeq	r0, r0, #0
     390:	00b90801 	adcseq	r0, r9, r1, lsl #16
     394:	02020000 	andeq	r0, r2, #0
     398:	0001f105 	andeq	pc, r1, r5, lsl #2
     39c:	07020200 	streq	r0, [r2, -r0, lsl #4]
     3a0:	000000d9 	ldrdeq	r0, [r0], -r9
     3a4:	0002e403 	andeq	lr, r2, r3, lsl #8
     3a8:	4c120200 	lfmmi	f0, 4, [r2], {-0}
     3ac:	04000000 	streq	r0, [r0], #-0
     3b0:	6e690504 	cdpvs	5, 6, cr0, cr9, cr4, {0}
     3b4:	2d030074 	stccs	0, cr0, [r3, #-464]	; 0xfffffe30
     3b8:	02000000 	andeq	r0, r0, #0
     3bc:	00005e13 	andeq	r5, r0, r3, lsl lr
     3c0:	07040200 	streq	r0, [r4, -r0, lsl #4]
     3c4:	00000174 	andeq	r0, r0, r4, ror r1
     3c8:	e3050802 	movw	r0, #22530	; 0x5802
     3cc:	02000001 	andeq	r0, r0, #1
     3d0:	016a0708 	cmneq	sl, r8, lsl #14
     3d4:	1f050000 	svcne	0x00050000
     3d8:	01000003 	tsteq	r0, r3
     3dc:	0090014f 	addseq	r0, r0, pc, asr #2
     3e0:	90010000 	andls	r0, r1, r0
     3e4:	06000000 	streq	r0, [r0], -r0
     3e8:	000002ea 	andeq	r0, r0, sl, ror #5
     3ec:	00535101 	subseq	r5, r3, r1, lsl #2
     3f0:	02000000 	andeq	r0, r0, #0
     3f4:	00c20801 	sbceq	r0, r2, r1, lsl #16
     3f8:	94070000 	strls	r0, [r7], #-0
     3fc:	01000002 	tsteq	r0, r2
     400:	ae0101a8 	adfgedp	f0, f1, #0.0
     404:	08000000 	stmdaeq	r0, {}	; <UNPREDICTABLE>
     408:	a8010063 	stmdage	r1, {r0, r1, r5, r6}
     40c:	00000090 	muleq	r0, r0, r0
     410:	02c80500 	sbceq	r0, r8, #0
     414:	b7010000 	strlt	r0, [r1, -r0]
     418:	00009001 	andeq	r9, r0, r1
     41c:	00cb0100 	sbceq	r0, fp, r0, lsl #2
     420:	ea060000 	b	180428 <__dram_freq_start+0x180428>
     424:	01000002 	tsteq	r0, r2
     428:	000053b9 			; <UNDEFINED> instruction: 0x000053b9
     42c:	01090000 	mrseq	r0, (UNDEF: 9)
     430:	000002b6 			; <UNDEFINED> instruction: 0x000002b6
     434:	f8011401 			; <UNDEFINED> instruction: 0xf8011401
     438:	0cf00000 	ldcleq	0, cr0, [r0]
     43c:	02f00001 	rscseq	r0, r0, #1
     440:	010a007d 	tsteq	sl, sp, ror r0
     444:	000002fb 	strdeq	r0, [r0], -fp
     448:	41016b01 	tstmi	r1, r1, lsl #22
     44c:	0c000000 	stceq	0, cr0, [r0], {-0}
     450:	14f00001 	ldrbtne	r0, [r0], #1
     454:	02f00001 	rscseq	r0, r0, #1
     458:	010b007d 	tsteq	fp, sp, ror r0
     45c:	5e0b0000 	cdppl	0, 0, cr0, cr11, cr0, {0}
     460:	01000003 	tsteq	r0, r3
     464:	00010b6b 	andeq	r0, r1, fp, ror #22
     468:	0000bb00 	andeq	fp, r0, r0, lsl #22
     46c:	040c0000 	streq	r0, [ip], #-0
     470:	00000111 	andeq	r0, r0, r1, lsl r1
     474:	0000900d 	andeq	r9, r0, sp
     478:	0d010a00 	vstreq	s0, [r1, #-0]
     47c:	01000003 	tsteq	r0, r3
     480:	00530171 	subseq	r0, r3, r1, ror r1
     484:	01140000 	tsteq	r4, r0
     488:	0160f000 	msreq	SPSR_, r0
     48c:	7d02f000 	stcvc	0, cr15, [r2, #-0]
     490:	00017e00 	andeq	r7, r1, r0, lsl #28
     494:	75620e00 	strbvc	r0, [r2, #-3584]!	; 0xe00
     498:	71010066 	tstvc	r1, r6, rrx
     49c:	0000017e 	andeq	r0, r0, lr, ror r1
     4a0:	000000ce 	andeq	r0, r0, lr, asr #1
     4a4:	01006e0f 	tsteq	r0, pc, lsl #28
     4a8:	00005371 	andeq	r5, r0, r1, ror r3
     4ac:	10510100 	subsne	r0, r1, r0, lsl #2
     4b0:	73010069 	movwvc	r0, #4201	; 0x1069
     4b4:	00000053 	andeq	r0, r0, r3, asr r0
     4b8:	000000ec 	andeq	r0, r0, ip, ror #1
     4bc:	01006311 	tsteq	r0, r1, lsl r3
     4c0:	00009074 	andeq	r9, r0, r4, ror r0
     4c4:	00731200 	rsbseq	r1, r3, r0, lsl #4
     4c8:	011c0000 	tsteq	ip, r0
     4cc:	0018f000 	andseq	pc, r8, r0
     4d0:	77010000 	strvc	r0, [r1, -r0]
     4d4:	00003013 	andeq	r3, r0, r3, lsl r0
     4d8:	00841400 	addeq	r1, r4, r0, lsl #8
     4dc:	00000000 	andeq	r0, r0, r0
     4e0:	90040c00 	andls	r0, r4, r0, lsl #24
     4e4:	15000000 	strne	r0, [r0, #-0]
     4e8:	0002ef01 	andeq	lr, r2, r1, lsl #30
     4ec:	017f0100 	cmneq	pc, r0, lsl #2
     4f0:	f0000160 			; <UNDEFINED> instruction: 0xf0000160
     4f4:	f00001cc 			; <UNDEFINED> instruction: 0xf00001cc
     4f8:	ec007d02 	stc	13, cr7, [r0], {2}
     4fc:	16000001 	strne	r0, [r0], -r1
     500:	00000341 	andeq	r0, r0, r1, asr #6
     504:	00538101 	subseq	r8, r3, r1, lsl #2
     508:	36000000 	strcc	r0, [r0], -r0
     50c:	6417016e 	ldrvs	r0, [r7], #-366	; 0x16e
     510:	82010066 	andhi	r0, r1, #102	; 0x66
     514:	00000053 	andeq	r0, r0, r3, asr r0
     518:	636c100d 	cmnvs	ip, #13
     51c:	83010072 	movwhi	r0, #4210	; 0x1072
     520:	00000053 	andeq	r0, r0, r3, asr r0
     524:	00000117 	andeq	r0, r0, r7, lsl r1
     528:	67657218 			; <UNDEFINED> instruction: 0x67657218
     52c:	ec840100 	stfs	f0, [r4], {0}
     530:	ec000001 	stc	0, cr0, [r0], {1}
     534:	7f8e8880 	svcvc	0x008e8880
     538:	00169319 	andseq	r9, r6, r9, lsl r3
     53c:	53850100 	orrpl	r0, r5, #0
     540:	00000000 	andeq	r0, r0, r0
     544:	01006917 	tsteq	r0, r7, lsl r9
     548:	00005386 	andeq	r5, r0, r6, lsl #7
     54c:	0c000000 	stceq	0, cr0, [r0], {-0}
     550:	0001f204 	andeq	pc, r1, r4, lsl #4
     554:	005e1a00 	subseq	r1, lr, r0, lsl #20
     558:	011b0000 	tsteq	fp, r0
     55c:	000002d8 	ldrdeq	r0, [r0], -r8
     560:	4101cc01 	tstmi	r1, r1, lsl #24
     564:	cc000000 	stcgt	0, cr0, [r0], {-0}
     568:	44f00001 	ldrbtmi	r0, [r0], #1
     56c:	2af00002 	bcs	ffc0057c <__bss_end+0xfbfd444>
     570:	56000001 	strpl	r0, [r0], -r1
     574:	0b000002 	bleq	584 <__dram_freq_start+0x584>
     578:	0000035e 	andeq	r0, r0, lr, asr r3
     57c:	010bcc01 	tsteq	fp, r1, lsl #24
     580:	014a0000 	mrseq	r0, (UNDEF: 74)
     584:	971c0000 	ldrls	r0, [ip, -r0]
     588:	dc000000 	stcle	0, cr0, [r0], {-0}
     58c:	48f00001 	ldmmi	r0!, {r0}^
     590:	01000000 	mrseq	r0, (UNDEF: 0)
     594:	00023cd6 	ldrdeq	r3, [r2], -r6
     598:	00a41d00 	adceq	r1, r4, r0, lsl #26
     59c:	1e000000 	cdpne	0, 0, cr0, cr0, cr0, {0}
     5a0:	00000097 	muleq	r0, r7, r0
     5a4:	f00001f8 			; <UNDEFINED> instruction: 0xf00001f8
     5a8:	f0000210 			; <UNDEFINED> instruction: 0xf0000210
     5ac:	a41fd801 	ldrge	sp, [pc], #-2049	; 5b4 <__dram_freq_start+0x5b4>
     5b0:	6a000000 	bvs	5b8 <__dram_freq_start+0x5b8>
     5b4:	00000001 	andeq	r0, r0, r1
     5b8:	35012000 	strcc	r2, [r1, #-0]
     5bc:	01000003 	tsteq	r0, r3
     5c0:	005301df 	ldrsbeq	r0, [r3], #-31	; 0xffffffe1
     5c4:	02440000 	subeq	r0, r4, #0
     5c8:	0290f000 	addseq	pc, r0, #0
     5cc:	7d02f000 	stcvc	0, cr15, [r2, #-0]
     5d0:	75620e00 	strbvc	r0, [r2, #-3584]!	; 0xe00
     5d4:	df010066 	svcle	0x00010066
     5d8:	0000017e 	andeq	r0, r0, lr, ror r1
     5dc:	0000017d 	andeq	r0, r0, sp, ror r1
     5e0:	01006e0f 	tsteq	r0, pc, lsl #28
     5e4:	000053df 	ldrdeq	r5, [r0], -pc	; <UNPREDICTABLE>
     5e8:	10510100 	subsne	r0, r1, r0, lsl #2
     5ec:	e1010069 	tst	r1, r9, rrx
     5f0:	00000053 	andeq	r0, r0, r3, asr r0
     5f4:	0000019b 	muleq	r0, fp, r1
     5f8:	01006311 	tsteq	r0, r1, lsl r3
     5fc:	000090e2 	andeq	r9, r0, r2, ror #1
     600:	00ae1200 	adceq	r1, lr, r0, lsl #4
     604:	024c0000 	subeq	r0, ip, #0
     608:	0068f000 	rsbeq	pc, r8, r0
     60c:	e5010000 	str	r0, [r1, #-0]
     610:	00008013 	andeq	r8, r0, r3, lsl r0
     614:	00bf1400 	adcseq	r1, pc, r0, lsl #8
     618:	00000000 	andeq	r0, r0, r0
     61c:	09900000 	ldmibeq	r0, {}	; <UNPREDICTABLE>
     620:	00020000 	andeq	r0, r2, r0
     624:	00000354 	andeq	r0, r0, r4, asr r3
     628:	00970104 	addseq	r0, r7, r4, lsl #2
     62c:	05010000 	streq	r0, [r1, #-0]
     630:	0f000004 	svceq	0x00000004
     634:	90000002 	andls	r0, r0, r2
     638:	10f00002 	rscsne	r0, r0, r2
     63c:	62f0000c 	rscsvs	r0, r0, #12
     640:	02000001 	andeq	r0, r0, #1
     644:	00bb0601 	adcseq	r0, fp, r1, lsl #12
     648:	01020000 	mrseq	r0, (UNDEF: 2)
     64c:	0000b908 	andeq	fp, r0, r8, lsl #18
     650:	05020200 	streq	r0, [r2, #-512]	; 0x200
     654:	000001f1 	strdeq	r0, [r0], -r1
     658:	d9070202 	stmdble	r7, {r1, r9}
     65c:	03000000 	movweq	r0, #0
     660:	000002e4 	andeq	r0, r0, r4, ror #5
     664:	004c1202 	subeq	r1, ip, r2, lsl #4
     668:	04040000 	streq	r0, [r4], #-0
     66c:	746e6905 	strbtvc	r6, [lr], #-2309	; 0x905
     670:	07040200 	streq	r0, [r4, -r0, lsl #4]
     674:	00000174 	andeq	r0, r0, r4, ror r1
     678:	e3050802 	movw	r0, #22530	; 0x5802
     67c:	02000001 	andeq	r0, r0, #1
     680:	016a0708 	cmneq	sl, r8, lsl #14
     684:	4c030000 	stcmi	0, cr0, [r3], {-0}
     688:	02000003 	andeq	r0, r0, #3
     68c:	00005317 	andeq	r5, r0, r7, lsl r3
     690:	03040500 	movweq	r0, #17664	; 0x4500
     694:	0000037b 	andeq	r0, r0, fp, ror r3
     698:	00802803 	addeq	r2, r0, r3, lsl #16
     69c:	8a060000 	bhi	1806a4 <__dram_freq_start+0x1806a4>
     6a0:	04000003 	streq	r0, [r0], #-3
     6a4:	009a0004 	addseq	r0, sl, r4
     6a8:	d7070000 	strle	r0, [r7, -r0]
     6ac:	73000003 	movwvc	r0, #3
     6b0:	02000000 	andeq	r0, r0, #0
     6b4:	00010023 	andeq	r0, r1, r3, lsr #32
     6b8:	00038c03 	andeq	r8, r3, r3, lsl #24
     6bc:	75660300 	strbvc	r0, [r6, #-768]!	; 0x300
     6c0:	08000000 	stmdaeq	r0, {}	; <UNPREDICTABLE>
     6c4:	0003d001 	andeq	sp, r3, r1
     6c8:	011f0100 	tsteq	pc, r0, lsl #2
     6cc:	00000068 	andeq	r0, r0, r8, rrx
     6d0:	0000cb01 	andeq	ip, r0, r1, lsl #22
     6d4:	00730900 	rsbseq	r0, r3, r0, lsl #18
     6d8:	00cb1f01 	sbceq	r1, fp, r1, lsl #30
     6dc:	730a0000 	movwvc	r0, #40960	; 0xa000
     6e0:	21010063 	tstcs	r1, r3, rrx
     6e4:	000000cb 	andeq	r0, r0, fp, asr #1
     6e8:	d1040b00 	tstle	r4, r0, lsl #22
     6ec:	0c000000 	stceq	0, cr0, [r0], {-0}
     6f0:	000000d6 	ldrdeq	r0, [r0], -r6
     6f4:	c2080102 	andgt	r0, r8, #-2147483648	; 0x80000000
     6f8:	08000000 	stmdaeq	r0, {}	; <UNPREDICTABLE>
     6fc:	0003a001 	andeq	sl, r3, r1
     700:	01300100 	teqeq	r0, r0, lsl #2
     704:	00000111 	andeq	r0, r0, r1, lsl r1
     708:	00011101 	andeq	r1, r1, r1, lsl #2
     70c:	03bc0d00 			; <UNDEFINED> instruction: 0x03bc0d00
     710:	30010000 	andcc	r0, r1, r0
     714:	00000111 	andeq	r0, r0, r1, lsl r1
     718:	63727309 	cmnvs	r2, #603979776	; 0x24000000
     71c:	cb300100 	blgt	c00b24 <__dram_freq_start+0xc00b24>
     720:	0a000000 	beq	728 <__dram_freq_start+0x728>
     724:	00706d74 	rsbseq	r6, r0, r4, ror sp
     728:	01113201 	tsteq	r1, r1, lsl #4
     72c:	0b000000 	bleq	734 <__dram_freq_start+0x734>
     730:	0000d604 	andeq	sp, r0, r4, lsl #12
     734:	00a50e00 	adceq	r0, r5, r0, lsl #28
     738:	02900000 	addseq	r0, r0, #0
     73c:	02bcf000 	adcseq	pc, ip, #0
     740:	7d02f000 	stcvc	0, cr15, [r2, #-0]
     744:	00013e00 	andeq	r3, r1, r0, lsl #28
     748:	00b70f00 	adcseq	r0, r7, r0, lsl #30
     74c:	01c60000 	biceq	r0, r6, r0
     750:	c0100000 	andsgt	r0, r0, r0
     754:	e4000000 	str	r0, [r0], #-0
     758:	00000001 	andeq	r0, r0, r1
     75c:	0000dd0e 	andeq	sp, r0, lr, lsl #26
     760:	0002bc00 	andeq	fp, r2, r0, lsl #24
     764:	0002d8f0 	strdeq	sp, [r2], -r0
     768:	007d02f0 	ldrshteq	r0, [sp], #-32	; 0xffffffe0
     76c:	0000016c 	andeq	r0, r0, ip, ror #2
     770:	0000ef0f 	andeq	lr, r0, pc, lsl #30
     774:	00021a00 	andeq	r1, r2, r0, lsl #20
     778:	00fa0f00 	rscseq	r0, sl, r0, lsl #30
     77c:	02380000 	eorseq	r0, r8, #0
     780:	05110000 	ldreq	r0, [r1, #-0]
     784:	01000001 	tsteq	r0, r1
     788:	01120050 	tsteq	r2, r0, asr r0
     78c:	000003b3 			; <UNDEFINED> instruction: 0x000003b3
     790:	11013c01 	tstne	r1, r1, lsl #24
     794:	d8000001 	stmdale	r0, {r0}
     798:	00f00002 	rscseq	r0, r0, r2
     79c:	02f00003 	rscseq	r0, r0, #3
     7a0:	01c1007d 	biceq	r0, r1, sp, ror r0
     7a4:	bc130000 	ldclt	0, cr0, [r3], {-0}
     7a8:	01000003 	tsteq	r0, r3
     7ac:	0001113c 	andeq	r1, r1, ip, lsr r1
     7b0:	14500100 	ldrbne	r0, [r0], #-256	; 0x100
     7b4:	00637273 	rsbeq	r7, r3, r3, ror r2
     7b8:	00cb3c01 	sbceq	r3, fp, r1, lsl #24
     7bc:	51010000 	mrspl	r0, (UNDEF: 1)
     7c0:	000e2315 	andeq	r2, lr, r5, lsl r3
     7c4:	683c0100 	ldmdavs	ip!, {r8}
     7c8:	58000000 	stmdapl	r0, {}	; <UNPREDICTABLE>
     7cc:	16000002 	strne	r0, [r0], -r2
     7d0:	00706d74 	rsbseq	r6, r0, r4, ror sp
     7d4:	01113e01 	tsteq	r1, r1, lsl #28
     7d8:	02830000 	addeq	r0, r3, #0
     7dc:	12000000 	andne	r0, r0, #0
     7e0:	0003ac01 	andeq	sl, r3, r1, lsl #24
     7e4:	014d0100 	mrseq	r0, (UNDEF: 93)
     7e8:	00000111 	andeq	r0, r0, r1, lsl r1
     7ec:	f0000300 			; <UNDEFINED> instruction: 0xf0000300
     7f0:	f0000340 			; <UNDEFINED> instruction: 0xf0000340
     7f4:	09007d02 	stmdbeq	r0, {r1, r8, sl, fp, ip, sp, lr}
     7f8:	15000002 	strne	r0, [r0, #-2]
     7fc:	000003bc 			; <UNDEFINED> instruction: 0x000003bc
     800:	01114d01 	tsteq	r1, r1, lsl #26
     804:	02960000 	addseq	r0, r6, #0
     808:	73170000 	tstvc	r7, #0
     80c:	01006372 	tsteq	r0, r2, ror r3
     810:	0000cb4d 	andeq	ip, r0, sp, asr #22
     814:	0002d700 	andeq	sp, r2, r0, lsl #14
     818:	6d741800 	ldclvs	8, cr1, [r4, #-0]
     81c:	4f010070 	svcmi	0x00010070
     820:	00000111 	andeq	r0, r0, r1, lsl r1
     824:	19005001 	stmdbne	r0, {r0, ip, lr}
     828:	0003c101 	andeq	ip, r3, r1, lsl #2
     82c:	015d0100 	cmpeq	sp, r0, lsl #2
     830:	00000111 	andeq	r0, r0, r1, lsl r1
     834:	f0000340 			; <UNDEFINED> instruction: 0xf0000340
     838:	f00003a8 			; <UNDEFINED> instruction: 0xf00003a8
     83c:	000002ea 	andeq	r0, r0, sl, ror #5
     840:	00000261 	andeq	r0, r0, r1, ror #4
     844:	0003bc15 	andeq	fp, r3, r5, lsl ip
     848:	115d0100 	cmpne	sp, r0, lsl #2
     84c:	0a000001 	beq	858 <__dram_freq_start+0x858>
     850:	17000003 	strne	r0, [r0, -r3]
     854:	00637273 	rsbeq	r7, r3, r3, ror r2
     858:	00cb5d01 	sbceq	r5, fp, r1, lsl #26
     85c:	03610000 	cmneq	r1, #0
     860:	23150000 	tstcs	r5, #0
     864:	0100000e 	tsteq	r0, lr
     868:	0000685d 	andeq	r6, r0, sp, asr r8
     86c:	00038100 	andeq	r8, r3, r0, lsl #2
     870:	6d741800 	ldclvs	8, cr1, [r4, #-0]
     874:	5f010070 	svcpl	0x00010070
     878:	00000111 	andeq	r0, r0, r1, lsl r1
     87c:	12005001 	andne	r5, r0, #1
     880:	0003e401 	andeq	lr, r3, r1, lsl #8
     884:	01730100 	cmneq	r3, r0, lsl #2
     888:	0000004c 	andeq	r0, r0, ip, asr #32
     88c:	f00003a8 			; <UNDEFINED> instruction: 0xf00003a8
     890:	f00003d8 			; <UNDEFINED> instruction: 0xf00003d8
     894:	b0007d02 	andlt	r7, r0, r2, lsl #26
     898:	17000002 	strne	r0, [r0, -r2]
     89c:	01007363 	tsteq	r0, r3, ror #6
     8a0:	0000cb73 	andeq	ip, r0, r3, ror fp
     8a4:	0003ac00 	andeq	sl, r3, r0, lsl #24
     8a8:	74631400 	strbtvc	r1, [r3], #-1024	; 0x400
     8ac:	cb730100 	blgt	1cc0cb4 <__dram_freq_start+0x1cc0cb4>
     8b0:	01000000 	mrseq	r0, (UNDEF: 0)
     8b4:	31631851 	cmncc	r3, r1, asr r8
     8b8:	2c750100 	ldfcse	f0, [r5], #-0
     8bc:	01000000 	mrseq	r0, (UNDEF: 0)
     8c0:	32631853 	rsbcc	r1, r3, #5439488	; 0x530000
     8c4:	2c750100 	ldfcse	f0, [r5], #-0
     8c8:	01000000 	mrseq	r0, (UNDEF: 0)
     8cc:	01120052 	tsteq	r2, r2, asr r0
     8d0:	000003f0 	strdeq	r0, [r0], -r0	; <UNPREDICTABLE>
     8d4:	4c018801 	stcmi	8, cr8, [r1], {1}
     8d8:	d8000000 	stmdale	r0, {}	; <UNPREDICTABLE>
     8dc:	50f00003 	rscspl	r0, r0, r3
     8e0:	02f00004 	rscseq	r0, r0, #4
     8e4:	0314007d 	tsteq	r4, #125	; 0x7d
     8e8:	63170000 	tstvs	r7, #0
     8ec:	88010073 	stmdahi	r1, {r0, r1, r4, r5, r6}
     8f0:	000000cb 	andeq	r0, r0, fp, asr #1
     8f4:	000003ca 	andeq	r0, r0, sl, asr #7
     8f8:	00746317 	rsbseq	r6, r4, r7, lsl r3
     8fc:	00cb8801 	sbceq	r8, fp, r1, lsl #16
     900:	03f70000 	mvnseq	r0, #0
     904:	23150000 	tstcs	r5, #0
     908:	0100000e 	tsteq	r0, lr
     90c:	00006888 	andeq	r6, r0, r8, lsl #17
     910:	00042400 	andeq	r2, r4, r0, lsl #8
     914:	31631600 	cmncc	r3, r0, lsl #12
     918:	2c8a0100 	stfcss	f0, [sl], {0}
     91c:	37000000 	strcc	r0, [r0, -r0]
     920:	16000004 	strne	r0, [r0], -r4
     924:	01003263 	tsteq	r0, r3, ror #4
     928:	00002c8a 	andeq	r2, r0, sl, lsl #25
     92c:	00046000 	andeq	r6, r4, r0
     930:	01190000 	tsteq	r9, r0
     934:	000003a7 	andeq	r0, r0, r7, lsr #7
     938:	1101a101 	tstne	r1, r1, lsl #2
     93c:	50000001 	andpl	r0, r0, r1
     940:	34f00004 	ldrbtcc	r0, [r0], #4
     944:	89f00005 	ldmibhi	r0!, {r0, r2}^
     948:	a5000004 	strge	r0, [r0, #-4]
     94c:	15000003 	strne	r0, [r0, #-3]
     950:	00001891 	muleq	r0, r1, r8
     954:	004ca101 	subeq	sl, ip, r1, lsl #2
     958:	04b60000 	ldrteq	r0, [r6], #0
     95c:	5e150000 	cdppl	0, 1, cr0, cr5, cr0, {0}
     960:	01000003 	tsteq	r0, r3
     964:	000111a1 	andeq	r1, r1, r1, lsr #3
     968:	0004ea00 	andeq	lr, r4, r0, lsl #20
     96c:	03ff1500 	mvnseq	r1, #0
     970:	a1010000 	mrsge	r0, (UNDEF: 1)
     974:	0000004c 	andeq	r0, r0, ip, asr #32
     978:	00000508 	andeq	r0, r0, r8, lsl #10
     97c:	0003651a 	andeq	r6, r3, sl, lsl r5
     980:	a5a30100 	strge	r0, [r3, #256]!	; 0x100
     984:	02000003 	andeq	r0, r0, #3
     988:	241b5091 	ldrcs	r5, [fp], #-145	; 0x91
     98c:	01000004 	tsteq	r0, r4
     990:	00004ca4 	andeq	r4, r0, r4, lsr #25
     994:	00052600 	andeq	r2, r5, r0, lsl #12
     998:	00691600 	rsbeq	r1, r9, r0, lsl #12
     99c:	004ca501 	subeq	sl, ip, r1, lsl #10
     9a0:	05510000 	ldrbeq	r0, [r1, #-0]
     9a4:	6a160000 	bvs	5809ac <__dram_freq_start+0x5809ac>
     9a8:	4ca60100 	stfmis	f0, [r6]
     9ac:	86000000 	strhi	r0, [r0], -r0
     9b0:	1a000005 	bne	9cc <__dram_freq_start+0x9cc>
     9b4:	00000358 	andeq	r0, r0, r8, asr r3
     9b8:	03b5a701 			; <UNDEFINED> instruction: 0x03b5a701
     9bc:	91030000 	mrsls	r0, (UNDEF: 3)
     9c0:	1c007fbc 	stcne	15, cr7, [r0], {188}	; 0xbc
     9c4:	000000d6 	ldrdeq	r0, [r0], -r6
     9c8:	000003b5 			; <UNDEFINED> instruction: 0x000003b5
     9cc:	0000531d 	andeq	r5, r0, sp, lsl r3
     9d0:	1c000f00 	stcne	15, cr0, [r0], {-0}
     9d4:	000000d6 	ldrdeq	r0, [r0], -r6
     9d8:	000003c5 	andeq	r0, r0, r5, asr #7
     9dc:	0000531d 	andeq	r5, r0, sp, lsl r3
     9e0:	19001000 	stmdbne	r0, {ip}
     9e4:	0003eb01 	andeq	lr, r3, r1, lsl #22
     9e8:	01d00100 	bicseq	r0, r0, r0, lsl #2
     9ec:	00000111 	andeq	r0, r0, r1, lsl r1
     9f0:	f0000534 			; <UNDEFINED> instruction: 0xf0000534
     9f4:	f00005f0 			; <UNDEFINED> instruction: 0xf00005f0
     9f8:	000005a5 	andeq	r0, r0, r5, lsr #11
     9fc:	00000447 	andeq	r0, r0, r7, asr #8
     a00:	00189115 	andseq	r9, r8, r5, lsl r1
     a04:	53d00100 	bicspl	r0, r0, #0
     a08:	d2000000 	andle	r0, r0, #0
     a0c:	15000005 	strne	r0, [r0, #-5]
     a10:	0000035e 	andeq	r0, r0, lr, asr r3
     a14:	0111d001 	tsteq	r1, r1
     a18:	06060000 	streq	r0, [r6], -r0
     a1c:	ff150000 			; <UNDEFINED> instruction: 0xff150000
     a20:	01000003 	tsteq	r0, r3
     a24:	00004cd0 	ldrdeq	r4, [r0], -r0
     a28:	00062400 	andeq	r2, r6, r0, lsl #8
     a2c:	03651a00 	cmneq	r5, #0
     a30:	d2010000 	andle	r0, r1, #0
     a34:	000003a5 	andeq	r0, r0, r5, lsr #7
     a38:	16509102 	ldrbne	r9, [r0], -r2, lsl #2
     a3c:	d3010069 	movwle	r0, #4201	; 0x1069
     a40:	0000004c 	andeq	r0, r0, ip, asr #32
     a44:	00000642 	andeq	r0, r0, r2, asr #12
     a48:	01006a16 	tsteq	r0, r6, lsl sl
     a4c:	00004cd4 	ldrdeq	r4, [r0], -r4	; <UNPREDICTABLE>
     a50:	00066b00 	andeq	r6, r6, r0, lsl #22
     a54:	03581a00 	cmpeq	r8, #0
     a58:	d5010000 	strle	r0, [r1, #-0]
     a5c:	000003b5 			; <UNDEFINED> instruction: 0x000003b5
     a60:	7fbc9103 	svcvc	0x00bc9103
     a64:	94011e00 	strls	r1, [r1], #-3584	; 0xe00
     a68:	01000003 	tsteq	r0, r3
     a6c:	41010171 	tstmi	r1, r1, ror r1
     a70:	f0000000 			; <UNDEFINED> instruction: 0xf0000000
     a74:	4cf00005 	ldclmi	0, cr0, [r0], #20
     a78:	7ff00006 	svcvc	0x00f00006
     a7c:	a5000006 	strge	r0, [r0, #-6]
     a80:	1f000004 	svcne	0x00000004
     a84:	0000035e 	andeq	r0, r0, lr, asr r3
     a88:	11017101 	tstne	r1, r1, lsl #2
     a8c:	ab000001 	blge	a98 <__dram_freq_start+0xa98>
     a90:	20000006 	andcs	r0, r0, r6
     a94:	006e656c 	rsbeq	r6, lr, ip, ror #10
     a98:	41017101 	tstmi	r1, r1, lsl #2
     a9c:	c9000000 	stmdbgt	r0, {}	; <UNPREDICTABLE>
     aa0:	1f000006 	svcne	0x00000006
     aa4:	0000039a 	muleq	r0, sl, r3
     aa8:	41017101 	tstmi	r1, r1, lsl #2
     aac:	dc000000 	stcle	0, cr0, [r0], {-0}
     ab0:	21000006 	tstcs	r0, r6
     ab4:	000003dc 	ldrdeq	r0, [r0], -ip
     ab8:	b5017501 	strlt	r7, [r1, #-1281]	; 0x501
     abc:	02000003 	andeq	r0, r0, #3
     ac0:	1e005491 	mcrne	4, 0, r5, cr0, cr1, {4}
     ac4:	0003f801 	andeq	pc, r3, r1, lsl #16
     ac8:	01070100 	mrseq	r0, (UNDEF: 23)
     acc:	00004101 	andeq	r4, r0, r1, lsl #2
     ad0:	00064c00 	andeq	r4, r6, r0, lsl #24
     ad4:	00093cf0 	strdeq	r3, [r9], -r0
     ad8:	0006faf0 	strdeq	pc, [r6], -r0
     adc:	00072c00 	andeq	r2, r7, r0, lsl #24
     ae0:	03c91f00 	biceq	r1, r9, #0
     ae4:	07010000 	streq	r0, [r1, -r0]
     ae8:	0000cb01 	andeq	ip, r0, r1, lsl #22
     aec:	00073300 	andeq	r3, r7, r0, lsl #6
     af0:	53212200 	teqpl	r1, #0
     af4:	01000003 	tsteq	r0, r3
     af8:	009a0109 	addseq	r0, sl, r9, lsl #2
     afc:	91020000 	mrsls	r0, (UNDEF: 2)
     b00:	035e214c 	cmpeq	lr, #19
     b04:	0a010000 	beq	40b0c <__dram_freq_start+0x40b0c>
     b08:	0003a501 	andeq	sl, r3, r1, lsl #10
     b0c:	bc910300 	ldclt	3, cr0, [r1], {0}
     b10:	03bb237f 			; <UNDEFINED> instruction: 0x03bb237f
     b14:	0b010000 	bleq	40b1c <__dram_freq_start+0x40b1c>
     b18:	00011101 	andeq	r1, r1, r1, lsl #2
     b1c:	00078200 	andeq	r8, r7, r0, lsl #4
     b20:	03472300 	movteq	r2, #29440	; 0x7300
     b24:	0c010000 	stceq	0, cr0, [r1], {-0}
     b28:	00011101 	andeq	r1, r1, r1, lsl #2
     b2c:	0007f400 	andeq	pc, r7, r0, lsl #8
     b30:	039a2300 	orrseq	r2, sl, #0
     b34:	0d010000 	stceq	0, cr0, [r1, #-0]
     b38:	00004101 	andeq	r4, r0, r1, lsl #2
     b3c:	00080a00 	andeq	r0, r8, r0, lsl #20
     b40:	656c2400 	strbvs	r2, [ip, #-1024]!	; 0x400
     b44:	0e01006e 	cdpeq	0, 0, cr0, cr1, cr14, {3}
     b48:	00004101 	andeq	r4, r0, r1, lsl #2
     b4c:	00082800 	andeq	r2, r8, r0, lsl #16
     b50:	00982500 	addseq	r2, r8, r0, lsl #10
     b54:	05b80000 	ldreq	r0, [r8, #0]!
     b58:	01260000 	teqeq	r6, r0
     b5c:	00000394 	muleq	r0, r4, r3
     b60:	4c012f01 	stcmi	15, cr2, [r1], {1}
     b64:	01000000 	mrseq	r0, (UNDEF: 0)
     b68:	00000550 	andeq	r0, r0, r0, asr r5
     b6c:	a5270022 	strge	r0, [r7, #-34]!	; 0x22
     b70:	84000000 	strhi	r0, [r0], #-0
     b74:	a4f00007 	ldrbtge	r0, [r0], #7
     b78:	01f00007 	mvnseq	r0, r7
     b7c:	05810143 	streq	r0, [r1, #323]	; 0x143
     b80:	b70f0000 	strlt	r0, [pc, -r0]
     b84:	8a000000 	bhi	b8c <__dram_freq_start+0xb8c>
     b88:	28000008 	stmdacs	r0, {r3}
     b8c:	f0000784 			; <UNDEFINED> instruction: 0xf0000784
     b90:	f00007a4 			; <UNDEFINED> instruction: 0xf00007a4
     b94:	0000c010 	andeq	ip, r0, r0, lsl r0
     b98:	00089d00 	andeq	r9, r8, r0, lsl #26
     b9c:	29000000 	stmdbcs	r0, {}	; <UNPREDICTABLE>
     ba0:	000000dd 	ldrdeq	r0, [r0], -sp
     ba4:	f00007c0 			; <UNDEFINED> instruction: 0xf00007c0
     ba8:	f00007d0 			; <UNDEFINED> instruction: 0xf00007d0
     bac:	0f014501 	svceq	0x00014501
     bb0:	000000fa 	strdeq	r0, [r0], -sl
     bb4:	000008c8 	andeq	r0, r0, r8, asr #17
     bb8:	0000ef0f 	andeq	lr, r0, pc, lsl #30
     bbc:	0008db00 	andeq	sp, r8, r0, lsl #22
     bc0:	07c02800 	strbeq	r2, [r0, r0, lsl #16]
     bc4:	07d0f000 	ldrbeq	pc, [r0, r0]	; <UNPREDICTABLE>
     bc8:	0510f000 	ldreq	pc, [r0, #-0]
     bcc:	f9000001 			; <UNDEFINED> instruction: 0xf9000001
     bd0:	00000008 	andeq	r0, r0, r8
     bd4:	dd270000 	stcle	0, cr0, [r7, #-0]
     bd8:	f0000000 			; <UNDEFINED> instruction: 0xf0000000
     bdc:	00f00007 	rscseq	r0, r0, r7
     be0:	01f00008 	mvnseq	r0, r8
     be4:	05f20153 	ldrbeq	r0, [r2, #339]!	; 0x153
     be8:	fa0f0000 	blx	3c0bf0 <__dram_freq_start+0x3c0bf0>
     bec:	0c000000 	stceq	0, cr0, [r0], {-0}
     bf0:	0f000009 	svceq	0x00000009
     bf4:	000000ef 	andeq	r0, r0, pc, ror #1
     bf8:	00000922 	andeq	r0, r0, r2, lsr #18
     bfc:	0007f028 	andeq	pc, r7, r8, lsr #32
     c00:	000800f0 	strdeq	r0, [r8], -r0	; <UNPREDICTABLE>
     c04:	010510f0 	strdeq	r1, [r5, -r0]
     c08:	09400000 	stmdbeq	r0, {}^	; <UNPREDICTABLE>
     c0c:	00000000 	andeq	r0, r0, r0
     c10:	0000a527 	andeq	sl, r0, r7, lsr #10
     c14:	00080000 	andeq	r0, r8, r0
     c18:	000820f0 	strdeq	r2, [r8], -r0
     c1c:	015401f0 	ldrsheq	r0, [r4, #-16]
     c20:	0000061f 	andeq	r0, r0, pc, lsl r6
     c24:	0000b72a 	andeq	fp, r0, sl, lsr #14
     c28:	08002800 	stmdaeq	r0, {fp, sp}
     c2c:	0820f000 	stmdaeq	r0!, {ip, sp, lr, pc}
     c30:	c010f000 	andsgt	pc, r0, r0
     c34:	53000000 	movwpl	r0, #0
     c38:	00000009 	andeq	r0, r0, r9
     c3c:	08282b00 	stmdaeq	r8!, {r8, r9, fp, sp}
     c40:	0890f000 	ldmeq	r0, {ip, sp, lr, pc}
     c44:	06a8f000 	strteq	pc, [r8], r0
     c48:	01260000 	teqeq	r6, r0
     c4c:	00000394 	muleq	r0, r4, r3
     c50:	4c012f01 	stcmi	15, cr2, [r1], {1}
     c54:	01000000 	mrseq	r0, (UNDEF: 0)
     c58:	00000640 	andeq	r0, r0, r0, asr #12
     c5c:	a5270022 	strge	r0, [r7, #-34]!	; 0x22
     c60:	44000000 	strmi	r0, [r0], #-0
     c64:	64f00008 	ldrbtvs	r0, [r0], #8
     c68:	01f00008 	mvnseq	r0, r8
     c6c:	06710139 			; <UNDEFINED> instruction: 0x06710139
     c70:	b70f0000 	strlt	r0, [pc, -r0]
     c74:	81000000 	mrshi	r0, (UNDEF: 0)
     c78:	28000009 	stmdacs	r0, {r0, r3}
     c7c:	f0000844 			; <UNDEFINED> instruction: 0xf0000844
     c80:	f0000864 			; <UNDEFINED> instruction: 0xf0000864
     c84:	0000c010 	andeq	ip, r0, r0, lsl r0
     c88:	00099400 	andeq	r9, r9, r0, lsl #8
     c8c:	29000000 	stmdbcs	r0, {}	; <UNPREDICTABLE>
     c90:	000000dd 	ldrdeq	r0, [r0], -sp
     c94:	f0000880 			; <UNDEFINED> instruction: 0xf0000880
     c98:	f0000890 			; <UNDEFINED> instruction: 0xf0000890
     c9c:	0f013b01 	svceq	0x00013b01
     ca0:	000000fa 	strdeq	r0, [r0], -sl
     ca4:	000009bf 			; <UNDEFINED> instruction: 0x000009bf
     ca8:	0000ef0f 	andeq	lr, r0, pc, lsl #30
     cac:	0009d200 	andeq	sp, r9, r0, lsl #4
     cb0:	08802800 	stmeq	r0, {fp, sp}
     cb4:	0890f000 	ldmeq	r0, {ip, sp, lr, pc}
     cb8:	0510f000 	ldreq	pc, [r0, #-0]
     cbc:	f0000001 			; <UNDEFINED> instruction: 0xf0000001
     cc0:	00000009 	andeq	r0, r0, r9
     cc4:	c4280000 	strtgt	r0, [r8], #-0
     cc8:	2cf00008 	ldclcs	0, cr0, [r0], #32
     ccc:	26f00009 	ldrbtcs	r0, [r0], r9
     cd0:	00039401 	andeq	r9, r3, r1, lsl #8
     cd4:	012f0100 	teqeq	pc, r0, lsl #2
     cd8:	0000004c 	andeq	r0, r0, ip, asr #32
     cdc:	0006c501 	andeq	ip, r6, r1, lsl #10
     ce0:	27002200 	strcs	r2, [r0, -r0, lsl #4]
     ce4:	000000a5 	andeq	r0, r0, r5, lsr #1
     ce8:	f00008e0 			; <UNDEFINED> instruction: 0xf00008e0
     cec:	f0000900 			; <UNDEFINED> instruction: 0xf0000900
     cf0:	f4012e01 			; <UNDEFINED> instruction: 0xf4012e01
     cf4:	2c000006 	stccs	0, cr0, [r0], {6}
     cf8:	000000b7 	strheq	r0, [r0], -r7
     cfc:	e0285601 	eor	r5, r8, r1, lsl #12
     d00:	00f00008 	rscseq	r0, r0, r8
     d04:	10f00009 	rscsne	r0, r0, r9
     d08:	000000c0 	andeq	r0, r0, r0, asr #1
     d0c:	00000a03 	andeq	r0, r0, r3, lsl #20
     d10:	dd290000 	stcle	0, cr0, [r9, #-0]
     d14:	1c000000 	stcne	0, cr0, [r0], {-0}
     d18:	2cf00009 	ldclcs	0, cr0, [r0], #36	; 0x24
     d1c:	01f00009 	mvnseq	r0, r9
     d20:	fa0f0130 	blx	3c11e8 <__dram_freq_start+0x3c11e8>
     d24:	2e000000 	cdpcs	0, 0, cr0, cr0, cr0, {0}
     d28:	0f00000a 	svceq	0x0000000a
     d2c:	000000ef 	andeq	r0, r0, pc, ror #1
     d30:	00000a41 	andeq	r0, r0, r1, asr #20
     d34:	00091c28 	andeq	r1, r9, r8, lsr #24
     d38:	00092cf0 	strdeq	r2, [r9], -r0
     d3c:	010510f0 	strdeq	r1, [r5, -r0]
     d40:	0a5f0000 	beq	17c0d48 <__dram_freq_start+0x17c0d48>
     d44:	00000000 	andeq	r0, r0, r0
     d48:	011e0000 	tsteq	lr, r0
     d4c:	00000417 	andeq	r0, r0, r7, lsl r4
     d50:	01018001 	tsteq	r1, r1
     d54:	00000041 	andeq	r0, r0, r1, asr #32
     d58:	f000093c 			; <UNDEFINED> instruction: 0xf000093c
     d5c:	f0000c10 			; <UNDEFINED> instruction: 0xf0000c10
     d60:	00000a72 	andeq	r0, r0, r2, ror sl
     d64:	0000095d 	andeq	r0, r0, sp, asr r9
     d68:	0003c91f 	andeq	ip, r3, pc, lsl r9
     d6c:	01800100 	orreq	r0, r0, r0, lsl #2
     d70:	000000cb 	andeq	r0, r0, fp, asr #1
     d74:	00000aab 	andeq	r0, r0, fp, lsr #21
     d78:	03532122 	cmpeq	r3, #-2147483640	; 0x80000008
     d7c:	82010000 	andhi	r0, r1, #0
     d80:	00009a01 	andeq	r9, r0, r1, lsl #20
     d84:	4c910200 	lfmmi	f0, 4, [r1], {0}
     d88:	00035e21 	andeq	r5, r3, r1, lsr #28
     d8c:	01830100 	orreq	r0, r3, r0, lsl #2
     d90:	000003a5 	andeq	r0, r0, r5, lsr #7
     d94:	7fbc9103 	svcvc	0x00bc9103
     d98:	0003bb23 	andeq	fp, r3, r3, lsr #22
     d9c:	01840100 	orreq	r0, r4, r0, lsl #2
     da0:	00000111 	andeq	r0, r0, r1, lsl r1
     da4:	00000aee 	andeq	r0, r0, lr, ror #21
     da8:	00034723 	andeq	r4, r3, r3, lsr #14
     dac:	01850100 	orreq	r0, r5, r0, lsl #2
     db0:	00000111 	andeq	r0, r0, r1, lsl r1
     db4:	00000b60 	andeq	r0, r0, r0, ror #22
     db8:	00039a23 	andeq	r9, r3, r3, lsr #20
     dbc:	01860100 	orreq	r0, r6, r0, lsl #2
     dc0:	00000041 	andeq	r0, r0, r1, asr #32
     dc4:	00000b76 	andeq	r0, r0, r6, ror fp
     dc8:	6e656c24 	cdpvs	12, 6, cr6, cr5, cr4, {1}
     dcc:	01870100 	orreq	r0, r7, r0, lsl #2
     dd0:	00000041 	andeq	r0, r0, r1, asr #32
     dd4:	00000b94 	muleq	r0, r4, fp
     dd8:	0000a527 	andeq	sl, r0, r7, lsr #10
     ddc:	000a5c00 	andeq	r5, sl, r0, lsl #24
     de0:	000a7cf0 	strdeq	r7, [sl], -r0
     de4:	01b801f0 			; <UNDEFINED> instruction: 0x01b801f0
     de8:	000007eb 	andeq	r0, r0, fp, ror #15
     dec:	0000b70f 	andeq	fp, r0, pc, lsl #14
     df0:	000bea00 	andeq	lr, fp, r0, lsl #20
     df4:	0a5c2800 	beq	170adfc <__dram_freq_start+0x170adfc>
     df8:	0a7cf000 	beq	1f3ce00 <__dram_freq_start+0x1f3ce00>
     dfc:	c010f000 	andsgt	pc, r0, r0
     e00:	fd000000 	stc2	0, cr0, [r0, #-0]
     e04:	0000000b 	andeq	r0, r0, fp
     e08:	00dd2700 	sbcseq	r2, sp, r0, lsl #14
     e0c:	0a980000 	beq	fe600e14 <__bss_end+0xe5fdcdc>
     e10:	0aa8f000 	beq	fea3ce18 <__bss_end+0xea39ce0>
     e14:	ba01f000 	blt	7ce1c <__dram_freq_start+0x7ce1c>
     e18:	00082501 	andeq	r2, r8, r1, lsl #10
     e1c:	00fa0f00 	rscseq	r0, sl, r0, lsl #30
     e20:	0c280000 	stceq	0, cr0, [r8], #-0
     e24:	ef0f0000 	svc	0x000f0000
     e28:	3b000000 	blcc	e30 <__dram_freq_start+0xe30>
     e2c:	2800000c 	stmdacs	r0, {r2, r3}
     e30:	f0000a98 			; <UNDEFINED> instruction: 0xf0000a98
     e34:	f0000aa8 			; <UNDEFINED> instruction: 0xf0000aa8
     e38:	00010510 	andeq	r0, r1, r0, lsl r5
     e3c:	000c5900 	andeq	r5, ip, r0, lsl #18
     e40:	27000000 	strcs	r0, [r0, -r0]
     e44:	000000dd 	ldrdeq	r0, [r0], -sp
     e48:	f0000ac8 			; <UNDEFINED> instruction: 0xf0000ac8
     e4c:	f0000ad8 			; <UNDEFINED> instruction: 0xf0000ad8
     e50:	5f01c801 	svcpl	0x0001c801
     e54:	0f000008 	svceq	0x00000008
     e58:	000000fa 	strdeq	r0, [r0], -sl
     e5c:	00000c6c 	andeq	r0, r0, ip, ror #24
     e60:	0000ef0f 	andeq	lr, r0, pc, lsl #30
     e64:	000c8200 	andeq	r8, ip, r0, lsl #4
     e68:	0ac82800 	beq	ff20ae70 <__bss_end+0xf207d38>
     e6c:	0ad8f000 	beq	ff63ce74 <__bss_end+0xf639d3c>
     e70:	0510f000 	ldreq	pc, [r0, #-0]
     e74:	a0000001 	andge	r0, r0, r1
     e78:	0000000c 	andeq	r0, r0, ip
     e7c:	00a52700 	adceq	r2, r5, r0, lsl #14
     e80:	0ad80000 	beq	ff600e88 <__bss_end+0xf5fdd50>
     e84:	0af8f000 	beq	ffe3ce8c <__bss_end+0xfe39d54>
     e88:	c901f000 	stmdbgt	r1, {ip, sp, lr, pc}
     e8c:	00088c01 	andeq	r8, r8, r1, lsl #24
     e90:	00b72a00 	adcseq	r2, r7, r0, lsl #20
     e94:	d8280000 	stmdale	r8!, {}	; <UNPREDICTABLE>
     e98:	f8f0000a 			; <UNDEFINED> instruction: 0xf8f0000a
     e9c:	10f0000a 	rscsne	r0, r0, sl
     ea0:	000000c0 	andeq	r0, r0, r0, asr #1
     ea4:	00000cb3 			; <UNDEFINED> instruction: 0x00000cb3
     ea8:	a5270000 	strge	r0, [r7, #-0]!
     eac:	1c000000 	stcne	0, cr0, [r0], {-0}
     eb0:	3cf0000b 	ldclcc	0, cr0, [r0], #44	; 0x2c
     eb4:	01f0000b 	mvnseq	r0, fp
     eb8:	08bd01ae 	popeq	{r1, r2, r3, r5, r7, r8}
     ebc:	b70f0000 	strlt	r0, [pc, -r0]
     ec0:	e1000000 	mrs	r0, (UNDEF: 0)
     ec4:	2800000c 	stmdacs	r0, {r2, r3}
     ec8:	f0000b1c 			; <UNDEFINED> instruction: 0xf0000b1c
     ecc:	f0000b3c 			; <UNDEFINED> instruction: 0xf0000b3c
     ed0:	0000c010 	andeq	ip, r0, r0, lsl r0
     ed4:	000cf400 	andeq	pc, ip, r0, lsl #8
     ed8:	27000000 	strcs	r0, [r0, -r0]
     edc:	000000dd 	ldrdeq	r0, [r0], -sp
     ee0:	f0000b58 			; <UNDEFINED> instruction: 0xf0000b58
     ee4:	f0000b68 			; <UNDEFINED> instruction: 0xf0000b68
     ee8:	f701b001 			; <UNDEFINED> instruction: 0xf701b001
     eec:	0f000008 	svceq	0x00000008
     ef0:	000000fa 	strdeq	r0, [r0], -sl
     ef4:	00000d1f 	andeq	r0, r0, pc, lsl sp
     ef8:	0000ef0f 	andeq	lr, r0, pc, lsl #30
     efc:	000d3200 	andeq	r3, sp, r0, lsl #4
     f00:	0b582800 	bleq	160af08 <__dram_freq_start+0x160af08>
     f04:	0b68f000 	bleq	1a3cf0c <__dram_freq_start+0x1a3cf0c>
     f08:	0510f000 	ldreq	pc, [r0, #-0]
     f0c:	50000001 	andpl	r0, r0, r1
     f10:	0000000d 	andeq	r0, r0, sp
     f14:	00a52700 	adceq	r2, r5, r0, lsl #14
     f18:	0bb80000 	bleq	fee00f20 <__bss_end+0xedfdde8>
     f1c:	0bd8f000 	bleq	ff63cf24 <__bss_end+0xf639dec>
     f20:	a301f000 	movwge	pc, #4096	; 0x1000	; <UNPREDICTABLE>
     f24:	00092601 	andeq	r2, r9, r1, lsl #12
     f28:	00b72c00 	adcseq	r2, r7, r0, lsl #24
     f2c:	56010000 	strpl	r0, [r1], -r0
     f30:	000bb828 	andeq	fp, fp, r8, lsr #16
     f34:	000bd8f0 	strdeq	sp, [fp], -r0
     f38:	00c010f0 	strdeq	r1, [r0], #0
     f3c:	0d630000 	stcleq	0, cr0, [r3, #-0]
     f40:	00000000 	andeq	r0, r0, r0
     f44:	0000dd29 	andeq	sp, r0, r9, lsr #26
     f48:	000bf400 	andeq	pc, fp, r0, lsl #8
     f4c:	000c04f0 	strdeq	r0, [ip], -r0	; <UNPREDICTABLE>
     f50:	01a501f0 	strdeq	r0, [r5, r0]!	; <UNPREDICTABLE>
     f54:	0000fa0f 	andeq	pc, r0, pc, lsl #20
     f58:	000d8e00 	andeq	r8, sp, r0, lsl #28
     f5c:	00ef0f00 	rsceq	r0, pc, r0, lsl #30
     f60:	0da10000 	stceq	0, cr0, [r1]
     f64:	f4280000 	vld4.8	{d0-d3}, [r8], r0
     f68:	04f0000b 	ldrbteq	r0, [r0], #11
     f6c:	10f0000c 	rscsne	r0, r0, ip
     f70:	00000105 	andeq	r0, r0, r5, lsl #2
     f74:	00000dbf 			; <UNDEFINED> instruction: 0x00000dbf
     f78:	2d000000 	stccs	0, cr0, [r0, #-0]
     f7c:	000001c5 	andeq	r0, r0, r5, asr #3
     f80:	4c010601 	stcmi	6, cr0, [r1], {1}
     f84:	01000000 	mrseq	r0, (UNDEF: 0)
     f88:	2f900305 	svccs	0x00900305
     f8c:	d61cf000 	ldrle	pc, [ip], -r0
     f90:	80000000 	andhi	r0, r0, r0
     f94:	1d000009 	stcne	0, cr0, [r0, #-36]	; 0xffffffdc
     f98:	00000053 	andeq	r0, r0, r3, asr r0
     f9c:	6b2d00ff 	blvs	b413a0 <__dram_freq_start+0xb413a0>
     fa0:	01000003 	tsteq	r0, r3
     fa4:	09700105 	ldmdbeq	r0!, {r0, r2, r8}^
     fa8:	05010000 	streq	r0, [r1, #-0]
     fac:	00303803 	eorseq	r3, r0, r3, lsl #16
     fb0:	00e800f0 	strdeq	r0, [r8], #0	; <UNPREDICTABLE>
     fb4:	00020000 	andeq	r0, r2, r0
     fb8:	000005ba 			; <UNDEFINED> instruction: 0x000005ba
     fbc:	00970104 	addseq	r0, r7, r4, lsl #2
     fc0:	45010000 	strmi	r0, [r1, #-0]
     fc4:	0f000004 	svceq	0x00000004
     fc8:	10000002 	andne	r0, r0, r2
     fcc:	68f0000c 	ldmvs	r0!, {r2, r3}^
     fd0:	fbf0000c 	blx	ffc0100a <__bss_end+0xfbfded2>
     fd4:	02000004 	andeq	r0, r0, #4
     fd8:	00bb0601 	adcseq	r0, fp, r1, lsl #12
     fdc:	01020000 	mrseq	r0, (UNDEF: 2)
     fe0:	0000b908 	andeq	fp, r0, r8, lsl #18
     fe4:	05020200 	streq	r0, [r2, #-512]	; 0x200
     fe8:	000001f1 	strdeq	r0, [r0], -r1
     fec:	d9070202 	stmdble	r7, {r1, r9}
     ff0:	03000000 	movweq	r0, #0
     ff4:	000002e4 	andeq	r0, r0, r4, ror #5
     ff8:	004c1202 	subeq	r1, ip, r2, lsl #4
     ffc:	04040000 	streq	r0, [r4], #-0
    1000:	746e6905 	strbtvc	r6, [lr], #-2309	; 0x905
    1004:	002d0300 	eoreq	r0, sp, r0, lsl #6
    1008:	13020000 	movwne	r0, #8192	; 0x2000
    100c:	0000005e 	andeq	r0, r0, lr, asr r0
    1010:	74070402 	strvc	r0, [r7], #-1026	; 0x402
    1014:	02000001 	andeq	r0, r0, #1
    1018:	01e30508 	mvneq	r0, r8, lsl #10
    101c:	08020000 	stmdaeq	r2, {}	; <UNPREDICTABLE>
    1020:	00016a07 	andeq	r6, r1, r7, lsl #20
    1024:	2d010500 	cfstr32cs	mvfx0, [r1, #-0]
    1028:	01000004 	tsteq	r0, r4
    102c:	0c100105 	ldfeqs	f0, [r0], {5}
    1030:	0c1cf000 	ldceq	0, cr15, [ip], {-0}
    1034:	7d02f000 	stcvc	0, cr15, [r2, #-0]
    1038:	61010600 	tstvs	r1, r0, lsl #12
    103c:	01000004 	tsteq	r0, r4
    1040:	0053010f 	subseq	r0, r3, pc, lsl #2
    1044:	0c1c0000 	ldceq	0, cr0, [ip], {-0}
    1048:	0c68f000 	stcleq	0, cr15, [r8], #-0
    104c:	7d02f000 	stcvc	0, cr15, [r2, #-0]
    1050:	04580700 	ldrbeq	r0, [r8], #-1792	; 0x700
    1054:	0f010000 	svceq	0x00010000
    1058:	00000053 	andeq	r0, r0, r3, asr r0
    105c:	00000dd2 	ldrdeq	r0, [r0], -r2
    1060:	00043c07 	andeq	r3, r4, r7, lsl #24
    1064:	530f0100 	movwpl	r0, #61696	; 0xf100
    1068:	e5000000 	str	r0, [r0, #-0]
    106c:	0800000d 	stmdaeq	r0, {r0, r2, r3}
    1070:	0000046e 	andeq	r0, r0, lr, ror #8
    1074:	00531101 	subseq	r1, r3, r1, lsl #2
    1078:	0df80000 	ldcleq	0, cr0, [r8]
    107c:	34080000 	strcc	r0, [r8], #-0
    1080:	01000004 	tsteq	r0, r4
    1084:	00005312 	andeq	r5, r0, r2, lsl r3
    1088:	000e3000 	andeq	r3, lr, r0
    108c:	04750800 	ldrbteq	r0, [r5], #-2048	; 0x800
    1090:	13010000 	movwne	r0, #4096	; 0x1000
    1094:	00000041 	andeq	r0, r0, r1, asr #32
    1098:	00000e5a 	andeq	r0, r0, sl, asr lr
    109c:	007f0000 	rsbseq	r0, pc, r0
    10a0:	00020000 	andeq	r0, r2, r0
    10a4:	0000063b 	andeq	r0, r0, fp, lsr r6
    10a8:	05660104 	strbeq	r0, [r6, #-260]!	; 0x104
    10ac:	0c680000 	stcleq	0, cr0, [r8], #-0
    10b0:	0e10f000 	cdpeq	0, 1, cr15, cr0, cr0, {0}
    10b4:	2f2ef000 	svccs	0x002ef000
    10b8:	6d2f2e2e 	stcvs	14, cr2, [pc, #-184]!	; 1008 <__dram_freq_start+0x1008>
    10bc:	645f6d65 	ldrbvs	r6, [pc], #-3429	; 10c4 <__dram_freq_start+0x10c4>
    10c0:	696c7669 	stmdbvs	ip!, {r0, r3, r5, r6, r9, sl, ip, sp, lr}^
    10c4:	00532e62 	subseq	r2, r3, r2, ror #28
    10c8:	6d6f682f 	stclvs	8, cr6, [pc, #-188]!	; 1014 <__dram_freq_start+0x1014>
    10cc:	787a2f65 	ldmdavc	sl!, {r0, r2, r5, r6, r8, r9, sl, fp, sp}^
    10d0:	756e696c 	strbvc	r6, [lr, #-2412]!	; 0x96c
    10d4:	32412f78 	subcc	r2, r1, #480	; 0x1e0
    10d8:	2e342e30 	mrccs	14, 1, r2, cr4, cr0, {1}
    10dc:	57412e34 	smlaldxpl	r2, r1, r4, lr
    10e0:	63696c2f 	cmnvs	r9, #12032	; 0x2f00
    10e4:	2f656568 	svccs	0x00656568
    10e8:	756e696c 	strbvc	r6, [lr, #-2412]!	; 0x96c
    10ec:	2e332d78 	mrccs	13, 1, r2, cr3, cr8, {3}
    10f0:	72612f34 	rsbvc	r2, r1, #208	; 0xd0
    10f4:	612f6863 	teqvs	pc, r3, ror #16
    10f8:	6d2f6d72 	stcvs	13, cr6, [pc, #-456]!	; f38 <__dram_freq_start+0xf38>
    10fc:	2d686361 	stclcs	3, cr6, [r8, #-388]!	; 0xfffffe7c
    1100:	376e7573 			; <UNDEFINED> instruction: 0x376e7573
    1104:	6d702f69 	ldclvs	15, cr2, [r0, #-420]!	; 0xfffffe5c
    1108:	6172642f 	cmnvs	r2, pc, lsr #8
    110c:	72662d6d 	rsbvc	r2, r6, #6976	; 0x1b40
    1110:	47007165 	strmi	r7, [r0, -r5, ror #2]
    1114:	4120554e 	teqmi	r0, lr, asr #10
    1118:	2e322053 	mrccs	0, 1, r2, cr2, cr3, {2}
    111c:	01003232 	tsteq	r0, r2, lsr r2
    1120:	00007e80 	andeq	r7, r0, r0, lsl #29
    1124:	4f000200 	svcmi	0x00000200
    1128:	04000006 	streq	r0, [r0], #-6
    112c:	0005e701 	andeq	lr, r5, r1, lsl #14
    1130:	000e1000 	andeq	r1, lr, r0
    1134:	000e38f0 	strdeq	r3, [lr], -r0
    1138:	2e2f2ef0 	mcrcs	14, 1, r2, cr15, cr0, {7}
    113c:	656d2f2e 	strbvs	r2, [sp, #-3886]!	; 0xf2e
    1140:	65645f6d 	strbvs	r5, [r4, #-3949]!	; 0xf6d
    1144:	2e79616c 	rpwcsez	f6, f1, #4.0
    1148:	682f0053 	stmdavs	pc!, {r0, r1, r4, r6}	; <UNPREDICTABLE>
    114c:	2f656d6f 	svccs	0x00656d6f
    1150:	696c787a 	stmdbvs	ip!, {r1, r3, r4, r5, r6, fp, ip, sp, lr}^
    1154:	2f78756e 	svccs	0x0078756e
    1158:	2e303241 	cdpcs	2, 3, cr3, cr0, cr1, {2}
    115c:	2e342e34 	mrccs	14, 1, r2, cr4, cr4, {1}
    1160:	6c2f5741 	stcvs	7, cr5, [pc], #-260	; 1064 <__dram_freq_start+0x1064>
    1164:	65686369 	strbvs	r6, [r8, #-873]!	; 0x369
    1168:	696c2f65 	stmdbvs	ip!, {r0, r2, r5, r6, r8, r9, sl, fp, sp}^
    116c:	2d78756e 	cfldr64cs	mvdx7, [r8, #-440]!	; 0xfffffe48
    1170:	2f342e33 	svccs	0x00342e33
    1174:	68637261 	stmdavs	r3!, {r0, r5, r6, r9, ip, sp, lr}^
    1178:	6d72612f 	ldfvse	f6, [r2, #-188]!	; 0xffffff44
    117c:	63616d2f 	cmnvs	r1, #3008	; 0xbc0
    1180:	75732d68 	ldrbvc	r2, [r3, #-3432]!	; 0xd68
    1184:	2f69376e 	svccs	0x0069376e
    1188:	642f6d70 	strtvs	r6, [pc], #-3440	; 1190 <__dram_freq_start+0x1190>
    118c:	2d6d6172 	stfcse	f6, [sp, #-456]!	; 0xfffffe38
    1190:	71657266 	cmnvc	r5, r6, ror #4
    1194:	554e4700 	strbpl	r4, [lr, #-1792]	; 0x700
    1198:	20534120 	subscs	r4, r3, r0, lsr #2
    119c:	32322e32 	eorscc	r2, r2, #800	; 0x320
    11a0:	90800100 	addls	r0, r0, r0, lsl #2
    11a4:	02000027 	andeq	r0, r0, #39	; 0x27
    11a8:	00066300 	andeq	r6, r6, r0, lsl #6
    11ac:	97010400 	strls	r0, [r1, -r0, lsl #8]
    11b0:	01000000 	mrseq	r0, (UNDEF: 0)
    11b4:	000015f0 	strdeq	r1, [r0], -r0
    11b8:	0000020f 	andeq	r0, r0, pc, lsl #4
    11bc:	f0000e38 			; <UNDEFINED> instruction: 0xf0000e38
    11c0:	f0001044 			; <UNDEFINED> instruction: 0xf0001044
    11c4:	00000630 	andeq	r0, r0, r0, lsr r6
    11c8:	bb060102 	bllt	1815d8 <__dram_freq_start+0x1815d8>
    11cc:	02000000 	andeq	r0, r0, #0
    11d0:	00b90801 	adcseq	r0, r9, r1, lsl #16
    11d4:	02020000 	andeq	r0, r2, #0
    11d8:	0001f105 	andeq	pc, r1, r5, lsl #2
    11dc:	07020200 	streq	r0, [r2, -r0, lsl #4]
    11e0:	000000d9 	ldrdeq	r0, [r0], -r9
    11e4:	0002e403 	andeq	lr, r2, r3, lsl #8
    11e8:	4c120200 	lfmmi	f0, 4, [r2], {-0}
    11ec:	04000000 	streq	r0, [r0], #-0
    11f0:	6e690504 	cdpvs	5, 6, cr0, cr9, cr4, {0}
    11f4:	2d030074 	stccs	0, cr0, [r3, #-464]	; 0xfffffe30
    11f8:	02000000 	andeq	r0, r0, #0
    11fc:	00005e13 	andeq	r5, r0, r3, lsl lr
    1200:	07040200 	streq	r0, [r4, -r0, lsl #4]
    1204:	00000174 	andeq	r0, r0, r4, ror r1
    1208:	e3050802 	movw	r0, #22530	; 0x5802
    120c:	02000001 	andeq	r0, r0, #1
    1210:	016a0708 	cmneq	sl, r8, lsl #14
    1214:	38050000 	stmdacc	r5, {}	; <UNPREDICTABLE>
    1218:	04000009 	streq	r0, [r0], #-9
    121c:	00982604 	addseq	r2, r8, r4, lsl #12
    1220:	7b060000 	blvc	181228 <__dram_freq_start+0x181228>
    1224:	01000004 	tsteq	r0, r4
    1228:	000e4406 	andeq	r4, lr, r6, lsl #8
    122c:	22060200 	andcs	r0, r6, #0
    1230:	03000009 	movweq	r0, #9
    1234:	0009b806 	andeq	fp, r9, r6, lsl #16
    1238:	07000500 	streq	r0, [r0, -r0, lsl #10]
    123c:	00000053 	andeq	r0, r0, r3, asr r0
    1240:	00005308 	andeq	r5, r0, r8, lsl #6
    1244:	0000ad00 	andeq	sl, r0, r0, lsl #26
    1248:	005e0900 	subseq	r0, lr, r0, lsl #18
    124c:	00010000 	andeq	r0, r1, r0
    1250:	000ee80a 	andeq	lr, lr, sl, lsl #16
    1254:	18030400 	stmdane	r3, {sl}
    1258:	000001a8 	andeq	r0, r0, r8, lsr #3
    125c:	00088f0b 	andeq	r8, r8, fp, lsl #30
    1260:	53190300 	tstpl	r9, #0
    1264:	04000000 	streq	r0, [r0], #-0
    1268:	23021e02 	movwcs	r1, #11778	; 0x2e02
    126c:	0d020b00 	vstreq	d0, [r2, #-0]
    1270:	1a030000 	bne	c1278 <__dram_freq_start+0xc1278>
    1274:	00000053 	andeq	r0, r0, r3, asr r0
    1278:	021d0104 	andseq	r0, sp, #1
    127c:	8d0b0023 	stchi	0, cr0, [fp, #-140]	; 0xffffff74
    1280:	03000011 	movweq	r0, #17
    1284:	0000531b 	andeq	r5, r0, fp, lsl r3
    1288:	1c010400 	cfstrsne	mvf0, [r1], {-0}
    128c:	0b002302 	bleq	9e9c <__dram_freq_start+0x9e9c>
    1290:	00000887 	andeq	r0, r0, r7, lsl #17
    1294:	00531c03 	subseq	r1, r3, r3, lsl #24
    1298:	02040000 	andeq	r0, r4, #0
    129c:	0023021a 	eoreq	r0, r3, sl, lsl r2
    12a0:	0012260b 	andseq	r2, r2, fp, lsl #12
    12a4:	531d0300 	tstpl	sp, #0
    12a8:	04000000 	streq	r0, [r0], #-0
    12ac:	23021802 	movwcs	r1, #10242	; 0x2802
    12b0:	08970b00 	ldmeq	r7, {r8, r9, fp}
    12b4:	1e030000 	cdpne	0, 0, cr0, cr3, cr0, {0}
    12b8:	00000053 	andeq	r0, r0, r3, asr r0
    12bc:	02130504 	andseq	r0, r3, #16777216	; 0x1000000
    12c0:	fd0b0023 	stc2	0, cr0, [fp, #-140]	; 0xffffff74
    12c4:	03000014 	movweq	r0, #20
    12c8:	0000531f 	andeq	r5, r0, pc, lsl r3
    12cc:	10030400 	andne	r0, r3, r0, lsl #8
    12d0:	0b002302 	bleq	9ee0 <__dram_freq_start+0x9ee0>
    12d4:	00000a07 	andeq	r0, r0, r7, lsl #20
    12d8:	00532003 	subseq	r2, r3, r3
    12dc:	02040000 	andeq	r0, r4, #0
    12e0:	0023020e 	eoreq	r0, r3, lr, lsl #4
    12e4:	0012300b 	andseq	r3, r2, fp
    12e8:	53210300 	teqpl	r1, #0
    12ec:	04000000 	streq	r0, [r0], #-0
    12f0:	23020c02 	movwcs	r0, #11266	; 0x2c02
    12f4:	136c0b00 	cmnne	ip, #0
    12f8:	22030000 	andcs	r0, r3, #0
    12fc:	00000053 	andeq	r0, r0, r3, asr r0
    1300:	02070504 	andeq	r0, r7, #16777216	; 0x1000000
    1304:	e90b0023 	stmdb	fp, {r0, r1, r5}
    1308:	0300000d 	movweq	r0, #13
    130c:	00005323 	andeq	r5, r0, r3, lsr #6
    1310:	06010400 	streq	r0, [r1], -r0, lsl #8
    1314:	0b002302 	bleq	9f24 <__dram_freq_start+0x9f24>
    1318:	000011bf 			; <UNDEFINED> instruction: 0x000011bf
    131c:	00532403 	subseq	r2, r3, r3, lsl #8
    1320:	04040000 	streq	r0, [r4], #-0
    1324:	00230202 	eoreq	r0, r3, r2, lsl #4
    1328:	000e620b 	andeq	r6, lr, fp, lsl #4
    132c:	53250300 	teqpl	r5, #0
    1330:	04000000 	streq	r0, [r0], #-0
    1334:	23020101 	movwcs	r0, #8449	; 0x2101
    1338:	12e40b00 	rscne	r0, r4, #0
    133c:	26030000 	strcs	r0, [r3], -r0
    1340:	00000053 	andeq	r0, r0, r3, asr r0
    1344:	02000104 	andeq	r0, r0, #1
    1348:	03000023 	movweq	r0, #35	; 0x23
    134c:	00000c14 	andeq	r0, r0, r4, lsl ip
    1350:	00ad2703 	adceq	r2, sp, r3, lsl #14
    1354:	a30a0000 	movwge	r0, #40960	; 0xa000
    1358:	0400000e 	streq	r0, [r0], #-14
    135c:	02592903 	subseq	r2, r9, #49152	; 0xc000
    1360:	470b0000 	strmi	r0, [fp, -r0]
    1364:	03000015 	movweq	r0, #21
    1368:	0000532a 	andeq	r5, r0, sl, lsr #6
    136c:	1b050400 	blne	142374 <__dram_freq_start+0x142374>
    1370:	0b002302 	bleq	9f80 <__dram_freq_start+0x9f80>
    1374:	00001226 	andeq	r1, r0, r6, lsr #4
    1378:	00532b03 	subseq	r2, r3, r3, lsl #22
    137c:	03040000 	movweq	r0, #16384	; 0x4000
    1380:	00230218 	eoreq	r0, r3, r8, lsl r2
    1384:	0008970b 	andeq	r9, r8, fp, lsl #14
    1388:	532c0300 	teqpl	ip, #0
    138c:	04000000 	streq	r0, [r0], #-0
    1390:	23021107 	movwcs	r1, #8455	; 0x2107
    1394:	12300b00 	eorsne	r0, r0, #0
    1398:	2d030000 	stccs	0, cr0, [r3, #-0]
    139c:	00000053 	andeq	r0, r0, r3, asr r0
    13a0:	02100104 	andseq	r0, r0, #1
    13a4:	6c0b0023 	stcvs	0, cr0, [fp], {35}	; 0x23
    13a8:	03000013 	movweq	r0, #19
    13ac:	0000532e 	andeq	r5, r0, lr, lsr #6
    13b0:	0b050400 	bleq	1423b8 <__dram_freq_start+0x1423b8>
    13b4:	0b002302 	bleq	9fc4 <__dram_freq_start+0x9fc4>
    13b8:	0000153f 	andeq	r1, r0, pc, lsr r5
    13bc:	00532f03 	subseq	r2, r3, r3, lsl #30
    13c0:	05040000 	streq	r0, [r4, #-0]
    13c4:	00230206 	eoreq	r0, r3, r6, lsl #4
    13c8:	0005bf0b 	andeq	fp, r5, fp, lsl #30
    13cc:	53300300 	teqpl	r0, #0
    13d0:	04000000 	streq	r0, [r0], #-0
    13d4:	23020204 	movwcs	r0, #8708	; 0x2204
    13d8:	123a0b00 	eorsne	r0, sl, #0
    13dc:	31030000 	mrscc	r0, (UNDEF: 3)
    13e0:	00000053 	andeq	r0, r0, r3, asr r0
    13e4:	02010104 	andeq	r0, r1, #1
    13e8:	e40b0023 	str	r0, [fp], #-35	; 0x23
    13ec:	03000012 	movweq	r0, #18
    13f0:	00005332 	andeq	r5, r0, r2, lsr r3
    13f4:	00010400 	andeq	r0, r1, r0, lsl #8
    13f8:	00002302 	andeq	r2, r0, r2, lsl #6
    13fc:	0009cc03 	andeq	ip, r9, r3, lsl #24
    1400:	b3330300 	teqlt	r3, #0
    1404:	0a000001 	beq	1410 <__dram_freq_start+0x1410>
    1408:	0000119c 	muleq	r0, ip, r1
    140c:	2c350304 	ldccs	3, cr0, [r5], #-16
    1410:	0b000003 	bleq	1424 <__dram_freq_start+0x1424>
    1414:	0000088f 	andeq	r0, r0, pc, lsl #17
    1418:	00533603 	subseq	r3, r3, r3, lsl #12
    141c:	07040000 	streq	r0, [r4, -r0]
    1420:	00230219 	eoreq	r0, r3, r9, lsl r2
    1424:	0012260b 	andseq	r2, r2, fp, lsl #12
    1428:	53370300 	teqpl	r7, #0
    142c:	04000000 	streq	r0, [r0], #-0
    1430:	23021801 	movwcs	r1, #10241	; 0x2801
    1434:	136c0b00 	cmnne	ip, #0
    1438:	38030000 	stmdacc	r3, {}	; <UNPREDICTABLE>
    143c:	00000053 	andeq	r0, r0, r3, asr r0
    1440:	02130504 	andseq	r0, r3, #16777216	; 0x1000000
    1444:	300b0023 	andcc	r0, fp, r3, lsr #32
    1448:	03000012 	movweq	r0, #18
    144c:	00005339 	andeq	r5, r0, r9, lsr r3
    1450:	12010400 	andne	r0, r1, #0
    1454:	0b002302 	bleq	a064 <__dram_freq_start+0xa064>
    1458:	00000df4 	strdeq	r0, [r0], -r4
    145c:	00533a03 	subseq	r3, r3, r3, lsl #20
    1460:	01040000 	mrseq	r0, (UNDEF: 4)
    1464:	00230211 	eoreq	r0, r3, r1, lsl r2
    1468:	00104a0b 	andseq	r4, r0, fp, lsl #20
    146c:	533b0300 	teqpl	fp, #0
    1470:	04000000 	streq	r0, [r0], #-0
    1474:	23021001 	movwcs	r1, #8193	; 0x2001
    1478:	11bf0b00 			; <UNDEFINED> instruction: 0x11bf0b00
    147c:	3c030000 	stccc	0, cr0, [r3], {-0}
    1480:	00000053 	andeq	r0, r0, r3, asr r0
    1484:	020b0504 	andeq	r0, fp, #16777216	; 0x1000000
    1488:	3a0b0023 	bcc	2c151c <__dram_freq_start+0x2c151c>
    148c:	03000012 	movweq	r0, #18
    1490:	0000533d 	andeq	r5, r0, sp, lsr r3
    1494:	08030400 	stmdaeq	r3, {sl}
    1498:	0b002302 	bleq	a0a8 <__dram_freq_start+0xa0a8>
    149c:	00000bc4 	andeq	r0, r0, r4, asr #23
    14a0:	00533e03 	subseq	r3, r3, r3, lsl #28
    14a4:	03040000 	movweq	r0, #16384	; 0x4000
    14a8:	00230205 	eoreq	r0, r3, r5, lsl #4
    14ac:	0012440b 	andseq	r4, r2, fp, lsl #8
    14b0:	533f0300 	teqpl	pc, #0
    14b4:	04000000 	streq	r0, [r0], #-0
    14b8:	23020104 	movwcs	r0, #8452	; 0x2104
    14bc:	12e40b00 	rscne	r0, r4, #0
    14c0:	40030000 	andmi	r0, r3, r0
    14c4:	00000053 	andeq	r0, r0, r3, asr r0
    14c8:	02000104 	andeq	r0, r0, #1
    14cc:	03000023 	movweq	r0, #35	; 0x23
    14d0:	00000f79 	andeq	r0, r0, r9, ror pc
    14d4:	02644103 	rsbeq	r4, r4, #-1073741824	; 0xc0000000
    14d8:	c20a0000 	andgt	r0, sl, #0
    14dc:	04000007 	streq	r0, [r0], #-7
    14e0:	04104303 	ldreq	r4, [r0], #-771	; 0x303
    14e4:	8f0b0000 	svchi	0x000b0000
    14e8:	03000008 	movweq	r0, #8
    14ec:	00005344 	andeq	r5, r0, r4, asr #6
    14f0:	1e020400 	cfcpysne	mvf0, mvf2
    14f4:	0b002302 	bleq	a104 <__dram_freq_start+0xa104>
    14f8:	00001226 	andeq	r1, r0, r6, lsr #4
    14fc:	00534503 	subseq	r4, r3, r3, lsl #10
    1500:	02040000 	andeq	r0, r4, #0
    1504:	0023021c 	eoreq	r0, r3, ip, lsl r2
    1508:	0008870b 	andeq	r8, r8, fp, lsl #14
    150c:	53460300 	movtpl	r0, #25344	; 0x6300
    1510:	04000000 	streq	r0, [r0], #-0
    1514:	23021a02 	movwcs	r1, #10754	; 0x2a02
    1518:	0bc40b00 	bleq	ff104120 <__bss_end+0xf100fe8>
    151c:	47030000 	strmi	r0, [r3, -r0]
    1520:	00000053 	andeq	r0, r0, r3, asr r0
    1524:	02180204 	andseq	r0, r8, #1073741824	; 0x40000000
    1528:	970b0023 	strls	r0, [fp, -r3, lsr #32]
    152c:	03000008 	movweq	r0, #8
    1530:	00005348 	andeq	r5, r0, r8, asr #6
    1534:	13050400 	movwne	r0, #21504	; 0x5400
    1538:	0b002302 	bleq	a148 <__dram_freq_start+0xa148>
    153c:	00001230 	andeq	r1, r0, r0, lsr r2
    1540:	00534903 	subseq	r4, r3, r3, lsl #18
    1544:	02040000 	andeq	r0, r4, #0
    1548:	00230211 	eoreq	r0, r3, r1, lsl r2
    154c:	0006850b 	andeq	r8, r6, fp, lsl #10
    1550:	534a0300 	movtpl	r0, #41728	; 0xa300
    1554:	04000000 	streq	r0, [r0], #-0
    1558:	23021001 	movwcs	r1, #8193	; 0x2001
    155c:	123a0b00 	eorsne	r0, sl, #0
    1560:	4b030000 	blmi	c1568 <__dram_freq_start+0xc1568>
    1564:	00000053 	andeq	r0, r0, r3, asr r0
    1568:	020c0404 	andeq	r0, ip, #67108864	; 0x4000000
    156c:	6c0b0023 	stcvs	0, cr0, [fp], {35}	; 0x23
    1570:	03000013 	movweq	r0, #19
    1574:	0000534c 	andeq	r5, r0, ip, asr #6
    1578:	07050400 	streq	r0, [r5, -r0, lsl #8]
    157c:	0b002302 	bleq	a18c <__dram_freq_start+0xa18c>
    1580:	000011bf 			; <UNDEFINED> instruction: 0x000011bf
    1584:	00534d03 	subseq	r4, r3, r3, lsl #26
    1588:	05040000 	streq	r0, [r4, #-0]
    158c:	00230202 	eoreq	r0, r3, r2, lsl #4
    1590:	000dd40b 	andeq	sp, sp, fp, lsl #8
    1594:	534e0300 	movtpl	r0, #58112	; 0xe300
    1598:	04000000 	streq	r0, [r0], #-0
    159c:	23020101 	movwcs	r0, #8449	; 0x2101
    15a0:	12e40b00 	rscne	r0, r4, #0
    15a4:	4f030000 	svcmi	0x00030000
    15a8:	00000053 	andeq	r0, r0, r3, asr r0
    15ac:	02000104 	andeq	r0, r0, #1
    15b0:	03000023 	movweq	r0, #35	; 0x23
    15b4:	000015d7 	ldrdeq	r1, [r0], -r7
    15b8:	03375003 	teqeq	r7, #3
    15bc:	a20a0000 	andge	r0, sl, #0
    15c0:	04000007 	streq	r0, [r0], #-7
    15c4:	05275203 	streq	r5, [r7, #-515]!	; 0x203
    15c8:	8f0b0000 	svchi	0x000b0000
    15cc:	03000008 	movweq	r0, #8
    15d0:	00005353 	andeq	r5, r0, r3, asr r3
    15d4:	1e020400 	cfcpysne	mvf0, mvf2
    15d8:	0b002302 	bleq	a1e8 <__dram_freq_start+0xa1e8>
    15dc:	000013e0 	andeq	r1, r0, r0, ror #7
    15e0:	00535403 	subseq	r5, r3, r3, lsl #8
    15e4:	02040000 	andeq	r0, r4, #0
    15e8:	0023021c 	eoreq	r0, r3, ip, lsl r2
    15ec:	0008870b 	andeq	r8, r8, fp, lsl #14
    15f0:	53550300 	cmppl	r5, #0
    15f4:	04000000 	streq	r0, [r0], #-0
    15f8:	23021a02 	movwcs	r1, #10754	; 0x2a02
    15fc:	12260b00 	eorne	r0, r6, #0
    1600:	56030000 	strpl	r0, [r3], -r0
    1604:	00000053 	andeq	r0, r0, r3, asr r0
    1608:	02190104 	andseq	r0, r9, #1
    160c:	d90b0023 	stmdble	fp, {r0, r1, r5}
    1610:	03000013 	movweq	r0, #19
    1614:	00005357 	andeq	r5, r0, r7, asr r3
    1618:	18010400 	stmdane	r1, {sl}
    161c:	0b002302 	bleq	a22c <__dram_freq_start+0xa22c>
    1620:	00000897 	muleq	r0, r7, r8
    1624:	00535803 	subseq	r5, r3, r3, lsl #16
    1628:	05040000 	streq	r0, [r4, #-0]
    162c:	00230213 	eoreq	r0, r3, r3, lsl r2
    1630:	0015840b 	andseq	r8, r5, fp, lsl #8
    1634:	53590300 	cmppl	r9, #0
    1638:	04000000 	streq	r0, [r0], #-0
    163c:	23021003 	movwcs	r1, #8195	; 0x2003
    1640:	089f0b00 	ldmeq	pc, {r8, r9, fp}	; <UNPREDICTABLE>
    1644:	5a030000 	bpl	c164c <__dram_freq_start+0xc164c>
    1648:	00000053 	andeq	r0, r0, r3, asr r0
    164c:	020e0204 	andeq	r0, lr, #1073741824	; 0x40000000
    1650:	850b0023 	strhi	r0, [fp, #-35]	; 0x23
    1654:	03000006 	movweq	r0, #6
    1658:	0000535b 	andeq	r5, r0, fp, asr r3
    165c:	0d010400 	cfstrseq	mvf0, [r1, #-0]
    1660:	0b002302 	bleq	a270 <__dram_freq_start+0xa270>
    1664:	000005ec 	andeq	r0, r0, ip, ror #11
    1668:	00535c03 	subseq	r5, r3, r3, lsl #24
    166c:	01040000 	mrseq	r0, (UNDEF: 4)
    1670:	0023020c 	eoreq	r0, r3, ip, lsl #4
    1674:	00136c0b 	andseq	r6, r3, fp, lsl #24
    1678:	535d0300 	cmppl	sp, #0
    167c:	04000000 	streq	r0, [r0], #-0
    1680:	23020705 	movwcs	r0, #9989	; 0x2705
    1684:	11bf0b00 			; <UNDEFINED> instruction: 0x11bf0b00
    1688:	5e030000 	cdppl	0, 0, cr0, cr3, cr0, {0}
    168c:	00000053 	andeq	r0, r0, r3, asr r0
    1690:	02030404 	andeq	r0, r3, #67108864	; 0x4000000
    1694:	f60b0023 			; <UNDEFINED> instruction: 0xf60b0023
    1698:	0300000a 	movweq	r0, #10
    169c:	0000535f 	andeq	r5, r0, pc, asr r3
    16a0:	02010400 	andeq	r0, r1, #0
    16a4:	0b002302 	bleq	a2b4 <__dram_freq_start+0xa2b4>
    16a8:	00000dd4 	ldrdeq	r0, [r0], -r4
    16ac:	00536003 	subseq	r6, r3, r3
    16b0:	01040000 	mrseq	r0, (UNDEF: 4)
    16b4:	00230201 	eoreq	r0, r3, r1, lsl #4
    16b8:	0012e40b 	andseq	lr, r2, fp, lsl #8
    16bc:	53610300 	cmnpl	r1, #0
    16c0:	04000000 	streq	r0, [r0], #-0
    16c4:	23020001 	movwcs	r0, #8193	; 0x2001
    16c8:	94030000 	strls	r0, [r3], #-0
    16cc:	03000009 	movweq	r0, #9
    16d0:	00041b62 	andeq	r1, r4, r2, ror #22
    16d4:	08a70a00 	stmiaeq	r7!, {r9, fp}
    16d8:	03040000 	movweq	r0, #16384	; 0x4000
    16dc:	00061c64 	andeq	r1, r6, r4, ror #24
    16e0:	088f0b00 	stmeq	pc, {r8, r9, fp}	; <UNPREDICTABLE>
    16e4:	65030000 	strvs	r0, [r3, #-0]
    16e8:	00000053 	andeq	r0, r0, r3, asr r0
    16ec:	021e0204 	andseq	r0, lr, #1073741824	; 0x40000000
    16f0:	260b0023 	strcs	r0, [fp], -r3, lsr #32
    16f4:	03000012 	movweq	r0, #18
    16f8:	00005366 	andeq	r5, r0, r6, ror #6
    16fc:	1c020400 	cfstrsne	mvf0, [r2], {-0}
    1700:	0b002302 	bleq	a310 <__dram_freq_start+0xa310>
    1704:	00000887 	andeq	r0, r0, r7, lsl #17
    1708:	00536703 	subseq	r6, r3, r3, lsl #14
    170c:	02040000 	andeq	r0, r4, #0
    1710:	0023021a 	eoreq	r0, r3, sl, lsl r2
    1714:	000bc40b 	andeq	ip, fp, fp, lsl #8
    1718:	53680300 	cmnpl	r8, #0
    171c:	04000000 	streq	r0, [r0], #-0
    1720:	23021802 	movwcs	r1, #10242	; 0x2802
    1724:	08970b00 	ldmeq	r7, {r8, r9, fp}
    1728:	69030000 	stmdbvs	r3, {}	; <UNPREDICTABLE>
    172c:	00000053 	andeq	r0, r0, r3, asr r0
    1730:	02130504 	andseq	r0, r3, #16777216	; 0x1000000
    1734:	300b0023 	andcc	r0, fp, r3, lsr #32
    1738:	03000012 	movweq	r0, #18
    173c:	0000536a 	andeq	r5, r0, sl, ror #6
    1740:	12010400 	andne	r0, r1, #0
    1744:	0b002302 	bleq	a354 <__dram_freq_start+0xa354>
    1748:	00000af6 	strdeq	r0, [r0], -r6
    174c:	00536b03 	subseq	r6, r3, r3, lsl #22
    1750:	01040000 	mrseq	r0, (UNDEF: 4)
    1754:	00230211 	eoreq	r0, r3, r1, lsl r2
    1758:	0006850b 	andeq	r8, r6, fp, lsl #10
    175c:	536c0300 	cmnpl	ip, #0
    1760:	04000000 	streq	r0, [r0], #-0
    1764:	23021001 	movwcs	r1, #8193	; 0x2001
    1768:	123a0b00 	eorsne	r0, sl, #0
    176c:	6d030000 	stcvs	0, cr0, [r3, #-0]
    1770:	00000053 	andeq	r0, r0, r3, asr r0
    1774:	020c0404 	andeq	r0, ip, #67108864	; 0x4000000
    1778:	6c0b0023 	stcvs	0, cr0, [fp], {35}	; 0x23
    177c:	03000013 	movweq	r0, #19
    1780:	0000536e 	andeq	r5, r0, lr, ror #6
    1784:	07050400 	streq	r0, [r5, -r0, lsl #8]
    1788:	0b002302 	bleq	a398 <__dram_freq_start+0xa398>
    178c:	000011bf 			; <UNDEFINED> instruction: 0x000011bf
    1790:	00536f03 	subseq	r6, r3, r3, lsl #30
    1794:	05040000 	streq	r0, [r4, #-0]
    1798:	00230202 	eoreq	r0, r3, r2, lsl #4
    179c:	000dd40b 	andeq	sp, sp, fp, lsl #8
    17a0:	53700300 	cmnpl	r0, #0
    17a4:	04000000 	streq	r0, [r0], #-0
    17a8:	23020101 	movwcs	r0, #8449	; 0x2101
    17ac:	12e40b00 	rscne	r0, r4, #0
    17b0:	71030000 	mrsvc	r0, (UNDEF: 3)
    17b4:	00000053 	andeq	r0, r0, r3, asr r0
    17b8:	02000104 	andeq	r0, r0, #1
    17bc:	03000023 	movweq	r0, #35	; 0x23
    17c0:	0000066a 	andeq	r0, r0, sl, ror #12
    17c4:	05327203 	ldreq	r7, [r2, #-515]!	; 0x203
    17c8:	6f0a0000 	svcvs	0x000a0000
    17cc:	04000010 	streq	r0, [r0], #-16
    17d0:	06ef7403 	strbteq	r7, [pc], r3, lsl #8
    17d4:	8f0b0000 	svchi	0x000b0000
    17d8:	03000008 	movweq	r0, #8
    17dc:	00005375 	andeq	r5, r0, r5, ror r3
    17e0:	19070400 	stmdbne	r7, {sl}
    17e4:	0b002302 	bleq	a3f4 <__dram_freq_start+0xa3f4>
    17e8:	00001226 	andeq	r1, r0, r6, lsr #4
    17ec:	00537603 	subseq	r7, r3, r3, lsl #12
    17f0:	01040000 	mrseq	r0, (UNDEF: 4)
    17f4:	00230218 	eoreq	r0, r3, r8, lsl r2
    17f8:	00136c0b 	andseq	r6, r3, fp, lsl #24
    17fc:	53770300 	cmnpl	r7, #0
    1800:	04000000 	streq	r0, [r0], #-0
    1804:	23021305 	movwcs	r1, #8965	; 0x2305
    1808:	12300b00 	eorsne	r0, r0, #0
    180c:	78030000 	stmdavc	r3, {}	; <UNPREDICTABLE>
    1810:	00000053 	andeq	r0, r0, r3, asr r0
    1814:	02120104 	andseq	r0, r2, #1
    1818:	f40b0023 	vst4.8	{d0-d3}, [fp :128], r3
    181c:	0300000d 	movweq	r0, #13
    1820:	00005379 	andeq	r5, r0, r9, ror r3
    1824:	11010400 	tstne	r1, r0, lsl #8
    1828:	0b002302 	bleq	a438 <__dram_freq_start+0xa438>
    182c:	0000104a 	andeq	r1, r0, sl, asr #32
    1830:	00537a03 	subseq	r7, r3, r3, lsl #20
    1834:	01040000 	mrseq	r0, (UNDEF: 4)
    1838:	00230210 	eoreq	r0, r3, r0, lsl r2
    183c:	0011bf0b 	andseq	fp, r1, fp, lsl #30
    1840:	537b0300 	cmnpl	fp, #0
    1844:	04000000 	streq	r0, [r0], #-0
    1848:	23020b05 	movwcs	r0, #11013	; 0x2b05
    184c:	123a0b00 	eorsne	r0, sl, #0
    1850:	7c030000 	stcvc	0, cr0, [r3], {-0}
    1854:	00000053 	andeq	r0, r0, r3, asr r0
    1858:	02080304 	andeq	r0, r8, #268435456	; 0x10000000
    185c:	c40b0023 	strgt	r0, [fp], #-35	; 0x23
    1860:	0300000b 	movweq	r0, #11
    1864:	0000537d 	andeq	r5, r0, sp, ror r3
    1868:	05030400 	streq	r0, [r3, #-1024]	; 0x400
    186c:	0b002302 	bleq	a47c <__dram_freq_start+0xa47c>
    1870:	00001244 	andeq	r1, r0, r4, asr #4
    1874:	00537e03 	subseq	r7, r3, r3, lsl #28
    1878:	04040000 	streq	r0, [r4], #-0
    187c:	00230201 	eoreq	r0, r3, r1, lsl #4
    1880:	0012e40b 	andseq	lr, r2, fp, lsl #8
    1884:	537f0300 	cmnpl	pc, #0
    1888:	04000000 	streq	r0, [r0], #-0
    188c:	23020001 	movwcs	r0, #8193	; 0x2001
    1890:	24030000 	strcs	r0, [r3], #-0
    1894:	03000010 	movweq	r0, #16
    1898:	00062780 	andeq	r2, r6, r0, lsl #15
    189c:	15bf0a00 	ldrne	r0, [pc, #2560]!	; 22a4 <__dram_freq_start+0x22a4>
    18a0:	03040000 	movweq	r0, #16384	; 0x4000
    18a4:	0007d382 	andeq	sp, r7, r2, lsl #7
    18a8:	088f0b00 	stmeq	pc, {r8, r9, fp}	; <UNPREDICTABLE>
    18ac:	83030000 	movwhi	r0, #12288	; 0x3000
    18b0:	00000053 	andeq	r0, r0, r3, asr r0
    18b4:	021e0204 	andseq	r0, lr, #1073741824	; 0x40000000
    18b8:	260b0023 	strcs	r0, [fp], -r3, lsr #32
    18bc:	03000012 	movweq	r0, #18
    18c0:	00005384 	andeq	r5, r0, r4, lsl #7
    18c4:	1c020400 	cfstrsne	mvf0, [r2], {-0}
    18c8:	0b002302 	bleq	a4d8 <__dram_freq_start+0xa4d8>
    18cc:	00000887 	andeq	r0, r0, r7, lsl #17
    18d0:	00538503 	subseq	r8, r3, r3, lsl #10
    18d4:	02040000 	andeq	r0, r4, #0
    18d8:	0023021a 	eoreq	r0, r3, sl, lsl r2
    18dc:	000bc40b 	andeq	ip, fp, fp, lsl #8
    18e0:	53860300 	orrpl	r0, r6, #0
    18e4:	04000000 	streq	r0, [r0], #-0
    18e8:	23021802 	movwcs	r1, #10242	; 0x2802
    18ec:	08970b00 	ldmeq	r7, {r8, r9, fp}
    18f0:	87030000 	strhi	r0, [r3, -r0]
    18f4:	00000053 	andeq	r0, r0, r3, asr r0
    18f8:	02130504 	andseq	r0, r3, #16777216	; 0x1000000
    18fc:	300b0023 	andcc	r0, fp, r3, lsr #32
    1900:	03000012 	movweq	r0, #18
    1904:	00005388 	andeq	r5, r0, r8, lsl #7
    1908:	11020400 	tstne	r2, r0, lsl #8
    190c:	0b002302 	bleq	a51c <__dram_freq_start+0xa51c>
    1910:	00000685 	andeq	r0, r0, r5, lsl #13
    1914:	00538903 	subseq	r8, r3, r3, lsl #18
    1918:	01040000 	mrseq	r0, (UNDEF: 4)
    191c:	00230210 	eoreq	r0, r3, r0, lsl r2
    1920:	00123a0b 	andseq	r3, r2, fp, lsl #20
    1924:	538a0300 	orrpl	r0, sl, #0
    1928:	04000000 	streq	r0, [r0], #-0
    192c:	23020c04 	movwcs	r0, #11268	; 0x2c04
    1930:	136c0b00 	cmnne	ip, #0
    1934:	8b030000 	blhi	c193c <__dram_freq_start+0xc193c>
    1938:	00000053 	andeq	r0, r0, r3, asr r0
    193c:	02070504 	andeq	r0, r7, #16777216	; 0x1000000
    1940:	bf0b0023 	svclt	0x000b0023
    1944:	03000011 	movweq	r0, #17
    1948:	0000538c 	andeq	r5, r0, ip, lsl #7
    194c:	02050400 	andeq	r0, r5, #0
    1950:	0b002302 	bleq	a560 <__dram_freq_start+0xa560>
    1954:	00000dd4 	ldrdeq	r0, [r0], -r4
    1958:	00538d03 	subseq	r8, r3, r3, lsl #26
    195c:	01040000 	mrseq	r0, (UNDEF: 4)
    1960:	00230201 	eoreq	r0, r3, r1, lsl #4
    1964:	0012e40b 	andseq	lr, r2, fp, lsl #8
    1968:	538e0300 	orrpl	r0, lr, #0
    196c:	04000000 	streq	r0, [r0], #-0
    1970:	23020001 	movwcs	r0, #8193	; 0x2001
    1974:	b4030000 	strlt	r0, [r3], #-0
    1978:	03000004 	movweq	r0, #4
    197c:	0006fa8f 	andeq	pc, r6, pc, lsl #21
    1980:	10fa0a00 	rscsne	r0, sl, r0, lsl #20
    1984:	03040000 	movweq	r0, #16384	; 0x4000
    1988:	00088494 	muleq	r8, r4, r4
    198c:	12ca0b00 	sbcne	r0, sl, #0
    1990:	95030000 	strls	r0, [r3, #-0]
    1994:	00000053 	andeq	r0, r0, r3, asr r0
    1998:	021f0104 	andseq	r0, pc, #1
    199c:	fb0b0023 	blx	2c1a32 <__dram_freq_start+0x2c1a32>
    19a0:	0300000f 	movweq	r0, #15
    19a4:	00005396 	muleq	r0, r6, r3
    19a8:	1e010400 	cfcpysne	mvf0, mvf1
    19ac:	0b002302 	bleq	a5bc <__dram_freq_start+0xa5bc>
    19b0:	00001226 	andeq	r1, r0, r6, lsr #4
    19b4:	00539703 	subseq	r9, r3, r3, lsl #14
    19b8:	0d040000 	stceq	0, cr0, [r4, #-0]
    19bc:	00230211 	eoreq	r0, r3, r1, lsl r2
    19c0:	000e990b 	andeq	r9, lr, fp, lsl #18
    19c4:	53980300 	orrspl	r0, r8, #0
    19c8:	04000000 	streq	r0, [r0], #-0
    19cc:	23021001 	movwcs	r1, #8193	; 0x2001
    19d0:	06580b00 	ldrbeq	r0, [r8], -r0, lsl #22
    19d4:	99030000 	stmdbls	r3, {}	; <UNPREDICTABLE>
    19d8:	00000053 	andeq	r0, r0, r3, asr r0
    19dc:	020f0104 	andeq	r0, pc, #1
    19e0:	090b0023 	stmdbeq	fp, {r0, r1, r5}
    19e4:	03000006 	movweq	r0, #6
    19e8:	0000539a 	muleq	r0, sl, r3
    19ec:	0e010400 	cfcpyseq	mvf0, mvf1
    19f0:	0b002302 	bleq	a600 <__dram_freq_start+0xa600>
    19f4:	000013c5 	andeq	r1, r0, r5, asr #7
    19f8:	00539b03 	subseq	r9, r3, r3, lsl #22
    19fc:	03040000 	movweq	r0, #16384	; 0x4000
    1a00:	0023020b 	eoreq	r0, r3, fp, lsl #4
    1a04:	0012300b 	andseq	r3, r2, fp
    1a08:	539c0300 	orrspl	r0, ip, #0
    1a0c:	04000000 	streq	r0, [r0], #-0
    1a10:	23020803 	movwcs	r0, #10243	; 0x2803
    1a14:	11220b00 	teqne	r2, r0, lsl #22
    1a18:	9d030000 	stcls	0, cr0, [r3, #-0]
    1a1c:	00000053 	andeq	r0, r0, r3, asr r0
    1a20:	02000804 	andeq	r0, r0, #262144	; 0x40000
    1a24:	03000023 	movweq	r0, #35	; 0x23
    1a28:	000008f7 	strdeq	r0, [r0], -r7
    1a2c:	07de9e03 	ldrbeq	r9, [lr, r3, lsl #28]
    1a30:	240a0000 	strcs	r0, [sl], #-0
    1a34:	04000013 	streq	r0, [r0], #-19
    1a38:	0957a003 	ldmdbeq	r7, {r0, r1, sp, pc}^
    1a3c:	6b0b0000 	blvs	2c1a44 <__dram_freq_start+0x2c1a44>
    1a40:	03000015 	movweq	r0, #21
    1a44:	000053a1 	andeq	r5, r0, r1, lsr #7
    1a48:	1e020400 	cfcpysne	mvf0, mvf2
    1a4c:	0b002302 	bleq	a65c <__dram_freq_start+0xa65c>
    1a50:	00001226 	andeq	r1, r0, r6, lsr #4
    1a54:	0053a203 	subseq	sl, r3, r3, lsl #4
    1a58:	02040000 	andeq	r0, r4, #0
    1a5c:	0023021c 	eoreq	r0, r3, ip, lsl r2
    1a60:	000ade0b 	andeq	sp, sl, fp, lsl #28
    1a64:	53a30300 			; <UNDEFINED> instruction: 0x53a30300
    1a68:	04000000 	streq	r0, [r0], #-0
    1a6c:	23021a02 	movwcs	r1, #10754	; 0x2a02
    1a70:	13bb0b00 			; <UNDEFINED> instruction: 0x13bb0b00
    1a74:	a4030000 	strge	r0, [r3], #-0
    1a78:	00000053 	andeq	r0, r0, r3, asr r0
    1a7c:	02180204 	andseq	r0, r8, #1073741824	; 0x40000000
    1a80:	3f0b0023 	svccc	0x000b0023
    1a84:	0300000f 	movweq	r0, #15
    1a88:	000053a5 	andeq	r5, r0, r5, lsr #7
    1a8c:	16020400 	strne	r0, [r2], -r0, lsl #8
    1a90:	0b002302 	bleq	a6a0 <__dram_freq_start+0xa6a0>
    1a94:	00001230 	andeq	r1, r0, r0, lsr r2
    1a98:	0053a603 	subseq	sl, r3, r3, lsl #12
    1a9c:	01040000 	mrseq	r0, (UNDEF: 4)
    1aa0:	00230215 	eoreq	r0, r3, r5, lsl r2
    1aa4:	0011ec0b 	andseq	lr, r1, fp, lsl #24
    1aa8:	53a70300 			; <UNDEFINED> instruction: 0x53a70300
    1aac:	04000000 	streq	r0, [r0], #-0
    1ab0:	23021302 	movwcs	r1, #8962	; 0x2302
    1ab4:	123a0b00 	eorsne	r0, sl, #0
    1ab8:	a8030000 	stmdage	r3, {}	; <UNPREDICTABLE>
    1abc:	00000053 	andeq	r0, r0, r3, asr r0
    1ac0:	02100304 	andseq	r0, r0, #268435456	; 0x10000000
    1ac4:	a40b0023 	strge	r0, [fp], #-35	; 0x23
    1ac8:	03000006 	movweq	r0, #6
    1acc:	000053a9 	andeq	r5, r0, r9, lsr #7
    1ad0:	0e020400 	cfcpyseq	mvf0, mvf2
    1ad4:	0b002302 	bleq	a6e4 <__dram_freq_start+0xa6e4>
    1ad8:	00001244 	andeq	r1, r0, r4, asr #4
    1adc:	0053aa03 	subseq	sl, r3, r3, lsl #20
    1ae0:	0d040000 	stceq	0, cr0, [r4, #-0]
    1ae4:	00230201 	eoreq	r0, r3, r1, lsl #4
    1ae8:	0006b00b 	andeq	fp, r6, fp
    1aec:	53ab0300 			; <UNDEFINED> instruction: 0x53ab0300
    1af0:	04000000 	streq	r0, [r0], #-0
    1af4:	23020001 	movwcs	r0, #8193	; 0x2001
    1af8:	78030000 	stmdavc	r3, {}	; <UNPREDICTABLE>
    1afc:	03000014 	movweq	r0, #20
    1b00:	00088fac 	andeq	r8, r8, ip, lsr #31
    1b04:	11f90a00 	mvnsne	r0, r0, lsl #20
    1b08:	03040000 	movweq	r0, #16384	; 0x4000
    1b0c:	0009d5ae 	andeq	sp, r9, lr, lsr #11
    1b10:	0f430b00 	svceq	0x00430b00
    1b14:	af030000 	svcge	0x00030000
    1b18:	00000053 	andeq	r0, r0, r3, asr r0
    1b1c:	021b0504 	andseq	r0, fp, #16777216	; 0x1000000
    1b20:	260b0023 	strcs	r0, [fp], -r3, lsr #32
    1b24:	03000012 	movweq	r0, #18
    1b28:	000053b0 			; <UNDEFINED> instruction: 0x000053b0
    1b2c:	100b0400 	andne	r0, fp, r0, lsl #8
    1b30:	0b002302 	bleq	a740 <__dram_freq_start+0xa740>
    1b34:	000005dd 	ldrdeq	r0, [r0], -sp
    1b38:	0053b103 	subseq	fp, r3, r3, lsl #2
    1b3c:	02040000 	andeq	r0, r4, #0
    1b40:	0023020e 	eoreq	r0, r3, lr, lsl #4
    1b44:	0012300b 	andseq	r3, r2, fp
    1b48:	53b20300 			; <UNDEFINED> instruction: 0x53b20300
    1b4c:	04000000 	streq	r0, [r0], #-0
    1b50:	23020806 	movwcs	r0, #10246	; 0x2806
    1b54:	06a90b00 	strteq	r0, [r9], r0, lsl #22
    1b58:	b3030000 	movwlt	r0, #12288	; 0x3000
    1b5c:	00000053 	andeq	r0, r0, r3, asr r0
    1b60:	02060204 	andeq	r0, r6, #1073741824	; 0x40000000
    1b64:	3a0b0023 	bcc	2c1bf8 <__dram_freq_start+0x2c1bf8>
    1b68:	03000012 	movweq	r0, #18
    1b6c:	000053b4 			; <UNDEFINED> instruction: 0x000053b4
    1b70:	00060400 	andeq	r0, r6, r0, lsl #8
    1b74:	00002302 	andeq	r2, r0, r2, lsl #6
    1b78:	0007fb03 	andeq	pc, r7, r3, lsl #22
    1b7c:	62b50300 	adcsvs	r0, r5, #0
    1b80:	0a000009 	beq	1bac <__dram_freq_start+0x1bac>
    1b84:	000004ee 	andeq	r0, r0, lr, ror #9
    1b88:	dab70304 	ble	fedc27a0 <__bss_end+0xedbf668>
    1b8c:	0b00000b 	bleq	1bc0 <__dram_freq_start+0x1bc0>
    1b90:	00000977 	andeq	r0, r0, r7, ror r9
    1b94:	0053b803 	subseq	fp, r3, r3, lsl #16
    1b98:	01040000 	mrseq	r0, (UNDEF: 4)
    1b9c:	0023021f 	eoreq	r0, r3, pc, lsl r2
    1ba0:	0013580b 	andseq	r5, r3, fp, lsl #16
    1ba4:	53b90300 			; <UNDEFINED> instruction: 0x53b90300
    1ba8:	04000000 	streq	r0, [r0], #-0
    1bac:	23021e01 	movwcs	r1, #11777	; 0x2e01
    1bb0:	10b00b00 	adcsne	r0, r0, r0, lsl #22
    1bb4:	ba030000 	blt	c1bbc <__dram_freq_start+0xc1bbc>
    1bb8:	00000053 	andeq	r0, r0, r3, asr r0
    1bbc:	021d0104 	andseq	r0, sp, #1
    1bc0:	2c0b0023 	stccs	0, cr0, [fp], {35}	; 0x23
    1bc4:	0300000d 	movweq	r0, #13
    1bc8:	000053bb 			; <UNDEFINED> instruction: 0x000053bb
    1bcc:	1c010400 	cfstrsne	mvf0, [r1], {-0}
    1bd0:	0b002302 	bleq	a7e0 <__dram_freq_start+0xa7e0>
    1bd4:	00000a3f 	andeq	r0, r0, pc, lsr sl
    1bd8:	0053bc03 	subseq	fp, r3, r3, lsl #24
    1bdc:	01040000 	mrseq	r0, (UNDEF: 4)
    1be0:	0023021b 	eoreq	r0, r3, fp, lsl r2
    1be4:	00138c0b 	andseq	r8, r3, fp, lsl #24
    1be8:	53bd0300 			; <UNDEFINED> instruction: 0x53bd0300
    1bec:	04000000 	streq	r0, [r0], #-0
    1bf0:	23021a01 	movwcs	r1, #10753	; 0x2a01
    1bf4:	12dc0b00 	sbcsne	r0, ip, #0
    1bf8:	be030000 	cdplt	0, 0, cr0, cr3, cr0, {0}
    1bfc:	00000053 	andeq	r0, r0, r3, asr r0
    1c00:	02190104 	andseq	r0, r9, #1
    1c04:	bc0b0023 	stclt	0, cr0, [fp], {35}	; 0x23
    1c08:	0300000a 	movweq	r0, #10
    1c0c:	000053bf 			; <UNDEFINED> instruction: 0x000053bf
    1c10:	18010400 	stmdane	r1, {sl}
    1c14:	0b002302 	bleq	a824 <__dram_freq_start+0xa824>
    1c18:	00000ae8 	andeq	r0, r0, r8, ror #21
    1c1c:	0053c003 	subseq	ip, r3, r3
    1c20:	01040000 	mrseq	r0, (UNDEF: 4)
    1c24:	00230217 	eoreq	r0, r3, r7, lsl r2
    1c28:	00163c0b 	andseq	r3, r6, fp, lsl #24
    1c2c:	53c10300 	bicpl	r0, r1, #0
    1c30:	04000000 	streq	r0, [r0], #-0
    1c34:	23021601 	movwcs	r1, #9729	; 0x2601
    1c38:	10190b00 	andsne	r0, r9, r0, lsl #22
    1c3c:	c2030000 	andgt	r0, r3, #0
    1c40:	00000053 	andeq	r0, r0, r3, asr r0
    1c44:	02150104 	andseq	r0, r5, #1
    1c48:	3b0b0023 	blcc	2c1cdc <__dram_freq_start+0x2c1cdc>
    1c4c:	03000005 	movweq	r0, #5
    1c50:	000053c3 	andeq	r5, r0, r3, asr #7
    1c54:	14010400 	strne	r0, [r1], #-1024	; 0x400
    1c58:	0b002302 	bleq	a868 <__dram_freq_start+0xa868>
    1c5c:	00001195 	muleq	r0, r5, r1
    1c60:	0053c403 	subseq	ip, r3, r3, lsl #8
    1c64:	01040000 	mrseq	r0, (UNDEF: 4)
    1c68:	00230213 	eoreq	r0, r3, r3, lsl r2
    1c6c:	0013830b 	andseq	r8, r3, fp, lsl #6
    1c70:	53c50300 	bicpl	r0, r5, #0
    1c74:	04000000 	streq	r0, [r0], #-0
    1c78:	23021201 	movwcs	r1, #8705	; 0x2201
    1c7c:	0fa00b00 	svceq	0x00a00b00
    1c80:	c6030000 	strgt	r0, [r3], -r0
    1c84:	00000053 	andeq	r0, r0, r3, asr r0
    1c88:	02110104 	andseq	r0, r1, #1
    1c8c:	260b0023 	strcs	r0, [fp], -r3, lsr #32
    1c90:	03000012 	movweq	r0, #18
    1c94:	000053c7 	andeq	r5, r0, r7, asr #7
    1c98:	10010400 	andne	r0, r1, r0, lsl #8
    1c9c:	0b002302 	bleq	a8ac <__dram_freq_start+0xa8ac>
    1ca0:	00000fd9 	ldrdeq	r0, [r0], -r9
    1ca4:	0053c803 	subseq	ip, r3, r3, lsl #16
    1ca8:	01040000 	mrseq	r0, (UNDEF: 4)
    1cac:	0023020f 	eoreq	r0, r3, pc, lsl #4
    1cb0:	0011190b 	andseq	r1, r1, fp, lsl #18
    1cb4:	53c90300 	bicpl	r0, r9, #0
    1cb8:	04000000 	streq	r0, [r0], #-0
    1cbc:	23020e01 	movwcs	r0, #11777	; 0x2e01
    1cc0:	0d450b00 	vstreq	d16, [r5, #-0]
    1cc4:	ca030000 	bgt	c1ccc <__dram_freq_start+0xc1ccc>
    1cc8:	00000053 	andeq	r0, r0, r3, asr r0
    1ccc:	020d0104 	andeq	r0, sp, #1
    1cd0:	300b0023 	andcc	r0, fp, r3, lsr #32
    1cd4:	03000012 	movweq	r0, #18
    1cd8:	000053cb 	andeq	r5, r0, fp, asr #7
    1cdc:	0c010400 	cfstrseq	mvf0, [r1], {-0}
    1ce0:	0b002302 	bleq	a8f0 <__dram_freq_start+0xa8f0>
    1ce4:	000005c7 	andeq	r0, r0, r7, asr #11
    1ce8:	0053cc03 	subseq	ip, r3, r3, lsl #24
    1cec:	01040000 	mrseq	r0, (UNDEF: 4)
    1cf0:	0023020b 	eoreq	r0, r3, fp, lsl #4
    1cf4:	000a890b 	andeq	r8, sl, fp, lsl #18
    1cf8:	53cd0300 	bicpl	r0, sp, #0
    1cfc:	04000000 	streq	r0, [r0], #-0
    1d00:	23020a01 	movwcs	r0, #10753	; 0x2a01
    1d04:	0bda0b00 	bleq	ff68490c <__bss_end+0xf6817d4>
    1d08:	ce030000 	cdpgt	0, 0, cr0, cr3, cr0, {0}
    1d0c:	00000053 	andeq	r0, r0, r3, asr r0
    1d10:	02090104 	andeq	r0, r9, #1
    1d14:	210b0023 	tstcs	fp, r3, lsr #32
    1d18:	03000005 	movweq	r0, #5
    1d1c:	000053cf 	andeq	r5, r0, pc, asr #7
    1d20:	08010400 	stmdaeq	r1, {sl}
    1d24:	0b002302 	bleq	a934 <__dram_freq_start+0xa934>
    1d28:	0000123a 	andeq	r1, r0, sl, lsr r2
    1d2c:	0053d003 	subseq	sp, r3, r3
    1d30:	01040000 	mrseq	r0, (UNDEF: 4)
    1d34:	00230207 	eoreq	r0, r3, r7, lsl #4
    1d38:	0009190b 	andeq	r1, r9, fp, lsl #18
    1d3c:	53d10300 	bicspl	r0, r1, #0
    1d40:	04000000 	streq	r0, [r0], #-0
    1d44:	23020601 	movwcs	r0, #9729	; 0x2601
    1d48:	12440b00 	subne	r0, r4, #0
    1d4c:	d2030000 	andle	r0, r3, #0
    1d50:	00000053 	andeq	r0, r0, r3, asr r0
    1d54:	02040204 	andeq	r0, r4, #1073741824	; 0x40000000
    1d58:	100b0023 	andne	r0, fp, r3, lsr #32
    1d5c:	03000011 	movweq	r0, #17
    1d60:	000053d3 	ldrdeq	r5, [r0], -r3
    1d64:	03010400 	movweq	r0, #5120	; 0x1400
    1d68:	0b002302 	bleq	a978 <__dram_freq_start+0xa978>
    1d6c:	0000124e 	andeq	r1, r0, lr, asr #4
    1d70:	0053d403 	subseq	sp, r3, r3, lsl #8
    1d74:	03040000 	movweq	r0, #16384	; 0x4000
    1d78:	00230200 	eoreq	r0, r3, r0, lsl #4
    1d7c:	048e0300 	streq	r0, [lr], #768	; 0x300
    1d80:	d5030000 	strle	r0, [r3, #-0]
    1d84:	000009e0 	andeq	r0, r0, r0, ror #19
    1d88:	000a6d0a 	andeq	r6, sl, sl, lsl #26
    1d8c:	d7030400 	strle	r0, [r3, -r0, lsl #8]
    1d90:	00000d57 	andeq	r0, r0, r7, asr sp
    1d94:	000dba0b 	andeq	fp, sp, fp, lsl #20
    1d98:	53d80300 	bicspl	r0, r8, #0
    1d9c:	04000000 	streq	r0, [r0], #-0
    1da0:	23021f01 	movwcs	r1, #12033	; 0x2f01
    1da4:	057a0b00 	ldrbeq	r0, [sl, #-2816]!	; 0xb00
    1da8:	d9030000 	stmdble	r3, {}	; <UNPREDICTABLE>
    1dac:	00000053 	andeq	r0, r0, r3, asr r0
    1db0:	021e0104 	andseq	r0, lr, #1
    1db4:	020b0023 	andeq	r0, fp, #35	; 0x23
    1db8:	0300000c 	movweq	r0, #12
    1dbc:	000053da 	ldrdeq	r5, [r0], -sl
    1dc0:	1d010400 	cfstrsne	mvf0, [r1, #-0]
    1dc4:	0b002302 	bleq	a9d4 <__dram_freq_start+0xa9d4>
    1dc8:	00000532 	andeq	r0, r0, r2, lsr r5
    1dcc:	0053db03 	subseq	sp, r3, r3, lsl #22
    1dd0:	01040000 	mrseq	r0, (UNDEF: 4)
    1dd4:	0023021c 	eoreq	r0, r3, ip, lsl r2
    1dd8:	00092f0b 	andeq	r2, r9, fp, lsl #30
    1ddc:	53dc0300 	bicspl	r0, ip, #0
    1de0:	04000000 	streq	r0, [r0], #-0
    1de4:	23021b01 	movwcs	r1, #11009	; 0x2b01
    1de8:	14d00b00 	ldrbne	r0, [r0], #2816	; 0xb00
    1dec:	dd030000 	stcle	0, cr0, [r3, #-0]
    1df0:	00000053 	andeq	r0, r0, r3, asr r0
    1df4:	021a0104 	andseq	r0, sl, #1
    1df8:	260b0023 	strcs	r0, [fp], -r3, lsr #32
    1dfc:	03000012 	movweq	r0, #18
    1e00:	000053de 	ldrdeq	r5, [r0], -lr
    1e04:	18020400 	stmdane	r2, {sl}
    1e08:	0b002302 	bleq	aa18 <__dram_freq_start+0xaa18>
    1e0c:	00001614 	andeq	r1, r0, r4, lsl r6
    1e10:	0053df03 	subseq	sp, r3, r3, lsl #30
    1e14:	01040000 	mrseq	r0, (UNDEF: 4)
    1e18:	00230217 	eoreq	r0, r3, r7, lsl r2
    1e1c:	0014ab0b 	andseq	sl, r4, fp, lsl #22
    1e20:	53e00300 	mvnpl	r0, #0
    1e24:	04000000 	streq	r0, [r0], #-0
    1e28:	23021601 	movwcs	r1, #9729	; 0x2601
    1e2c:	0d3b0b00 	vldmdbeq	fp!, {d0-d-1}
    1e30:	e1030000 	mrs	r0, (UNDEF: 3)
    1e34:	00000053 	andeq	r0, r0, r3, asr r0
    1e38:	02150104 	andseq	r0, r5, #1
    1e3c:	b10b0023 	tstlt	fp, r3, lsr #32
    1e40:	03000013 	movweq	r0, #19
    1e44:	000053e2 	andeq	r5, r0, r2, ror #7
    1e48:	14010400 	strne	r0, [r1], #-1024	; 0x400
    1e4c:	0b002302 	bleq	aa5c <__dram_freq_start+0xaa5c>
    1e50:	000011e2 	andeq	r1, r0, r2, ror #3
    1e54:	0053e303 	subseq	lr, r3, r3, lsl #6
    1e58:	01040000 	mrseq	r0, (UNDEF: 4)
    1e5c:	00230213 	eoreq	r0, r3, r3, lsl r2
    1e60:	0009ae0b 	andeq	sl, r9, fp, lsl #28
    1e64:	53e40300 	mvnpl	r0, #0
    1e68:	04000000 	streq	r0, [r0], #-0
    1e6c:	23021201 	movwcs	r1, #8705	; 0x2201
    1e70:	14a10b00 	strtne	r0, [r1], #2816	; 0xb00
    1e74:	e5030000 	str	r0, [r3, #-0]
    1e78:	00000053 	andeq	r0, r0, r3, asr r0
    1e7c:	02110104 	andseq	r0, r1, #1
    1e80:	870b0023 	strhi	r0, [fp, -r3, lsr #32]
    1e84:	0300000e 	movweq	r0, #14
    1e88:	000053e6 	andeq	r5, r0, r6, ror #7
    1e8c:	10010400 	andne	r0, r1, r0, lsl #8
    1e90:	0b002302 	bleq	aaa0 <__dram_freq_start+0xaaa0>
    1e94:	00001230 	andeq	r1, r0, r0, lsr r2
    1e98:	0053e703 	subseq	lr, r3, r3, lsl #14
    1e9c:	01040000 	mrseq	r0, (UNDEF: 4)
    1ea0:	0023020f 	eoreq	r0, r3, pc, lsl #4
    1ea4:	000caa0b 	andeq	sl, ip, fp, lsl #20
    1ea8:	53e80300 	mvnpl	r0, #0
    1eac:	04000000 	streq	r0, [r0], #-0
    1eb0:	23020e01 	movwcs	r0, #11777	; 0x2e01
    1eb4:	06160b00 	ldreq	r0, [r6], -r0, lsl #22
    1eb8:	e9030000 	stmdb	r3, {}	; <UNPREDICTABLE>
    1ebc:	00000053 	andeq	r0, r0, r3, asr r0
    1ec0:	020d0104 	andeq	r0, sp, #1
    1ec4:	3a0b0023 	bcc	2c1f58 <__dram_freq_start+0x2c1f58>
    1ec8:	03000012 	movweq	r0, #18
    1ecc:	000053ea 	andeq	r5, r0, sl, ror #7
    1ed0:	0c010400 	cfstrseq	mvf0, [r1], {-0}
    1ed4:	0b002302 	bleq	aae4 <__dram_freq_start+0xaae4>
    1ed8:	00001052 	andeq	r1, r0, r2, asr r0
    1edc:	0053eb03 	subseq	lr, r3, r3, lsl #22
    1ee0:	01040000 	mrseq	r0, (UNDEF: 4)
    1ee4:	0023020b 	eoreq	r0, r3, fp, lsl #4
    1ee8:	0012440b 	andseq	r4, r2, fp, lsl #8
    1eec:	53ec0300 	mvnpl	r0, #0
    1ef0:	04000000 	streq	r0, [r0], #-0
    1ef4:	2302000b 	movwcs	r0, #8203	; 0x200b
    1ef8:	ff030000 			; <UNDEFINED> instruction: 0xff030000
    1efc:	0300000a 	movweq	r0, #10
    1f00:	000be5ed 	andeq	lr, fp, sp, ror #11
    1f04:	16470a00 	strbne	r0, [r7], -r0, lsl #20
    1f08:	03040000 	movweq	r0, #16384	; 0x4000
    1f0c:	000e3bef 	andeq	r3, lr, pc, ror #23
    1f10:	11b60b00 			; <UNDEFINED> instruction: 0x11b60b00
    1f14:	f0030000 			; <UNDEFINED> instruction: 0xf0030000
    1f18:	00000053 	andeq	r0, r0, r3, asr r0
    1f1c:	021f0104 	andseq	r0, pc, #1
    1f20:	220b0023 	andcs	r0, fp, #35	; 0x23
    1f24:	0300000d 	movweq	r0, #13
    1f28:	000053f1 	strdeq	r5, [r0], -r1
    1f2c:	1e010400 	cfcpysne	mvf0, mvf1
    1f30:	0b002302 	bleq	ab40 <__dram_freq_start+0xab40>
    1f34:	000008e5 	andeq	r0, r0, r5, ror #17
    1f38:	0053f203 	subseq	pc, r3, r3, lsl #4
    1f3c:	01040000 	mrseq	r0, (UNDEF: 4)
    1f40:	0023021d 	eoreq	r0, r3, sp, lsl r2
    1f44:	000ecf0b 	andeq	ip, lr, fp, lsl #30
    1f48:	53f30300 	mvnspl	r0, #0
    1f4c:	04000000 	streq	r0, [r0], #-0
    1f50:	23021c01 	movwcs	r1, #11265	; 0x2c01
    1f54:	08480b00 	stmdaeq	r8, {r8, r9, fp}^
    1f58:	f4030000 	vst4.8	{d0-d3}, [r3], r0
    1f5c:	00000053 	andeq	r0, r0, r3, asr r0
    1f60:	021b0104 	andseq	r0, fp, #1
    1f64:	350b0023 	strcc	r0, [fp, #-35]	; 0x23
    1f68:	03000006 	movweq	r0, #6
    1f6c:	000053f5 	strdeq	r5, [r0], -r5	; <UNPREDICTABLE>
    1f70:	1a010400 	bne	42f78 <__dram_freq_start+0x42f78>
    1f74:	0b002302 	bleq	ab84 <__dram_freq_start+0xab84>
    1f78:	000010ba 	strheq	r1, [r0], -sl
    1f7c:	0053f603 	subseq	pc, r3, r3, lsl #12
    1f80:	01040000 	mrseq	r0, (UNDEF: 4)
    1f84:	00230219 	eoreq	r0, r3, r9, lsl r2
    1f88:	000a490b 	andeq	r4, sl, fp, lsl #18
    1f8c:	53f70300 	mvnspl	r0, #0
    1f90:	04000000 	streq	r0, [r0], #-0
    1f94:	23021801 	movwcs	r1, #10241	; 0x2801
    1f98:	143d0b00 	ldrtne	r0, [sp], #-2816	; 0xb00
    1f9c:	f8030000 			; <UNDEFINED> instruction: 0xf8030000
    1fa0:	00000053 	andeq	r0, r0, r3, asr r0
    1fa4:	02170104 	andseq	r0, r7, #1
    1fa8:	260b0023 	strcs	r0, [fp], -r3, lsr #32
    1fac:	03000012 	movweq	r0, #18
    1fb0:	000053f9 	strdeq	r5, [r0], -r9
    1fb4:	16010400 	strne	r0, [r1], -r0, lsl #8
    1fb8:	0b002302 	bleq	abc8 <__dram_freq_start+0xabc8>
    1fbc:	00000bcf 	andeq	r0, r0, pc, asr #23
    1fc0:	0053fa03 	subseq	pc, r3, r3, lsl #20
    1fc4:	01040000 	mrseq	r0, (UNDEF: 4)
    1fc8:	00230215 	eoreq	r0, r3, r5, lsl r2
    1fcc:	0012300b 	andseq	r3, r2, fp
    1fd0:	53fb0300 	mvnspl	r0, #0
    1fd4:	04000000 	streq	r0, [r0], #-0
    1fd8:	23020015 	movwcs	r0, #8213	; 0x2015
    1fdc:	b3030000 	movwlt	r0, #12288	; 0x3000
    1fe0:	0300000f 	movweq	r0, #15
    1fe4:	000d62fc 	strdeq	r6, [sp], -ip
    1fe8:	154f0a00 	strbne	r0, [pc, #-2560]	; 15f0 <__dram_freq_start+0x15f0>
    1fec:	03040000 	movweq	r0, #16384	; 0x4000
    1ff0:	000fa8fe 	strdeq	sl, [pc], -lr
    1ff4:	0a2e0b00 	beq	b84bfc <__dram_freq_start+0xb84bfc>
    1ff8:	ff030000 			; <UNDEFINED> instruction: 0xff030000
    1ffc:	00000053 	andeq	r0, r0, r3, asr r0
    2000:	021f0104 	andseq	r0, pc, #1
    2004:	9e0c0023 	cdpls	0, 0, cr0, cr12, cr3, {1}
    2008:	03000015 	movweq	r0, #21
    200c:	00530100 	subseq	r0, r3, r0, lsl #2
    2010:	01040000 	mrseq	r0, (UNDEF: 4)
    2014:	0023021e 	eoreq	r0, r3, lr, lsl r2
    2018:	000faa0c 	andeq	sl, pc, ip, lsl #20
    201c:	01010300 	mrseq	r0, SP_irq
    2020:	00000053 	andeq	r0, r0, r3, asr r0
    2024:	021d0104 	andseq	r0, sp, #1
    2028:	470c0023 	strmi	r0, [ip, -r3, lsr #32]
    202c:	03000009 	movweq	r0, #9
    2030:	00530102 	subseq	r0, r3, r2, lsl #2
    2034:	01040000 	mrseq	r0, (UNDEF: 4)
    2038:	0023021c 	eoreq	r0, r3, ip, lsl r2
    203c:	000ac50c 	andeq	ip, sl, ip, lsl #10
    2040:	01030300 	mrseq	r0, SP_svc
    2044:	00000053 	andeq	r0, r0, r3, asr r0
    2048:	021b0104 	andseq	r0, fp, #1
    204c:	8f0c0023 	svchi	0x000c0023
    2050:	03000006 	movweq	r0, #6
    2054:	00530104 	subseq	r0, r3, r4, lsl #2
    2058:	01040000 	mrseq	r0, (UNDEF: 4)
    205c:	0023021a 	eoreq	r0, r3, sl, lsl r2
    2060:	000ab30c 	andeq	fp, sl, ip, lsl #6
    2064:	01050300 	mrseq	r0, SP_abt
    2068:	00000053 	andeq	r0, r0, r3, asr r0
    206c:	02190104 	andseq	r0, r9, #1
    2070:	0b0c0023 	bleq	302104 <__dram_freq_start+0x302104>
    2074:	03000016 	movweq	r0, #22
    2078:	00530106 	subseq	r0, r3, r6, lsl #2
    207c:	01040000 	mrseq	r0, (UNDEF: 4)
    2080:	00230218 	eoreq	r0, r3, r8, lsl r2
    2084:	0012260c 	andseq	r2, r2, ip, lsl #12
    2088:	01070300 	mrseq	r0, SP_und
    208c:	00000053 	andeq	r0, r0, r3, asr r0
    2090:	02110704 	andseq	r0, r1, #1048576	; 0x100000
    2094:	eb0c0023 	bl	302128 <__dram_freq_start+0x302128>
    2098:	03000014 	movweq	r0, #20
    209c:	00530108 	subseq	r0, r3, r8, lsl #2
    20a0:	01040000 	mrseq	r0, (UNDEF: 4)
    20a4:	00230210 	eoreq	r0, r3, r0, lsl r2
    20a8:	0015350c 	andseq	r3, r5, ip, lsl #10
    20ac:	01090300 	mrseq	r0, (UNDEF: 57)
    20b0:	00000053 	andeq	r0, r0, r3, asr r0
    20b4:	020f0104 	andeq	r0, pc, #1
    20b8:	020c0023 	andeq	r0, ip, #35	; 0x23
    20bc:	0300000f 	movweq	r0, #15
    20c0:	0053010a 	subseq	r0, r3, sl, lsl #2
    20c4:	01040000 	mrseq	r0, (UNDEF: 4)
    20c8:	0023020e 	eoreq	r0, r3, lr, lsl #4
    20cc:	0008c00c 	andeq	ip, r8, ip
    20d0:	010b0300 	mrseq	r0, (UNDEF: 59)
    20d4:	00000053 	andeq	r0, r0, r3, asr r0
    20d8:	020d0104 	andeq	r0, sp, #1
    20dc:	970c0023 	strls	r0, [ip, -r3, lsr #32]
    20e0:	03000014 	movweq	r0, #20
    20e4:	0053010c 	subseq	r0, r3, ip, lsl #2
    20e8:	01040000 	mrseq	r0, (UNDEF: 4)
    20ec:	0023020c 	eoreq	r0, r3, ip, lsl #4
    20f0:	000e6b0c 	andeq	r6, lr, ip, lsl #22
    20f4:	010d0300 	mrseq	r0, SP_mon
    20f8:	00000053 	andeq	r0, r0, r3, asr r0
    20fc:	020b0104 	andeq	r0, fp, #1
    2100:	8c0c0023 	stchi	0, cr0, [ip], {35}	; 0x23
    2104:	03000007 	movweq	r0, #7
    2108:	0053010e 	subseq	r0, r3, lr, lsl #2
    210c:	01040000 	mrseq	r0, (UNDEF: 4)
    2110:	0023020a 	eoreq	r0, r3, sl, lsl #4
    2114:	0013cf0c 	andseq	ip, r3, ip, lsl #30
    2118:	010f0300 	mrseq	r0, SP_hyp
    211c:	00000053 	andeq	r0, r0, r3, asr r0
    2120:	02090104 	andeq	r0, r9, #1
    2124:	9f0c0023 	svcls	0x000c0023
    2128:	0300000d 	movweq	r0, #13
    212c:	00530110 	subseq	r0, r3, r0, lsl r1
    2130:	01040000 	mrseq	r0, (UNDEF: 4)
    2134:	00230208 	eoreq	r0, r3, r8, lsl #4
    2138:	0012300c 	andseq	r3, r2, ip
    213c:	01110300 	tsteq	r1, r0, lsl #6
    2140:	00000053 	andeq	r0, r0, r3, asr r0
    2144:	02000804 	andeq	r0, r0, #262144	; 0x40000
    2148:	0d000023 	stceq	0, cr0, [r0, #-140]	; 0xffffff74
    214c:	00000dfc 	strdeq	r0, [r0], -ip
    2150:	46011203 	strmi	r1, [r1], -r3, lsl #4
    2154:	0e00000e 	cdpeq	0, 0, cr0, cr0, cr14, {0}
    2158:	00000d83 	andeq	r0, r0, r3, lsl #27
    215c:	01160304 	tsteq	r6, r4, lsl #6
    2160:	00001088 	andeq	r1, r0, r8, lsl #1
    2164:	000f430c 	andeq	r4, pc, ip, lsl #6
    2168:	01170300 	tsteq	r7, r0, lsl #6
    216c:	00000053 	andeq	r0, r0, r3, asr r0
    2170:	021c0404 	andseq	r0, ip, #67108864	; 0x4000000
    2174:	260c0023 	strcs	r0, [ip], -r3, lsr #32
    2178:	03000012 	movweq	r0, #18
    217c:	00530118 	subseq	r0, r3, r8, lsl r1
    2180:	04040000 	streq	r0, [r4], #-0
    2184:	00230218 	eoreq	r0, r3, r8, lsl r2
    2188:	00128d0c 	andseq	r8, r2, ip, lsl #26
    218c:	01190300 	tsteq	r9, r0, lsl #6
    2190:	00000053 	andeq	r0, r0, r3, asr r0
    2194:	02150304 	andseq	r0, r5, #268435456	; 0x10000000
    2198:	300c0023 	andcc	r0, ip, r3, lsr #32
    219c:	03000012 	movweq	r0, #18
    21a0:	0053011a 	subseq	r0, r3, sl, lsl r1
    21a4:	05040000 	streq	r0, [r4, #-0]
    21a8:	00230210 	eoreq	r0, r3, r0, lsl r2
    21ac:	0005da0c 	andeq	sp, r5, ip, lsl #20
    21b0:	011b0300 	tsteq	fp, r0, lsl #6
    21b4:	00000053 	andeq	r0, r0, r3, asr r0
    21b8:	020e0204 	andeq	r0, lr, #1073741824	; 0x40000000
    21bc:	3a0c0023 	bcc	302250 <__dram_freq_start+0x302250>
    21c0:	03000012 	movweq	r0, #18
    21c4:	0053011c 	subseq	r0, r3, ip, lsl r1
    21c8:	02040000 	andeq	r0, r4, #0
    21cc:	0023020c 	eoreq	r0, r3, ip, lsl #4
    21d0:	0013740c 	andseq	r7, r3, ip, lsl #8
    21d4:	011d0300 	tsteq	sp, r0, lsl #6
    21d8:	00000053 	andeq	r0, r0, r3, asr r0
    21dc:	02090304 	andeq	r0, r9, #268435456	; 0x10000000
    21e0:	440c0023 	strmi	r0, [ip], #-35	; 0x23
    21e4:	03000012 	movweq	r0, #18
    21e8:	0053011e 	subseq	r0, r3, lr, lsl r1
    21ec:	01040000 	mrseq	r0, (UNDEF: 4)
    21f0:	00230208 	eoreq	r0, r3, r8, lsl #4
    21f4:	0006a90c 	andeq	sl, r6, ip, lsl #18
    21f8:	011f0300 	tsteq	pc, r0, lsl #6
    21fc:	00000053 	andeq	r0, r0, r3, asr r0
    2200:	02060204 	andeq	r0, r6, #1073741824	; 0x40000000
    2204:	4e0c0023 	cdpmi	0, 0, cr0, cr12, cr3, {1}
    2208:	03000012 	movweq	r0, #18
    220c:	00530120 	subseq	r0, r3, r0, lsr #2
    2210:	05040000 	streq	r0, [r4, #-0]
    2214:	00230201 	eoreq	r0, r3, r1, lsl #4
    2218:	0014180c 	andseq	r1, r4, ip, lsl #16
    221c:	01210300 	teqeq	r1, r0, lsl #6
    2220:	00000053 	andeq	r0, r0, r3, asr r0
    2224:	02000104 	andeq	r0, r0, #1
    2228:	0d000023 	stceq	0, cr0, [r0, #-140]	; 0xffffff74
    222c:	000010e5 	andeq	r1, r0, r5, ror #1
    2230:	b4012203 	strlt	r2, [r1], #-515	; 0x203
    2234:	0e00000f 	cdpeq	0, 0, cr0, cr0, cr15, {0}
    2238:	00000645 	andeq	r0, r0, r5, asr #12
    223c:	01260304 	teqeq	r6, r4, lsl #6
    2240:	000010ea 	andeq	r1, r0, sl, ror #1
    2244:	0012260c 	andseq	r2, r2, ip, lsl #12
    2248:	01270300 	teqeq	r7, r0, lsl #6
    224c:	00000053 	andeq	r0, r0, r3, asr r0
    2250:	02101004 	andseq	r1, r0, #4
    2254:	430c0023 	movwmi	r0, #49187	; 0xc023
    2258:	0300000f 	movweq	r0, #15
    225c:	00530128 	subseq	r0, r3, r8, lsr #2
    2260:	02040000 	andeq	r0, r4, #0
    2264:	0023020e 	eoreq	r0, r3, lr, lsl #4
    2268:	0012300c 	andseq	r3, r2, ip
    226c:	01290300 	teqeq	r9, r0, lsl #6
    2270:	00000053 	andeq	r0, r0, r3, asr r0
    2274:	02010d04 	andeq	r0, r1, #256	; 0x100
    2278:	180c0023 	stmdane	ip, {r0, r1, r5}
    227c:	03000014 	movweq	r0, #20
    2280:	0053012a 	subseq	r0, r3, sl, lsr #2
    2284:	01040000 	mrseq	r0, (UNDEF: 4)
    2288:	00230200 	eoreq	r0, r3, r0, lsl #4
    228c:	08d00d00 	ldmeq	r0, {r8, sl, fp}^
    2290:	2b030000 	blcs	c2298 <__dram_freq_start+0xc2298>
    2294:	00109401 	andseq	r9, r0, r1, lsl #8
    2298:	12ea0e00 	rscne	r0, sl, #0
    229c:	03040000 	movweq	r0, #16384	; 0x4000
    22a0:	1182012d 	orrne	r0, r2, sp, lsr #2
    22a4:	430c0000 	movwmi	r0, #49152	; 0xc000
    22a8:	0300000f 	movweq	r0, #15
    22ac:	0053012e 	subseq	r0, r3, lr, lsr #2
    22b0:	05040000 	streq	r0, [r4, #-0]
    22b4:	0023021b 	eoreq	r0, r3, fp, lsl r2
    22b8:	0012260c 	andseq	r2, r2, ip, lsl #12
    22bc:	012f0300 	teqeq	pc, r0, lsl #6
    22c0:	00000053 	andeq	r0, r0, r3, asr r0
    22c4:	02100b04 	andseq	r0, r0, #4096	; 0x1000
    22c8:	da0c0023 	ble	30235c <__dram_freq_start+0x30235c>
    22cc:	03000005 	movweq	r0, #5
    22d0:	00530130 	subseq	r0, r3, r0, lsr r1
    22d4:	02040000 	andeq	r0, r4, #0
    22d8:	0023020e 	eoreq	r0, r3, lr, lsl #4
    22dc:	0012300c 	andseq	r3, r2, ip
    22e0:	01310300 	teqeq	r1, r0, lsl #6
    22e4:	00000053 	andeq	r0, r0, r3, asr r0
    22e8:	02080604 	andeq	r0, r8, #4194304	; 0x400000
    22ec:	a90c0023 	stmdbge	ip, {r0, r1, r5}
    22f0:	03000006 	movweq	r0, #6
    22f4:	00530132 	subseq	r0, r3, r2, lsr r1
    22f8:	02040000 	andeq	r0, r4, #0
    22fc:	00230206 	eoreq	r0, r3, r6, lsl #4
    2300:	00123a0c 	andseq	r3, r2, ip, lsl #20
    2304:	01330300 	teqeq	r3, r0, lsl #6
    2308:	00000053 	andeq	r0, r0, r3, asr r0
    230c:	02010504 	andeq	r0, r1, #16777216	; 0x1000000
    2310:	180c0023 	stmdane	ip, {r0, r1, r5}
    2314:	03000014 	movweq	r0, #20
    2318:	00530134 	subseq	r0, r3, r4, lsr r1
    231c:	01040000 	mrseq	r0, (UNDEF: 4)
    2320:	00230200 	eoreq	r0, r3, r0, lsl #4
    2324:	0b870d00 	bleq	fe1c572c <__bss_end+0xe1c25f4>
    2328:	35030000 	strcc	r0, [r3, #-0]
    232c:	0010f601 	andseq	pc, r0, r1, lsl #12
    2330:	0d0a0e00 	stceq	14, cr0, [sl, #-0]
    2334:	03040000 	movweq	r0, #16384	; 0x4000
    2338:	11e40137 	mvnne	r0, r7, lsr r1
    233c:	260c0000 	strcs	r0, [ip], -r0
    2340:	03000012 	movweq	r0, #18
    2344:	00530138 	subseq	r0, r3, r8, lsr r1
    2348:	18040000 	stmdane	r4, {}	; <UNPREDICTABLE>
    234c:	00230208 	eoreq	r0, r3, r8, lsl #4
    2350:	0006a90c 	andeq	sl, r6, ip, lsl #18
    2354:	01390300 	teqeq	r9, r0, lsl #6
    2358:	00000053 	andeq	r0, r0, r3, asr r0
    235c:	02070104 	andeq	r0, r7, #1
    2360:	300c0023 	andcc	r0, ip, r3, lsr #32
    2364:	03000012 	movweq	r0, #18
    2368:	0053013a 	subseq	r0, r3, sl, lsr r1
    236c:	06040000 	streq	r0, [r4], -r0
    2370:	00230201 	eoreq	r0, r3, r1, lsl #4
    2374:	0014180c 	andseq	r1, r4, ip, lsl #16
    2378:	013b0300 	teqeq	fp, r0, lsl #6
    237c:	00000053 	andeq	r0, r0, r3, asr r0
    2380:	02000104 	andeq	r0, r0, #1
    2384:	0d000023 	stceq	0, cr0, [r0, #-140]	; 0xffffff74
    2388:	00000a99 	muleq	r0, r9, sl
    238c:	8e013c03 	cdphi	12, 0, cr3, cr1, cr3, {0}
    2390:	0e000011 	mcreq	0, 0, r0, cr0, cr1, {0}
    2394:	00000cb3 			; <UNDEFINED> instruction: 0x00000cb3
    2398:	013e0304 	teqeq	lr, r4, lsl #6
    239c:	0000128e 	andeq	r1, r0, lr, lsl #5
    23a0:	00100e0c 	andseq	r0, r0, ip, lsl #28
    23a4:	013f0300 	teqeq	pc, r0, lsl #6
    23a8:	00000053 	andeq	r0, r0, r3, asr r0
    23ac:	021f0104 	andseq	r0, pc, #1
    23b0:	6d0c0023 	stcvs	0, cr0, [ip, #-140]	; 0xffffff74
    23b4:	03000014 	movweq	r0, #20
    23b8:	00530140 	subseq	r0, r3, r0, asr #2
    23bc:	01040000 	mrseq	r0, (UNDEF: 4)
    23c0:	0023021e 	eoreq	r0, r3, lr, lsl r2
    23c4:	000d4c0c 	andeq	r4, sp, ip, lsl #24
    23c8:	01410300 	mrseq	r0, (UNDEF: 113)
    23cc:	00000053 	andeq	r0, r0, r3, asr r0
    23d0:	021d0104 	andseq	r0, sp, #1
    23d4:	260c0023 	strcs	r0, [ip], -r3, lsr #32
    23d8:	03000012 	movweq	r0, #18
    23dc:	00530142 	subseq	r0, r3, r2, asr #2
    23e0:	03040000 	movweq	r0, #16384	; 0x4000
    23e4:	0023021a 	eoreq	r0, r3, sl, lsl r2
    23e8:	0014130c 	andseq	r1, r4, ip, lsl #6
    23ec:	01430300 	mrseq	r0, (UNDEF: 115)
    23f0:	00000053 	andeq	r0, r0, r3, asr r0
    23f4:	02190104 	andseq	r0, r9, #1
    23f8:	e20c0023 	and	r0, ip, #35	; 0x23
    23fc:	03000007 	movweq	r0, #7
    2400:	00530144 	subseq	r0, r3, r4, asr #2
    2404:	01040000 	mrseq	r0, (UNDEF: 4)
    2408:	00230218 	eoreq	r0, r3, r8, lsl r2
    240c:	0008390c 	andeq	r3, r8, ip, lsl #18
    2410:	01450300 	mrseq	r0, (UNDEF: 117)
    2414:	00000053 	andeq	r0, r0, r3, asr r0
    2418:	02170104 	andseq	r0, r7, #1
    241c:	3a0c0023 	bcc	3024b0 <__dram_freq_start+0x3024b0>
    2420:	03000012 	movweq	r0, #18
    2424:	00530146 	subseq	r0, r3, r6, asr #2
    2428:	17040000 	strne	r0, [r4, -r0]
    242c:	00230200 	eoreq	r0, r3, r0, lsl #4
    2430:	08510d00 	ldmdaeq	r1, {r8, sl, fp}^
    2434:	47030000 	strmi	r0, [r3, -r0]
    2438:	0011f001 	andseq	pc, r1, r1
    243c:	05610e00 	strbeq	r0, [r1, #-3584]!	; 0xe00
    2440:	03040000 	movweq	r0, #16384	; 0x4000
    2444:	13da0153 	bicsne	r0, sl, #-1073741804	; 0xc0000014
    2448:	ba0c0000 	blt	302450 <__dram_freq_start+0x302450>
    244c:	0300000d 	movweq	r0, #13
    2450:	00530154 	subseq	r0, r3, r4, asr r1
    2454:	01040000 	mrseq	r0, (UNDEF: 4)
    2458:	0023021f 	eoreq	r0, r3, pc, lsl r2
    245c:	0016140c 	andseq	r1, r6, ip, lsl #8
    2460:	01550300 	cmpeq	r5, r0, lsl #6
    2464:	00000053 	andeq	r0, r0, r3, asr r0
    2468:	021e0104 	andseq	r0, lr, #1
    246c:	ab0c0023 	blge	302500 <__dram_freq_start+0x302500>
    2470:	03000014 	movweq	r0, #20
    2474:	00530156 	subseq	r0, r3, r6, asr r1
    2478:	01040000 	mrseq	r0, (UNDEF: 4)
    247c:	0023021d 	eoreq	r0, r3, sp, lsl r2
    2480:	000d450c 	andeq	r4, sp, ip, lsl #10
    2484:	01570300 	cmpeq	r7, r0, lsl #6
    2488:	00000053 	andeq	r0, r0, r3, asr r0
    248c:	021c0104 	andseq	r0, ip, #1
    2490:	7a0c0023 	bvc	302524 <__dram_freq_start+0x302524>
    2494:	03000005 	movweq	r0, #5
    2498:	00530158 	subseq	r0, r3, r8, asr r1
    249c:	01040000 	mrseq	r0, (UNDEF: 4)
    24a0:	0023021b 	eoreq	r0, r3, fp, lsl r2
    24a4:	000c020c 	andeq	r0, ip, ip, lsl #4
    24a8:	01590300 	cmpeq	r9, r0, lsl #6
    24ac:	00000053 	andeq	r0, r0, r3, asr r0
    24b0:	021a0104 	andseq	r0, sl, #1
    24b4:	320c0023 	andcc	r0, ip, #35	; 0x23
    24b8:	03000005 	movweq	r0, #5
    24bc:	0053015a 	subseq	r0, r3, sl, asr r1
    24c0:	01040000 	mrseq	r0, (UNDEF: 4)
    24c4:	00230219 	eoreq	r0, r3, r9, lsl r2
    24c8:	0012260c 	andseq	r2, r2, ip, lsl #12
    24cc:	015b0300 	cmpeq	fp, r0, lsl #6
    24d0:	00000053 	andeq	r0, r0, r3, asr r0
    24d4:	02110804 	andseq	r0, r1, #262144	; 0x40000
    24d8:	f30c0023 	vhadd.u8	d0, d12, d19
    24dc:	0300000a 	movweq	r0, #10
    24e0:	0053015c 	subseq	r0, r3, ip, asr r1
    24e4:	01040000 	mrseq	r0, (UNDEF: 4)
    24e8:	00230210 	eoreq	r0, r3, r0, lsl r2
    24ec:	0012300c 	andseq	r3, r2, ip
    24f0:	015d0300 	cmpeq	sp, r0, lsl #6
    24f4:	00000053 	andeq	r0, r0, r3, asr r0
    24f8:	02080804 	andeq	r0, r8, #262144	; 0x40000
    24fc:	870c0023 	strhi	r0, [ip, -r3, lsr #32]
    2500:	0300000e 	movweq	r0, #14
    2504:	0053015e 	subseq	r0, r3, lr, asr r1
    2508:	01040000 	mrseq	r0, (UNDEF: 4)
    250c:	00230207 	eoreq	r0, r3, r7, lsl #4
    2510:	0014a10c 	andseq	sl, r4, ip, lsl #2
    2514:	015f0300 	cmpeq	pc, r0, lsl #6
    2518:	00000053 	andeq	r0, r0, r3, asr r0
    251c:	02060104 	andeq	r0, r6, #1
    2520:	e20c0023 	and	r0, ip, #35	; 0x23
    2524:	03000011 	movweq	r0, #17
    2528:	00530160 	subseq	r0, r3, r0, ror #2
    252c:	01040000 	mrseq	r0, (UNDEF: 4)
    2530:	00230205 	eoreq	r0, r3, r5, lsl #4
    2534:	0009ae0c 	andeq	sl, r9, ip, lsl #28
    2538:	01610300 	cmneq	r1, r0, lsl #6
    253c:	00000053 	andeq	r0, r0, r3, asr r0
    2540:	02040104 	andeq	r0, r4, #1
    2544:	140c0023 	strne	r0, [ip], #-35	; 0x23
    2548:	03000006 	movweq	r0, #6
    254c:	00530162 	subseq	r0, r3, r2, ror #2
    2550:	01040000 	mrseq	r0, (UNDEF: 4)
    2554:	00230203 	eoreq	r0, r3, r3, lsl #4
    2558:	000fd90c 	andeq	sp, pc, ip, lsl #18
    255c:	01630300 	cmneq	r3, r0, lsl #6
    2560:	00000053 	andeq	r0, r0, r3, asr r0
    2564:	02020104 	andeq	r0, r2, #1
    2568:	3a0c0023 	bcc	3025fc <__dram_freq_start+0x3025fc>
    256c:	03000012 	movweq	r0, #18
    2570:	00530164 	subseq	r0, r3, r4, ror #2
    2574:	02040000 	andeq	r0, r4, #0
    2578:	00230200 	eoreq	r0, r3, r0, lsl #4
    257c:	059c0d00 	ldreq	r0, [ip, #3328]	; 0xd00
    2580:	65030000 	strvs	r0, [r3, #-0]
    2584:	00129a01 	andseq	r9, r2, r1, lsl #20
    2588:	05460e00 	strbeq	r0, [r6, #-3584]	; 0xe00
    258c:	03040000 	movweq	r0, #16384	; 0x4000
    2590:	14600169 	strbtne	r0, [r0], #-361	; 0x169
    2594:	430c0000 	movwmi	r0, #49152	; 0xc000
    2598:	0300000f 	movweq	r0, #15
    259c:	0053016a 	subseq	r0, r3, sl, ror #2
    25a0:	04040000 	streq	r0, [r4], #-0
    25a4:	0023021c 	eoreq	r0, r3, ip, lsl r2
    25a8:	0012260c 	andseq	r2, r2, ip, lsl #12
    25ac:	016b0300 	cmneq	fp, r0, lsl #6
    25b0:	00000053 	andeq	r0, r0, r3, asr r0
    25b4:	02081404 	andeq	r1, r8, #67108864	; 0x4000000
    25b8:	a90c0023 	stmdbge	ip, {r0, r1, r5}
    25bc:	03000006 	movweq	r0, #6
    25c0:	0053016c 	subseq	r0, r3, ip, ror #2
    25c4:	02040000 	andeq	r0, r4, #0
    25c8:	00230206 	eoreq	r0, r3, r6, lsl #4
    25cc:	0012300c 	andseq	r3, r2, ip
    25d0:	016d0300 	cmneq	sp, r0, lsl #6
    25d4:	00000053 	andeq	r0, r0, r3, asr r0
    25d8:	02020404 	andeq	r0, r2, #67108864	; 0x4000000
    25dc:	880c0023 	stmdahi	ip, {r0, r1, r5}
    25e0:	03000004 	movweq	r0, #4
    25e4:	0053016e 	subseq	r0, r3, lr, ror #2
    25e8:	01040000 	mrseq	r0, (UNDEF: 4)
    25ec:	00230201 	eoreq	r0, r3, r1, lsl #4
    25f0:	0014180c 	andseq	r1, r4, ip, lsl #16
    25f4:	016f0300 	cmneq	pc, r0, lsl #6
    25f8:	00000053 	andeq	r0, r0, r3, asr r0
    25fc:	02000104 	andeq	r0, r0, #1
    2600:	0d000023 	stceq	0, cr0, [r0, #-140]	; 0xffffff74
    2604:	00001393 	muleq	r0, r3, r3
    2608:	e6017003 	str	r7, [r1], -r3
    260c:	0e000013 	mcreq	0, 0, r0, cr0, cr3, {0}
    2610:	000014d9 	ldrdeq	r1, [r0], -r9
    2614:	01740304 	cmneq	r4, r4, lsl #6
    2618:	000014d4 	ldrdeq	r1, [r0], -r4
    261c:	0012260c 	andseq	r2, r2, ip, lsl #12
    2620:	01750300 	cmneq	r5, r0, lsl #6
    2624:	00000053 	andeq	r0, r0, r3, asr r0
    2628:	02081804 	andeq	r1, r8, #262144	; 0x40000
    262c:	a90c0023 	stmdbge	ip, {r0, r1, r5}
    2630:	03000006 	movweq	r0, #6
    2634:	00530176 	subseq	r0, r3, r6, ror r1
    2638:	02040000 	andeq	r0, r4, #0
    263c:	00230206 	eoreq	r0, r3, r6, lsl #4
    2640:	0012300c 	andseq	r3, r2, ip
    2644:	01770300 	cmneq	r7, r0, lsl #6
    2648:	00000053 	andeq	r0, r0, r3, asr r0
    264c:	02020404 	andeq	r0, r2, #67108864	; 0x4000000
    2650:	880c0023 	stmdahi	ip, {r0, r1, r5}
    2654:	03000004 	movweq	r0, #4
    2658:	00530178 	subseq	r0, r3, r8, ror r1
    265c:	01040000 	mrseq	r0, (UNDEF: 4)
    2660:	00230201 	eoreq	r0, r3, r1, lsl #4
    2664:	0014180c 	andseq	r1, r4, ip, lsl #16
    2668:	01790300 	cmneq	r9, r0, lsl #6
    266c:	00000053 	andeq	r0, r0, r3, asr r0
    2670:	02000104 	andeq	r0, r0, #1
    2674:	0d000023 	stceq	0, cr0, [r0, #-140]	; 0xffffff74
    2678:	000006c5 	andeq	r0, r0, r5, asr #13
    267c:	6c017a03 	stcvs	10, cr7, [r1], {3}
    2680:	0e000014 	mcreq	0, 0, r0, cr0, cr4, {0}
    2684:	000006ec 	andeq	r0, r0, ip, ror #13
    2688:	017c0304 	cmneq	ip, r4, lsl #6
    268c:	00001548 	andeq	r1, r0, r8, asr #10
    2690:	000f430c 	andeq	r4, pc, ip, lsl #6
    2694:	017d0300 	cmneq	sp, r0, lsl #6
    2698:	00000053 	andeq	r0, r0, r3, asr r0
    269c:	021c0404 	andseq	r0, ip, #67108864	; 0x4000000
    26a0:	260c0023 	strcs	r0, [ip], -r3, lsr #32
    26a4:	03000012 	movweq	r0, #18
    26a8:	0053017e 	subseq	r0, r3, lr, ror r1
    26ac:	14040000 	strne	r0, [r4], #-0
    26b0:	00230208 	eoreq	r0, r3, r8, lsl #4
    26b4:	0006a90c 	andeq	sl, r6, ip, lsl #18
    26b8:	017f0300 	cmneq	pc, r0, lsl #6
    26bc:	00000053 	andeq	r0, r0, r3, asr r0
    26c0:	02060204 	andeq	r0, r6, #1073741824	; 0x40000000
    26c4:	300c0023 	andcc	r0, ip, r3, lsr #32
    26c8:	03000012 	movweq	r0, #18
    26cc:	00530180 	subseq	r0, r3, r0, lsl #3
    26d0:	05040000 	streq	r0, [r4, #-0]
    26d4:	00230201 	eoreq	r0, r3, r1, lsl #4
    26d8:	0014180c 	andseq	r1, r4, ip, lsl #16
    26dc:	01810300 	orreq	r0, r1, r0, lsl #6
    26e0:	00000053 	andeq	r0, r0, r3, asr r0
    26e4:	02000104 	andeq	r0, r0, #1
    26e8:	0d000023 	stceq	0, cr0, [r0, #-140]	; 0xffffff74
    26ec:	00000a51 	andeq	r0, r0, r1, asr sl
    26f0:	e0018203 	and	r8, r1, r3, lsl #4
    26f4:	0e000014 	mcreq	0, 0, r0, cr0, cr4, {0}
    26f8:	0000108a 	andeq	r1, r0, sl, lsl #1
    26fc:	01840304 	orreq	r0, r4, r4, lsl #6
    2700:	00001616 	andeq	r1, r0, r6, lsl r6
    2704:	000db20c 	andeq	fp, sp, ip, lsl #4
    2708:	01850300 	orreq	r0, r5, r0, lsl #6
    270c:	00000053 	andeq	r0, r0, r3, asr r0
    2710:	021c0404 	andseq	r0, ip, #67108864	; 0x4000000
    2714:	260c0023 	strcs	r0, [ip], -r3, lsr #32
    2718:	03000012 	movweq	r0, #18
    271c:	00530186 	subseq	r0, r3, r6, lsl #3
    2720:	04040000 	streq	r0, [r4], #-0
    2724:	00230218 	eoreq	r0, r3, r8, lsl r2
    2728:	00077b0c 	andeq	r7, r7, ip, lsl #22
    272c:	01870300 	orreq	r0, r7, r0, lsl #6
    2730:	00000053 	andeq	r0, r0, r3, asr r0
    2734:	02170104 	andseq	r0, r7, #1
    2738:	300c0023 	andcc	r0, ip, r3, lsr #32
    273c:	03000012 	movweq	r0, #18
    2740:	00530188 	subseq	r0, r3, r8, lsl #3
    2744:	06040000 	streq	r0, [r4], -r0
    2748:	00230211 	eoreq	r0, r3, r1, lsl r2
    274c:	00127a0c 	andseq	r7, r2, ip, lsl #20
    2750:	01890300 	orreq	r0, r9, r0, lsl #6
    2754:	00000053 	andeq	r0, r0, r3, asr r0
    2758:	02100104 	andseq	r0, r0, #1
    275c:	c20c0023 	andgt	r0, ip, #35	; 0x23
    2760:	03000012 	movweq	r0, #18
    2764:	0053018a 	subseq	r0, r3, sl, lsl #3
    2768:	04040000 	streq	r0, [r4], #-0
    276c:	0023020c 	eoreq	r0, r3, ip, lsl #4
    2770:	00123a0c 	andseq	r3, r2, ip, lsl #20
    2774:	018b0300 	orreq	r0, fp, r0, lsl #6
    2778:	00000053 	andeq	r0, r0, r3, asr r0
    277c:	02080404 	andeq	r0, r8, #67108864	; 0x4000000
    2780:	9d0c0023 	stcls	0, cr0, [ip, #-140]	; 0xffffff74
    2784:	03000012 	movweq	r0, #18
    2788:	0053018c 	subseq	r0, r3, ip, lsl #3
    278c:	01040000 	mrseq	r0, (UNDEF: 4)
    2790:	00230207 	eoreq	r0, r3, r7, lsl #4
    2794:	0012440c 	andseq	r4, r2, ip, lsl #8
    2798:	018d0300 	orreq	r0, sp, r0, lsl #6
    279c:	00000053 	andeq	r0, r0, r3, asr r0
    27a0:	02010604 	andeq	r0, r1, #4194304	; 0x400000
    27a4:	330c0023 	movwcc	r0, #49187	; 0xc023
    27a8:	0300000c 	movweq	r0, #12
    27ac:	0053018e 	subseq	r0, r3, lr, lsl #3
    27b0:	01040000 	mrseq	r0, (UNDEF: 4)
    27b4:	00230200 	eoreq	r0, r3, r0, lsl #4
    27b8:	14240d00 	strtne	r0, [r4], #-3328	; 0xd00
    27bc:	8f030000 	svchi	0x00030000
    27c0:	00155401 	andseq	r5, r5, r1, lsl #8
    27c4:	0ebd0e00 	cdpeq	14, 11, cr0, cr13, cr0, {0}
    27c8:	03040000 	movweq	r0, #16384	; 0x4000
    27cc:	16d20193 			; <UNDEFINED> instruction: 0x16d20193
    27d0:	430c0000 	movwmi	r0, #49152	; 0xc000
    27d4:	0300000f 	movweq	r0, #15
    27d8:	00530194 			; <UNDEFINED> instruction: 0x00530194
    27dc:	04040000 	streq	r0, [r4], #-0
    27e0:	0023021c 	eoreq	r0, r3, ip, lsl r2
    27e4:	0012260c 	andseq	r2, r2, ip, lsl #12
    27e8:	01950300 	orrseq	r0, r5, r0, lsl #6
    27ec:	00000053 	andeq	r0, r0, r3, asr r0
    27f0:	02150704 	andseq	r0, r5, #1048576	; 0x100000
    27f4:	770c0023 	strvc	r0, [ip, -r3, lsr #32]
    27f8:	03000007 	movweq	r0, #7
    27fc:	00530196 			; <UNDEFINED> instruction: 0x00530196
    2800:	01040000 	mrseq	r0, (UNDEF: 4)
    2804:	00230214 	eoreq	r0, r3, r4, lsl r2
    2808:	0012300c 	andseq	r3, r2, ip
    280c:	01970300 	orrseq	r0, r7, r0, lsl #6
    2810:	00000053 	andeq	r0, r0, r3, asr r0
    2814:	02110304 	andseq	r0, r1, #268435456	; 0x10000000
    2818:	760c0023 	strvc	r0, [ip], -r3, lsr #32
    281c:	03000012 	movweq	r0, #18
    2820:	00530198 			; <UNDEFINED> instruction: 0x00530198
    2824:	01040000 	mrseq	r0, (UNDEF: 4)
    2828:	00230210 	eoreq	r0, r3, r0, lsl r2
    282c:	00123a0c 	andseq	r3, r2, ip, lsl #20
    2830:	01990300 	orrseq	r0, r9, r0, lsl #6
    2834:	00000053 	andeq	r0, r0, r3, asr r0
    2838:	02080804 	andeq	r0, r8, #262144	; 0x40000
    283c:	990c0023 	stmdbls	ip, {r0, r1, r5}
    2840:	03000012 	movweq	r0, #18
    2844:	0053019a 			; <UNDEFINED> instruction: 0x0053019a
    2848:	02040000 	andeq	r0, r4, #0
    284c:	00230206 	eoreq	r0, r3, r6, lsl #4
    2850:	0012440c 	andseq	r4, r2, ip, lsl #8
    2854:	019b0300 	orrseq	r0, fp, r0, lsl #6
    2858:	00000053 	andeq	r0, r0, r3, asr r0
    285c:	02010504 	andeq	r0, r1, #16777216	; 0x1000000
    2860:	2f0c0023 	svccs	0x000c0023
    2864:	0300000c 	movweq	r0, #12
    2868:	0053019c 			; <UNDEFINED> instruction: 0x0053019c
    286c:	01040000 	mrseq	r0, (UNDEF: 4)
    2870:	00230200 	eoreq	r0, r3, r0, lsl #4
    2874:	11c70d00 	bicne	r0, r7, r0, lsl #26
    2878:	9d030000 	stcls	0, cr0, [r3, #-0]
    287c:	00162201 	andseq	r2, r6, r1, lsl #4
    2880:	0b6f0e00 	bleq	1bc6088 <__dram_freq_start+0x1bc6088>
    2884:	03040000 	movweq	r0, #16384	; 0x4000
    2888:	175801a1 	ldrbne	r0, [r8, -r1, lsr #3]
    288c:	430c0000 	movwmi	r0, #49152	; 0xc000
    2890:	0300000f 	movweq	r0, #15
    2894:	005301a2 	subseq	r0, r3, r2, lsr #3
    2898:	05040000 	streq	r0, [r4, #-0]
    289c:	0023021b 	eoreq	r0, r3, fp, lsl r2
    28a0:	0012260c 	andseq	r2, r2, ip, lsl #12
    28a4:	01a30300 			; <UNDEFINED> instruction: 0x01a30300
    28a8:	00000053 	andeq	r0, r0, r3, asr r0
    28ac:	02081304 	andeq	r1, r8, #268435456	; 0x10000000
    28b0:	a90c0023 	stmdbge	ip, {r0, r1, r5}
    28b4:	03000006 	movweq	r0, #6
    28b8:	005301a4 	subseq	r0, r3, r4, lsr #3
    28bc:	03040000 	movweq	r0, #16384	; 0x4000
    28c0:	00230205 	eoreq	r0, r3, r5, lsl #4
    28c4:	0012300c 	andseq	r3, r2, ip
    28c8:	01a50300 			; <UNDEFINED> instruction: 0x01a50300
    28cc:	00000053 	andeq	r0, r0, r3, asr r0
    28d0:	02020304 	andeq	r0, r2, #268435456	; 0x10000000
    28d4:	880c0023 	stmdahi	ip, {r0, r1, r5}
    28d8:	03000004 	movweq	r0, #4
    28dc:	005301a6 	subseq	r0, r3, r6, lsr #3
    28e0:	01040000 	mrseq	r0, (UNDEF: 4)
    28e4:	00230201 	eoreq	r0, r3, r1, lsl #4
    28e8:	0014180c 	andseq	r1, r4, ip, lsl #16
    28ec:	01a70300 			; <UNDEFINED> instruction: 0x01a70300
    28f0:	00000053 	andeq	r0, r0, r3, asr r0
    28f4:	02000104 	andeq	r0, r0, #1
    28f8:	0d000023 	stceq	0, cr0, [r0, #-140]	; 0xffffff74
    28fc:	00000acd 	andeq	r0, r0, sp, asr #21
    2900:	de01a803 	cdple	8, 0, cr10, cr1, cr3, {0}
    2904:	0e000016 	mcreq	0, 0, r0, cr0, cr6, {0}
    2908:	00001506 	andeq	r1, r0, r6, lsl #10
    290c:	01aa0304 			; <UNDEFINED> instruction: 0x01aa0304
    2910:	000017cc 	andeq	r1, r0, ip, asr #15
    2914:	0004880c 	andeq	r8, r4, ip, lsl #16
    2918:	01ab0300 			; <UNDEFINED> instruction: 0x01ab0300
    291c:	00000053 	andeq	r0, r0, r3, asr r0
    2920:	021f0104 	andseq	r0, pc, #1
    2924:	260c0023 	strcs	r0, [ip], -r3, lsr #32
    2928:	03000012 	movweq	r0, #18
    292c:	005301ac 	subseq	r0, r3, ip, lsr #3
    2930:	0f040000 	svceq	0x00040000
    2934:	00230210 	eoreq	r0, r3, r0, lsl r2
    2938:	000f430c 	andeq	r4, pc, ip, lsl #6
    293c:	01ad0300 			; <UNDEFINED> instruction: 0x01ad0300
    2940:	00000053 	andeq	r0, r0, r3, asr r0
    2944:	020d0304 	andeq	r0, sp, #268435456	; 0x10000000
    2948:	300c0023 	andcc	r0, ip, r3, lsr #32
    294c:	03000012 	movweq	r0, #18
    2950:	005301ae 	subseq	r0, r3, lr, lsr #3
    2954:	0c040000 	stceq	0, cr0, [r4], {-0}
    2958:	00230201 	eoreq	r0, r3, r1, lsl #4
    295c:	0014180c 	andseq	r1, r4, ip, lsl #16
    2960:	01af0300 			; <UNDEFINED> instruction: 0x01af0300
    2964:	00000053 	andeq	r0, r0, r3, asr r0
    2968:	02000104 	andeq	r0, r0, #1
    296c:	0d000023 	stceq	0, cr0, [r0, #-140]	; 0xffffff74
    2970:	0000115e 	andeq	r1, r0, lr, asr r1
    2974:	6401b003 	strvs	fp, [r1], #-3
    2978:	0e000017 	mcreq	0, 0, r0, cr0, cr7, {0}
    297c:	00000f0c 	andeq	r0, r0, ip, lsl #30
    2980:	01b20304 			; <UNDEFINED> instruction: 0x01b20304
    2984:	0000180a 	andeq	r1, r0, sl, lsl #16
    2988:	0012260c 	andseq	r2, r2, ip, lsl #12
    298c:	01b30300 			; <UNDEFINED> instruction: 0x01b30300
    2990:	00000053 	andeq	r0, r0, r3, asr r0
    2994:	02011f04 	andeq	r1, r1, #16
    2998:	180c0023 	stmdane	ip, {r0, r1, r5}
    299c:	03000014 	movweq	r0, #20
    29a0:	005301b4 	ldrheq	r0, [r3], #-20	; 0xffffffec
    29a4:	01040000 	mrseq	r0, (UNDEF: 4)
    29a8:	00230200 	eoreq	r0, r3, r0, lsl #4
    29ac:	05820d00 	streq	r0, [r2, #3328]	; 0xd00
    29b0:	b5030000 	strlt	r0, [r3, #-0]
    29b4:	0017d801 	andseq	sp, r7, r1, lsl #16
    29b8:	09e80e00 	stmibeq	r8!, {r9, sl, fp}^
    29bc:	03040000 	movweq	r0, #16384	; 0x4000
    29c0:	184801b7 	stmdane	r8, {r0, r1, r2, r4, r5, r7, r8}^
    29c4:	260c0000 	strcs	r0, [ip], -r0
    29c8:	03000012 	movweq	r0, #18
    29cc:	005301b8 	ldrheq	r0, [r3], #-24	; 0xffffffe8
    29d0:	1f040000 	svcne	0x00040000
    29d4:	00230201 	eoreq	r0, r3, r1, lsl #4
    29d8:	0014180c 	andseq	r1, r4, ip, lsl #16
    29dc:	01b90300 			; <UNDEFINED> instruction: 0x01b90300
    29e0:	00000053 	andeq	r0, r0, r3, asr r0
    29e4:	02000104 	andeq	r0, r0, #1
    29e8:	0d000023 	stceq	0, cr0, [r0, #-140]	; 0xffffff74
    29ec:	0000151c 	andeq	r1, r0, ip, lsl r5
    29f0:	1601ba03 	strne	fp, [r1], -r3, lsl #20
    29f4:	0e000018 	mcreq	0, 0, r0, cr0, cr8, {0}
    29f8:	00001176 	andeq	r1, r0, r6, ror r1
    29fc:	01bc0304 			; <UNDEFINED> instruction: 0x01bc0304
    2a00:	000018e0 	andeq	r1, r0, r0, ror #17
    2a04:	000f430c 	andeq	r4, pc, ip, lsl #6
    2a08:	01bd0300 			; <UNDEFINED> instruction: 0x01bd0300
    2a0c:	00000053 	andeq	r0, r0, r3, asr r0
    2a10:	021c0404 	andseq	r0, ip, #67108864	; 0x4000000
    2a14:	260c0023 	strcs	r0, [ip], -r3, lsr #32
    2a18:	03000012 	movweq	r0, #18
    2a1c:	005301be 	ldrheq	r0, [r3], #-30	; 0xffffffe2
    2a20:	0c040000 	stceq	0, cr0, [r4], {-0}
    2a24:	00230210 	eoreq	r0, r3, r0, lsl r2
    2a28:	0004880c 	andeq	r8, r4, ip, lsl #16
    2a2c:	01bf0300 			; <UNDEFINED> instruction: 0x01bf0300
    2a30:	00000053 	andeq	r0, r0, r3, asr r0
    2a34:	020f0104 	andeq	r0, pc, #1
    2a38:	300c0023 	andcc	r0, ip, r3, lsr #32
    2a3c:	03000012 	movweq	r0, #18
    2a40:	005301c0 	subseq	r0, r3, r0, asr #3
    2a44:	07040000 	streq	r0, [r4, -r0]
    2a48:	00230208 	eoreq	r0, r3, r8, lsl #4
    2a4c:	0006a90c 	andeq	sl, r6, ip, lsl #18
    2a50:	01c10300 	biceq	r0, r1, r0, lsl #6
    2a54:	00000053 	andeq	r0, r0, r3, asr r0
    2a58:	02070104 	andeq	r0, r7, #1
    2a5c:	3a0c0023 	bcc	302af0 <__dram_freq_start+0x302af0>
    2a60:	03000012 	movweq	r0, #18
    2a64:	005301c2 	subseq	r0, r3, r2, asr #3
    2a68:	06040000 	streq	r0, [r4], -r0
    2a6c:	00230201 	eoreq	r0, r3, r1, lsl #4
    2a70:	0014180c 	andseq	r1, r4, ip, lsl #16
    2a74:	01c30300 	biceq	r0, r3, r0, lsl #6
    2a78:	00000053 	andeq	r0, r0, r3, asr r0
    2a7c:	02000104 	andeq	r0, r0, #1
    2a80:	0d000023 	stceq	0, cr0, [r0, #-140]	; 0xffffff74
    2a84:	000010cc 	andeq	r1, r0, ip, asr #1
    2a88:	5401c403 	strpl	ip, [r1], #-1027	; 0x403
    2a8c:	0e000018 	mcreq	0, 0, r0, cr0, cr8, {0}
    2a90:	0000061d 	andeq	r0, r0, sp, lsl r6
    2a94:	01c60304 	biceq	r0, r6, r4, lsl #6
    2a98:	0000191e 	andeq	r1, r0, lr, lsl r9
    2a9c:	0004880c 	andeq	r8, r4, ip, lsl #16
    2aa0:	01c70300 	biceq	r0, r7, r0, lsl #6
    2aa4:	00000053 	andeq	r0, r0, r3, asr r0
    2aa8:	021f0104 	andseq	r0, pc, #1
    2aac:	260c0023 	strcs	r0, [ip], -r3, lsr #32
    2ab0:	03000012 	movweq	r0, #18
    2ab4:	005301c8 	subseq	r0, r3, r8, asr #3
    2ab8:	1f040000 	svcne	0x00040000
    2abc:	00230200 	eoreq	r0, r3, r0, lsl #4
    2ac0:	113c0d00 	teqne	ip, r0, lsl #26
    2ac4:	c9030000 	stmdbgt	r3, {}	; <UNPREDICTABLE>
    2ac8:	0018ec01 	andseq	lr, r8, r1, lsl #24
    2acc:	07330e00 	ldreq	r0, [r3, -r0, lsl #28]!
    2ad0:	03040000 	movweq	r0, #16384	; 0x4000
    2ad4:	199201cb 	ldmibne	r2, {r0, r1, r3, r6, r7, r8}
    2ad8:	430c0000 	movwmi	r0, #49152	; 0xc000
    2adc:	0300000f 	movweq	r0, #15
    2ae0:	005301cc 	subseq	r0, r3, ip, asr #3
    2ae4:	04040000 	streq	r0, [r4], #-0
    2ae8:	0023021c 	eoreq	r0, r3, ip, lsl r2
    2aec:	0012260c 	andseq	r2, r2, ip, lsl #12
    2af0:	01cd0300 	biceq	r0, sp, r0, lsl #6
    2af4:	00000053 	andeq	r0, r0, r3, asr r0
    2af8:	02081404 	andeq	r1, r8, #67108864	; 0x4000000
    2afc:	a90c0023 	stmdbge	ip, {r0, r1, r5}
    2b00:	03000006 	movweq	r0, #6
    2b04:	005301ce 	subseq	r0, r3, lr, asr #3
    2b08:	02040000 	andeq	r0, r4, #0
    2b0c:	00230206 	eoreq	r0, r3, r6, lsl #4
    2b10:	0012300c 	andseq	r3, r2, ip
    2b14:	01cf0300 	biceq	r0, pc, r0, lsl #6
    2b18:	00000053 	andeq	r0, r0, r3, asr r0
    2b1c:	02010504 	andeq	r0, r1, #16777216	; 0x1000000
    2b20:	180c0023 	stmdane	ip, {r0, r1, r5}
    2b24:	03000014 	movweq	r0, #20
    2b28:	005301d0 	ldrsbeq	r0, [r3], #-16
    2b2c:	01040000 	mrseq	r0, (UNDEF: 4)
    2b30:	00230200 	eoreq	r0, r3, r0, lsl #4
    2b34:	04d40d00 	ldrbeq	r0, [r4], #3328	; 0xd00
    2b38:	d1030000 	mrsle	r0, (UNDEF: 3)
    2b3c:	00192a01 	andseq	r2, r9, r1, lsl #20
    2b40:	0c6e0e00 	stcleq	14, cr0, [lr], #-0
    2b44:	03040000 	movweq	r0, #16384	; 0x4000
    2b48:	1a1801d3 	bne	60329c <__dram_freq_start+0x60329c>
    2b4c:	430c0000 	movwmi	r0, #49152	; 0xc000
    2b50:	0300000f 	movweq	r0, #15
    2b54:	005301d4 	ldrsbeq	r0, [r3], #-20	; 0xffffffec
    2b58:	04040000 	streq	r0, [r4], #-0
    2b5c:	0023021c 	eoreq	r0, r3, ip, lsl r2
    2b60:	0012260c 	andseq	r2, r2, ip, lsl #12
    2b64:	01d50300 	bicseq	r0, r5, r0, lsl #6
    2b68:	00000053 	andeq	r0, r0, r3, asr r0
    2b6c:	02081404 	andeq	r1, r8, #67108864	; 0x4000000
    2b70:	a90c0023 	stmdbge	ip, {r0, r1, r5}
    2b74:	03000006 	movweq	r0, #6
    2b78:	005301d6 	ldrsbeq	r0, [r3], #-22	; 0xffffffea
    2b7c:	03040000 	movweq	r0, #16384	; 0x4000
    2b80:	00230205 	eoreq	r0, r3, r5, lsl #4
    2b84:	0012300c 	andseq	r3, r2, ip
    2b88:	01d70300 	bicseq	r0, r7, r0, lsl #6
    2b8c:	00000053 	andeq	r0, r0, r3, asr r0
    2b90:	02020304 	andeq	r0, r2, #268435456	; 0x10000000
    2b94:	880c0023 	stmdahi	ip, {r0, r1, r5}
    2b98:	03000004 	movweq	r0, #4
    2b9c:	005301d8 	ldrsbeq	r0, [r3], #-24	; 0xffffffe8
    2ba0:	01040000 	mrseq	r0, (UNDEF: 4)
    2ba4:	00230201 	eoreq	r0, r3, r1, lsl #4
    2ba8:	0014180c 	andseq	r1, r4, ip, lsl #16
    2bac:	01d90300 	bicseq	r0, r9, r0, lsl #6
    2bb0:	00000053 	andeq	r0, r0, r3, asr r0
    2bb4:	02000104 	andeq	r0, r0, #1
    2bb8:	0d000023 	stceq	0, cr0, [r0, #-140]	; 0xffffff74
    2bbc:	00000b1d 	andeq	r0, r0, sp, lsl fp
    2bc0:	9e01da03 	vmlals.f32	s26, s2, s6
    2bc4:	0e000019 	mcreq	0, 0, r0, cr0, cr9, {0}
    2bc8:	00000ba3 	andeq	r0, r0, r3, lsr #23
    2bcc:	01dc0304 	bicseq	r0, ip, r4, lsl #6
    2bd0:	00001ab0 			; <UNDEFINED> instruction: 0x00001ab0
    2bd4:	00140b0c 	andseq	r0, r4, ip, lsl #22
    2bd8:	01dd0300 	bicseq	r0, sp, r0, lsl #6
    2bdc:	00000053 	andeq	r0, r0, r3, asr r0
    2be0:	021c0404 	andseq	r0, ip, #67108864	; 0x4000000
    2be4:	260c0023 	strcs	r0, [ip], -r3, lsr #32
    2be8:	03000012 	movweq	r0, #18
    2bec:	005301de 	ldrsbeq	r0, [r3], #-30	; 0xffffffe2
    2bf0:	0c040000 	stceq	0, cr0, [r4], {-0}
    2bf4:	00230210 	eoreq	r0, r3, r0, lsl r2
    2bf8:	00130e0c 	andseq	r0, r3, ip, lsl #28
    2bfc:	01df0300 	bicseq	r0, pc, r0, lsl #6
    2c00:	00000053 	andeq	r0, r0, r3, asr r0
    2c04:	020e0204 	andeq	r0, lr, #1073741824	; 0x40000000
    2c08:	300c0023 	andcc	r0, ip, r3, lsr #32
    2c0c:	03000012 	movweq	r0, #18
    2c10:	005301e0 	subseq	r0, r3, r0, ror #3
    2c14:	06040000 	streq	r0, [r4], -r0
    2c18:	00230208 	eoreq	r0, r3, r8, lsl #4
    2c1c:	0006a90c 	andeq	sl, r6, ip, lsl #18
    2c20:	01e10300 	mvneq	r0, r0, lsl #6
    2c24:	00000053 	andeq	r0, r0, r3, asr r0
    2c28:	02060204 	andeq	r0, r6, #1073741824	; 0x40000000
    2c2c:	3a0c0023 	bcc	302cc0 <__dram_freq_start+0x302cc0>
    2c30:	03000012 	movweq	r0, #18
    2c34:	005301e2 	subseq	r0, r3, r2, ror #3
    2c38:	05040000 	streq	r0, [r4, #-0]
    2c3c:	00230201 	eoreq	r0, r3, r1, lsl #4
    2c40:	00141c0c 	andseq	r1, r4, ip, lsl #24
    2c44:	01e30300 	mvneq	r0, r0, lsl #6
    2c48:	00000053 	andeq	r0, r0, r3, asr r0
    2c4c:	02000104 	andeq	r0, r0, #1
    2c50:	0d000023 	stceq	0, cr0, [r0, #-140]	; 0xffffff74
    2c54:	00000706 	andeq	r0, r0, r6, lsl #14
    2c58:	2401e403 	strcs	lr, [r1], #-1027	; 0x403
    2c5c:	0e00001a 	mcreq	0, 0, r0, cr0, cr10, {0}
    2c60:	00001455 	andeq	r1, r0, r5, asr r4
    2c64:	01e60304 	mvneq	r0, r4, lsl #6
    2c68:	00001b48 	andeq	r1, r0, r8, asr #22
    2c6c:	00050a0c 	andeq	r0, r5, ip, lsl #20
    2c70:	01e70300 	mvneq	r0, r0, lsl #6
    2c74:	00000053 	andeq	r0, r0, r3, asr r0
    2c78:	021e0204 	andseq	r0, lr, #1073741824	; 0x40000000
    2c7c:	7e0c0023 	cdpvc	0, 0, cr0, cr12, cr3, {1}
    2c80:	03000015 	movweq	r0, #21
    2c84:	005301e8 	subseq	r0, r3, r8, ror #3
    2c88:	01040000 	mrseq	r0, (UNDEF: 4)
    2c8c:	0023021d 	eoreq	r0, r3, sp, lsl r2
    2c90:	000c0b0c 	andeq	r0, ip, ip, lsl #22
    2c94:	01e90300 	mvneq	r0, r0, lsl #6
    2c98:	00000053 	andeq	r0, r0, r3, asr r0
    2c9c:	021c0104 	andseq	r0, ip, #1
    2ca0:	580c0023 	stmdapl	ip, {r0, r1, r5}
    2ca4:	03000005 	movweq	r0, #5
    2ca8:	005301ea 	subseq	r0, r3, sl, ror #3
    2cac:	01040000 	mrseq	r0, (UNDEF: 4)
    2cb0:	0023021b 	eoreq	r0, r3, fp, lsl r2
    2cb4:	0006ba0c 	andeq	fp, r6, ip, lsl #20
    2cb8:	01eb0300 	mvneq	r0, r0, lsl #6
    2cbc:	00000053 	andeq	r0, r0, r3, asr r0
    2cc0:	02180304 	andseq	r0, r8, #268435456	; 0x10000000
    2cc4:	430c0023 	movwmi	r0, #49187	; 0xc023
    2cc8:	0300000f 	movweq	r0, #15
    2ccc:	005301ec 	subseq	r0, r3, ip, ror #3
    2cd0:	02040000 	andeq	r0, r4, #0
    2cd4:	00230216 	eoreq	r0, r3, r6, lsl r2
    2cd8:	0012260c 	andseq	r2, r2, ip, lsl #12
    2cdc:	01ed0300 	mvneq	r0, r0, lsl #6
    2ce0:	00000053 	andeq	r0, r0, r3, asr r0
    2ce4:	02001604 	andeq	r1, r0, #4194304	; 0x400000
    2ce8:	0d000023 	stceq	0, cr0, [r0, #-140]	; 0xffffff74
    2cec:	00000fe1 	andeq	r0, r0, r1, ror #31
    2cf0:	bc01ee03 	stclt	14, cr14, [r1], {3}
    2cf4:	0e00001a 	mcreq	0, 0, r0, cr0, cr10, {0}
    2cf8:	00000c4e 	andeq	r0, r0, lr, asr #24
    2cfc:	01f00304 	mvnseq	r0, r4, lsl #6
    2d00:	00001baa 	andeq	r1, r0, sl, lsr #23
    2d04:	000d360c 	andeq	r3, sp, ip, lsl #12
    2d08:	01f10300 	mvnseq	r0, r0, lsl #6
    2d0c:	00000053 	andeq	r0, r0, r3, asr r0
    2d10:	021f0104 	andseq	r0, pc, #1
    2d14:	5d0c0023 	stcpl	0, cr0, [ip, #-140]	; 0xffffff74
    2d18:	03000007 	movweq	r0, #7
    2d1c:	005301f2 	ldrsheq	r0, [r3], #-18	; 0xffffffee
    2d20:	01040000 	mrseq	r0, (UNDEF: 4)
    2d24:	0023021e 	eoreq	r0, r3, lr, lsl r2
    2d28:	000b630c 	andeq	r6, fp, ip, lsl #6
    2d2c:	01f30300 	mvnseq	r0, r0, lsl #6
    2d30:	00000053 	andeq	r0, r0, r3, asr r0
    2d34:	021d0104 	andseq	r0, sp, #1
    2d38:	260c0023 	strcs	r0, [ip], -r3, lsr #32
    2d3c:	03000012 	movweq	r0, #18
    2d40:	005301f4 	ldrsheq	r0, [r3], #-20	; 0xffffffec
    2d44:	1d040000 	stcne	0, cr0, [r4, #-0]
    2d48:	00230200 	eoreq	r0, r3, r0, lsl #4
    2d4c:	0e290d00 	cdpeq	13, 2, cr0, cr9, cr0, {0}
    2d50:	f5030000 			; <UNDEFINED> instruction: 0xf5030000
    2d54:	001b5401 	andseq	r5, fp, r1, lsl #8
    2d58:	16230e00 	strtne	r0, [r3], -r0, lsl #28
    2d5c:	03040000 	movweq	r0, #16384	; 0x4000
    2d60:	1bd301f7 	blne	ff4c3544 <__bss_end+0xf4c040c>
    2d64:	630f0000 	movwvs	r0, #61440	; 0xf000
    2d68:	03006c74 	movweq	r6, #3188	; 0xc74
    2d6c:	005301f8 	ldrsheq	r0, [r3], #-24	; 0xffffffe8
    2d70:	23020000 	movwcs	r0, #8192	; 0x2000
    2d74:	570d0000 	strpl	r0, [sp, -r0]
    2d78:	0300000d 	movweq	r0, #13
    2d7c:	1bb601f9 	blne	fed83568 <__bss_end+0xed80430>
    2d80:	a50e0000 	strge	r0, [lr, #-0]
    2d84:	04000012 	streq	r0, [r0], #-18
    2d88:	1101fb03 	tstne	r1, r3, lsl #22
    2d8c:	0c00001c 	stceq	0, cr0, [r0], {28}
    2d90:	00001226 	andeq	r1, r0, r6, lsr #4
    2d94:	5301fc03 	movwpl	pc, #7171	; 0x1c03	; <UNPREDICTABLE>
    2d98:	04000000 	streq	r0, [r0], #-0
    2d9c:	2302011f 	movwcs	r0, #8479	; 0x211f
    2da0:	161d0c00 	ldrne	r0, [sp], -r0, lsl #24
    2da4:	fd030000 	stc2	0, cr0, [r3, #-0]
    2da8:	00005301 	andeq	r5, r0, r1, lsl #6
    2dac:	00010400 	andeq	r0, r1, r0, lsl #8
    2db0:	00002302 	andeq	r2, r0, r2, lsl #6
    2db4:	000a0f0d 	andeq	r0, sl, sp, lsl #30
    2db8:	01fe0300 	mvnseq	r0, r0, lsl #6
    2dbc:	00001bdf 	ldrdeq	r1, [r0], -pc	; <UNPREDICTABLE>
    2dc0:	00086a0e 	andeq	r6, r8, lr, lsl #20
    2dc4:	00030400 	andeq	r0, r3, r0, lsl #8
    2dc8:	001c8502 	andseq	r8, ip, r2, lsl #10
    2dcc:	0f430c00 	svceq	0x00430c00
    2dd0:	01030000 	mrseq	r0, (UNDEF: 3)
    2dd4:	00005302 	andeq	r5, r0, r2, lsl #6
    2dd8:	1c040400 	cfstrsne	mvf0, [r4], {-0}
    2ddc:	0c002302 	stceq	3, cr2, [r0], {2}
    2de0:	00001226 	andeq	r1, r0, r6, lsr #4
    2de4:	53020203 	movwpl	r0, #8707	; 0x2203
    2de8:	04000000 	streq	r0, [r0], #-0
    2dec:	23020814 	movwcs	r0, #10260	; 0x2814
    2df0:	06a90c00 	strteq	r0, [r9], r0, lsl #24
    2df4:	03030000 	movweq	r0, #12288	; 0x3000
    2df8:	00005302 	andeq	r5, r0, r2, lsl #6
    2dfc:	06020400 	streq	r0, [r2], -r0, lsl #8
    2e00:	0c002302 	stceq	3, cr2, [r0], {2}
    2e04:	00001230 	andeq	r1, r0, r0, lsr r2
    2e08:	53020403 	movwpl	r0, #9219	; 0x2403
    2e0c:	04000000 	streq	r0, [r0], #-0
    2e10:	23020105 	movwcs	r0, #8453	; 0x2105
    2e14:	161d0c00 	ldrne	r0, [sp], -r0, lsl #24
    2e18:	05030000 	streq	r0, [r3, #-0]
    2e1c:	00005302 	andeq	r5, r0, r2, lsl #6
    2e20:	00010400 	andeq	r0, r1, r0, lsl #8
    2e24:	00002302 	andeq	r2, r0, r2, lsl #6
    2e28:	00081a0d 	andeq	r1, r8, sp, lsl #20
    2e2c:	02060300 	andeq	r0, r6, #0
    2e30:	00001c1d 	andeq	r1, r0, sp, lsl ip
    2e34:	0005130e 	andeq	r1, r5, lr, lsl #6
    2e38:	0a030400 	beq	c3e40 <__dram_freq_start+0xc3e40>
    2e3c:	001d2f02 	andseq	r2, sp, r2, lsl #30
    2e40:	12260c00 	eorne	r0, r6, #0
    2e44:	0b030000 	bleq	c2e4c <__dram_freq_start+0xc2e4c>
    2e48:	00005302 	andeq	r5, r0, r2, lsl #6
    2e4c:	18080400 	stmdane	r8, {sl}
    2e50:	0c002302 	stceq	3, cr2, [r0], {2}
    2e54:	0000140b 	andeq	r1, r0, fp, lsl #8
    2e58:	53020c03 	movwpl	r0, #11267	; 0x2c03
    2e5c:	04000000 	streq	r0, [r0], #-0
    2e60:	23021305 	movwcs	r1, #8965	; 0x2305
    2e64:	12300c00 	eorsne	r0, r0, #0
    2e68:	0d030000 	stceq	0, cr0, [r3, #-0]
    2e6c:	00005302 	andeq	r5, r0, r2, lsl #6
    2e70:	0c070400 	cfstrseq	mvf0, [r7], {-0}
    2e74:	0c002302 	stceq	3, cr2, [r0], {2}
    2e78:	0000130e 	andeq	r1, r0, lr, lsl #6
    2e7c:	53020e03 	movwpl	r0, #11779	; 0x2e03
    2e80:	04000000 	streq	r0, [r0], #-0
    2e84:	23020a02 	movwcs	r0, #10754	; 0x2a02
    2e88:	123a0c00 	eorsne	r0, sl, #0
    2e8c:	0f030000 	svceq	0x00030000
    2e90:	00005302 	andeq	r5, r0, r2, lsl #6
    2e94:	08020400 	stmdaeq	r2, {sl}
    2e98:	0c002302 	stceq	3, cr2, [r0], {2}
    2e9c:	000006a9 	andeq	r0, r0, r9, lsr #13
    2ea0:	53021003 	movwpl	r1, #8195	; 0x2003
    2ea4:	04000000 	streq	r0, [r0], #-0
    2ea8:	23020602 	movwcs	r0, #9730	; 0x2602
    2eac:	12440c00 	subne	r0, r4, #0
    2eb0:	11030000 	mrsne	r0, (UNDEF: 3)
    2eb4:	00005302 	andeq	r5, r0, r2, lsl #6
    2eb8:	01050400 	tsteq	r5, r0, lsl #8
    2ebc:	0c002302 	stceq	3, cr2, [r0], {2}
    2ec0:	0000161d 	andeq	r1, r0, sp, lsl r6
    2ec4:	53021203 	movwpl	r1, #8707	; 0x2203
    2ec8:	04000000 	streq	r0, [r0], #-0
    2ecc:	23020001 	movwcs	r0, #8193	; 0x2001
    2ed0:	d80d0000 	stmdale	sp, {}	; <UNPREDICTABLE>
    2ed4:	0300000e 	movweq	r0, #14
    2ed8:	1c910213 	lfmne	f0, 4, [r1], {19}
    2edc:	af100000 	svcge	0x00100000
    2ee0:	f8000015 			; <UNDEFINED> instruction: 0xf8000015
    2ee4:	02150301 	andseq	r0, r5, #67108864	; 0x4000000
    2ee8:	00002271 	andeq	r2, r0, r1, ror r2
    2eec:	000cd511 	andeq	sp, ip, r1, lsl r5
    2ef0:	02160300 	andseq	r0, r6, #0
    2ef4:	00002271 	andeq	r2, r0, r1, ror r2
    2ef8:	11002302 	tstne	r0, r2, lsl #6
    2efc:	00001226 	andeq	r1, r0, r6, lsr #4
    2f00:	98021703 	stmdals	r2, {r0, r1, r8, r9, sl, ip}
    2f04:	02000000 	andeq	r0, r0, #0
    2f08:	a7110423 	ldrge	r0, [r1, -r3, lsr #8]
    2f0c:	03000015 	movweq	r0, #21
    2f10:	22760218 	rsbscs	r0, r6, #-2147483647	; 0x80000001
    2f14:	23020000 	movwcs	r0, #8192	; 0x2000
    2f18:	12301108 	eorsne	r1, r0, #2
    2f1c:	19030000 	stmdbne	r3, {}	; <UNPREDICTABLE>
    2f20:	00009802 	andeq	r9, r0, r2, lsl #16
    2f24:	0c230200 	sfmeq	f0, 4, [r3], #-0
    2f28:	000e7511 	andeq	r7, lr, r1, lsl r5
    2f2c:	021a0300 	andseq	r0, sl, #0
    2f30:	0000227b 	andeq	r2, r0, fp, ror r2
    2f34:	11102302 	tstne	r0, r2, lsl #6
    2f38:	0000123a 	andeq	r1, r0, sl, lsr r2
    2f3c:	98021b03 	stmdals	r2, {r0, r1, r8, r9, fp, ip}
    2f40:	02000000 	andeq	r0, r0, #0
    2f44:	3d111423 	cfldrscc	mvf1, [r1, #-140]	; 0xffffff74
    2f48:	03000006 	movweq	r0, #6
    2f4c:	2280021c 	addcs	r0, r0, #-1073741823	; 0xc0000001
    2f50:	23020000 	movwcs	r0, #8192	; 0x2000
    2f54:	12441118 	subne	r1, r4, #6
    2f58:	1d030000 	stcne	0, cr0, [r3, #-0]
    2f5c:	00009802 	andeq	r9, r0, r2, lsl #16
    2f60:	1c230200 	sfmne	f0, 4, [r3], #-0
    2f64:	00115611 	andseq	r5, r1, r1, lsl r6
    2f68:	021e0300 	andseq	r0, lr, #0
    2f6c:	00002285 	andeq	r2, r0, r5, lsl #5
    2f70:	11202302 	teqne	r0, r2, lsl #6
    2f74:	0000124e 	andeq	r1, r0, lr, asr #4
    2f78:	98021f03 	stmdals	r2, {r0, r1, r8, r9, sl, fp, ip}
    2f7c:	02000000 	andeq	r0, r0, #0
    2f80:	50112423 	andspl	r2, r1, r3, lsr #8
    2f84:	03000009 	movweq	r0, #9
    2f88:	228a0220 	addcs	r0, sl, #2
    2f8c:	23020000 	movwcs	r0, #8192	; 0x2000
    2f90:	12581128 	subsne	r1, r8, #10
    2f94:	21030000 	mrscs	r0, (UNDEF: 3)
    2f98:	00009802 	andeq	r9, r0, r2, lsl #16
    2f9c:	2c230200 	sfmcs	f0, 4, [r3], #-0
    2fa0:	0013e911 	andseq	lr, r3, r1, lsl r9
    2fa4:	02220300 	eoreq	r0, r2, #0
    2fa8:	0000228f 	andeq	r2, r0, pc, lsl #5
    2fac:	11302302 	teqne	r0, r2, lsl #6
    2fb0:	00001262 	andeq	r1, r0, r2, ror #4
    2fb4:	a4022303 	strge	r2, [r2], #-771	; 0x303
    2fb8:	02000022 	andeq	r0, r0, #34	; 0x22
    2fbc:	91113423 	tstls	r1, r3, lsr #8
    2fc0:	0300000e 	movweq	r0, #14
    2fc4:	22a90224 	adccs	r0, r9, #1073741826	; 0x40000002
    2fc8:	23020000 	movwcs	r0, #8192	; 0x2000
    2fcc:	126c1140 	rsbne	r1, ip, #16
    2fd0:	25030000 	strcs	r0, [r3, #-0]
    2fd4:	0022ae02 	eoreq	sl, r2, r2, lsl #28
    2fd8:	44230200 	strtmi	r0, [r3], #-512	; 0x200
    2fdc:	0007ba11 	andeq	fp, r7, r1, lsl sl
    2fe0:	02260300 	eoreq	r0, r6, #0
    2fe4:	000022b3 			; <UNDEFINED> instruction: 0x000022b3
    2fe8:	11502302 	cmpne	r0, r2, lsl #6
    2fec:	00000e7d 	andeq	r0, r0, sp, ror lr
    2ff0:	b8022703 	stmdalt	r2, {r0, r1, r8, r9, sl, sp}
    2ff4:	02000022 	andeq	r0, r0, #34	; 0x22
    2ff8:	43115423 	tstmi	r1, #587202560	; 0x23000000
    2ffc:	0300000c 	movweq	r0, #12
    3000:	22bd0228 	adcscs	r0, sp, #-2147483646	; 0x80000002
    3004:	23020000 	movwcs	r0, #8192	; 0x2000
    3008:	076d1158 			; <UNDEFINED> instruction: 0x076d1158
    300c:	29030000 	stmdbcs	r3, {}	; <UNPREDICTABLE>
    3010:	00009802 	andeq	r9, r0, r2, lsl #16
    3014:	5c230200 	sfmpl	f0, 4, [r3], #-0
    3018:	000b5111 	andeq	r5, fp, r1, lsl r1
    301c:	022a0300 	eoreq	r0, sl, #0
    3020:	000022c2 	andeq	r2, r0, r2, asr #5
    3024:	11602302 	cmnne	r0, r2, lsl #6
    3028:	00000b5a 	andeq	r0, r0, sl, asr fp
    302c:	c7022b03 	strgt	r2, [r2, -r3, lsl #22]
    3030:	02000022 	andeq	r0, r0, #34	; 0x22
    3034:	64116423 	ldrvs	r6, [r1], #-1059	; 0x423
    3038:	03000007 	movweq	r0, #7
    303c:	22cc022c 	sbccs	r0, ip, #-1073741822	; 0xc0000002
    3040:	23020000 	movwcs	r0, #8192	; 0x2000
    3044:	15751168 	ldrbne	r1, [r5, #-360]!	; 0x168
    3048:	2d030000 	stccs	0, cr0, [r3, #-0]
    304c:	0022d102 	eoreq	sp, r2, r2, lsl #2
    3050:	6c230200 	sfmvs	f0, 4, [r3], #-0
    3054:	00128311 	andseq	r8, r2, r1, lsl r3
    3058:	022e0300 	eoreq	r0, lr, #0
    305c:	000022e6 	andeq	r2, r0, r6, ror #5
    3060:	11702302 	cmnne	r0, r2, lsl #6
    3064:	00001403 	andeq	r1, r0, r3, lsl #8
    3068:	eb022f03 	bl	8ec7c <__dram_freq_start+0x8ec7c>
    306c:	03000022 	movweq	r0, #34	; 0x22
    3070:	11018023 	tstne	r1, r3, lsr #32
    3074:	000008ca 	andeq	r0, r0, sl, asr #17
    3078:	eb023003 	bl	8f08c <__dram_freq_start+0x8f08c>
    307c:	03000022 	movweq	r0, #34	; 0x22
    3080:	11018423 	tstne	r1, r3, lsr #8
    3084:	000005d0 	ldrdeq	r0, [r0], -r0	; <UNPREDICTABLE>
    3088:	eb023103 	bl	8f49c <__dram_freq_start+0x8f49c>
    308c:	03000022 	movweq	r0, #34	; 0x22
    3090:	11018823 	tstne	r1, r3, lsr #16
    3094:	000010c2 	andeq	r1, r0, r2, asr #1
    3098:	eb023203 	bl	8f8ac <__dram_freq_start+0x8f8ac>
    309c:	03000022 	movweq	r0, #34	; 0x22
    30a0:	11018c23 	tstne	r1, r3, lsr #24
    30a4:	0000090f 	andeq	r0, r0, pc, lsl #18
    30a8:	eb023303 	bl	8fcbc <__dram_freq_start+0x8fcbc>
    30ac:	03000022 	movweq	r0, #34	; 0x22
    30b0:	11019023 	tstne	r1, r3, lsr #32
    30b4:	000013a7 	andeq	r1, r0, r7, lsr #7
    30b8:	eb023403 	bl	900cc <__dram_freq_start+0x900cc>
    30bc:	03000022 	movweq	r0, #34	; 0x22
    30c0:	11019423 	tstne	r1, r3, lsr #8
    30c4:	00001348 	andeq	r1, r0, r8, asr #6
    30c8:	eb023503 	bl	904dc <__dram_freq_start+0x904dc>
    30cc:	03000022 	movweq	r0, #34	; 0x22
    30d0:	11019823 	tstne	r1, r3, lsr #16
    30d4:	00000697 	muleq	r0, r7, r6
    30d8:	eb023603 	bl	908ec <__dram_freq_start+0x908ec>
    30dc:	03000022 	movweq	r0, #34	; 0x22
    30e0:	11019c23 	tstne	r1, r3, lsr #24
    30e4:	00000d72 	andeq	r0, r0, r2, ror sp
    30e8:	eb023703 	bl	90cfc <__dram_freq_start+0x90cfc>
    30ec:	03000022 	movweq	r0, #34	; 0x22
    30f0:	1101a023 	tstne	r1, r3, lsr #32
    30f4:	0000052a 	andeq	r0, r0, sl, lsr #10
    30f8:	eb023803 	bl	9110c <__dram_freq_start+0x9110c>
    30fc:	03000022 	movweq	r0, #34	; 0x22
    3100:	1101a423 	tstne	r1, r3, lsr #8
    3104:	00000fd1 	ldrdeq	r0, [r0], -r1
    3108:	eb023903 	bl	9151c <__dram_freq_start+0x9151c>
    310c:	03000022 	movweq	r0, #34	; 0x22
    3110:	1101a823 	tstne	r1, r3, lsr #16
    3114:	000006e4 	andeq	r0, r0, r4, ror #13
    3118:	eb023a03 	bl	9192c <__dram_freq_start+0x9192c>
    311c:	03000022 	movweq	r0, #34	; 0x22
    3120:	1101ac23 	tstne	r1, r3, lsr #24
    3124:	00000c3c 	andeq	r0, r0, ip, lsr ip
    3128:	eb023b03 	bl	91d3c <__dram_freq_start+0x91d3c>
    312c:	03000022 	movweq	r0, #34	; 0x22
    3130:	1101b023 	tstne	r1, r3, lsr #32
    3134:	00000b42 	andeq	r0, r0, r2, asr #22
    3138:	eb023c03 	bl	9214c <__dram_freq_start+0x9214c>
    313c:	03000022 	movweq	r0, #34	; 0x22
    3140:	1101b423 	tstne	r1, r3, lsr #8
    3144:	0000121e 	andeq	r1, r0, lr, lsl r2
    3148:	f0023d03 			; <UNDEFINED> instruction: 0xf0023d03
    314c:	03000022 	movweq	r0, #34	; 0x22
    3150:	1101b823 	tstne	r1, r3, lsr #16
    3154:	00000a37 	andeq	r0, r0, r7, lsr sl
    3158:	f0023e03 			; <UNDEFINED> instruction: 0xf0023e03
    315c:	03000022 	movweq	r0, #34	; 0x22
    3160:	1101bc23 	tstne	r1, r3, lsr #24
    3164:	00000f24 	andeq	r0, r0, r4, lsr #30
    3168:	f0023f03 			; <UNDEFINED> instruction: 0xf0023f03
    316c:	03000022 	movweq	r0, #34	; 0x22
    3170:	1101c023 	tstne	r1, r3, lsr #32
    3174:	00001362 	andeq	r1, r0, r2, ror #6
    3178:	f5024003 			; <UNDEFINED> instruction: 0xf5024003
    317c:	03000022 	movweq	r0, #34	; 0x22
    3180:	1101c423 	tstne	r1, r3, lsr #8
    3184:	00001216 	andeq	r1, r0, r6, lsl r2
    3188:	fa024103 	blx	9359c <__dram_freq_start+0x9359c>
    318c:	03000022 	movweq	r0, #34	; 0x22
    3190:	1101c823 	tstne	r1, r3, lsr #16
    3194:	0000069d 	muleq	r0, sp, r6
    3198:	ff024203 			; <UNDEFINED> instruction: 0xff024203
    319c:	03000022 	movweq	r0, #34	; 0x22
    31a0:	1101cc23 	tstne	r1, r3, lsr #24
    31a4:	00000c89 	andeq	r0, r0, r9, lsl #25
    31a8:	98024303 	stmdals	r2, {r0, r1, r8, r9, lr}
    31ac:	03000000 	movweq	r0, #0
    31b0:	1101d023 	tstne	r1, r3, lsr #32
    31b4:	000007f3 	strdeq	r0, [r0], -r3
    31b8:	eb024403 	bl	941cc <__dram_freq_start+0x941cc>
    31bc:	03000022 	movweq	r0, #34	; 0x22
    31c0:	1101d423 	tstne	r1, r3, lsr #8
    31c4:	00000cfa 	strdeq	r0, [r0], -sl
    31c8:	f0024503 			; <UNDEFINED> instruction: 0xf0024503
    31cc:	03000022 	movweq	r0, #34	; 0x22
    31d0:	1101d823 	tstne	r1, r3, lsr #16
    31d4:	000004ac 	andeq	r0, r0, ip, lsr #9
    31d8:	f0024603 			; <UNDEFINED> instruction: 0xf0024603
    31dc:	03000022 	movweq	r0, #34	; 0x22
    31e0:	1101dc23 	tstne	r1, r3, lsr #24
    31e4:	00000c94 	muleq	r0, r4, ip
    31e8:	14024703 	strne	r4, [r2], #-1795	; 0x703
    31ec:	03000023 	movweq	r0, #35	; 0x23
    31f0:	1101e023 	tstne	r1, r3, lsr #32
    31f4:	00001005 	andeq	r1, r0, r5
    31f8:	19024803 	stmdbne	r2, {r0, r1, fp, lr}
    31fc:	03000023 	movweq	r0, #35	; 0x23
    3200:	11028023 	tstne	r2, r3, lsr #32
    3204:	00001041 	andeq	r1, r0, r1, asr #32
    3208:	1e024903 	cdpne	9, 0, cr4, cr2, cr3, {0}
    320c:	03000023 	movweq	r0, #35	; 0x23
    3210:	11028423 	tstne	r2, r3, lsr #8
    3214:	000008ee 	andeq	r0, r0, lr, ror #17
    3218:	1e024a03 	vmlane.f32	s8, s4, s6
    321c:	03000023 	movweq	r0, #35	; 0x23
    3220:	11028823 	tstne	r2, r3, lsr #16
    3224:	00000bf2 	strdeq	r0, [r0], -r2
    3228:	1e024b03 	vmlane.f64	d4, d2, d3
    322c:	03000023 	movweq	r0, #35	; 0x23
    3230:	11028c23 	tstne	r2, r3, lsr #24
    3234:	00000d96 	muleq	r0, r6, sp
    3238:	1e024c03 	cdpne	12, 0, cr4, cr2, cr3, {0}
    323c:	03000023 	movweq	r0, #35	; 0x23
    3240:	11029023 	tstne	r2, r3, lsr #32
    3244:	000005b7 			; <UNDEFINED> instruction: 0x000005b7
    3248:	1e024d03 	cdpne	13, 0, cr4, cr2, cr3, {0}
    324c:	03000023 	movweq	r0, #35	; 0x23
    3250:	11029423 	tstne	r2, r3, lsr #8
    3254:	00000dde 	ldrdeq	r0, [r0], -lr
    3258:	23024e03 	movwcs	r4, #11779	; 0x2e03
    325c:	03000023 	movweq	r0, #35	; 0x23
    3260:	11029823 	tstne	r2, r3, lsr #16
    3264:	00000e57 	andeq	r0, r0, r7, asr lr
    3268:	23024f03 	movwcs	r4, #12035	; 0x2f03
    326c:	03000023 	movweq	r0, #35	; 0x23
    3270:	11029c23 	tstne	r2, r3, lsr #24
    3274:	0000134e 	andeq	r1, r0, lr, asr #6
    3278:	28025003 	stmdacs	r2, {r0, r1, ip, lr}
    327c:	03000023 	movweq	r0, #35	; 0x23
    3280:	1102a023 	tstne	r2, r3, lsr #32
    3284:	00000c9f 	muleq	r0, pc, ip	; <UNPREDICTABLE>
    3288:	98025103 	stmdals	r2, {r0, r1, r8, ip, lr}
    328c:	03000000 	movweq	r0, #0
    3290:	1102a423 	tstne	r2, r3, lsr #8
    3294:	000011db 	ldrdeq	r1, [r0], -fp
    3298:	2d025203 	sfmcs	f5, 4, [r2, #-12]
    329c:	03000023 	movweq	r0, #35	; 0x23
    32a0:	1102a823 	tstne	r2, r3, lsr #16
    32a4:	000006d9 	ldrdeq	r0, [r0], -r9
    32a8:	32025303 	andcc	r5, r2, #201326592	; 0xc000000
    32ac:	03000023 	movweq	r0, #35	; 0x23
    32b0:	1102ac23 	tstne	r2, r3, lsr #24
    32b4:	0000105c 	andeq	r1, r0, ip, asr r0
    32b8:	32025403 	andcc	r5, r2, #50331648	; 0x3000000
    32bc:	03000023 	movweq	r0, #35	; 0x23
    32c0:	1102b023 	tstne	r2, r3, lsr #32
    32c4:	00000b3a 	andeq	r0, r0, sl, lsr fp
    32c8:	37025503 	strcc	r5, [r2, -r3, lsl #10]
    32cc:	03000023 	movweq	r0, #35	; 0x23
    32d0:	1102b423 	tstne	r2, r3, lsr #8
    32d4:	00000e4f 	andeq	r0, r0, pc, asr #28
    32d8:	37025603 	strcc	r5, [r2, -r3, lsl #12]
    32dc:	03000023 	movweq	r0, #35	; 0x23
    32e0:	1102b823 	tstne	r2, r3, lsr #16
    32e4:	000004ce 	andeq	r0, r0, lr, asr #9
    32e8:	3c025703 	stccc	7, cr5, [r2], {3}
    32ec:	03000023 	movweq	r0, #35	; 0x23
    32f0:	1102bc23 	tstne	r2, r3, lsr #24
    32f4:	00001340 	andeq	r1, r0, r0, asr #6
    32f8:	41025803 	tstmi	r2, r3, lsl #16
    32fc:	03000023 	movweq	r0, #35	; 0x23
    3300:	1102c023 	tstne	r2, r3, lsr #32
    3304:	0000144e 	andeq	r1, r0, lr, asr #8
    3308:	46025903 	strmi	r5, [r2], -r3, lsl #18
    330c:	03000023 	movweq	r0, #35	; 0x23
    3310:	1102c423 	tstne	r2, r3, lsr #8
    3314:	00000c67 	andeq	r0, r0, r7, ror #24
    3318:	4b025a03 	blmi	99b2c <__dram_freq_start+0x99b2c>
    331c:	03000023 	movweq	r0, #35	; 0x23
    3320:	1102c823 	tstne	r2, r3, lsr #16
    3324:	000009ff 	strdeq	r0, [r0], -pc	; <UNPREDICTABLE>
    3328:	50025b03 	andpl	r5, r2, r3, lsl #22
    332c:	03000023 	movweq	r0, #35	; 0x23
    3330:	1102cc23 	tstne	r2, r3, lsr #24
    3334:	00000dc1 	andeq	r0, r0, r1, asr #27
    3338:	55025c03 	strpl	r5, [r2, #-3075]	; 0xc03
    333c:	03000023 	movweq	r0, #35	; 0x23
    3340:	1102d023 	tstne	r2, r3, lsr #32
    3344:	00001446 	andeq	r1, r0, r6, asr #8
    3348:	5a025d03 	bpl	9a75c <__dram_freq_start+0x9a75c>
    334c:	03000023 	movweq	r0, #35	; 0x23
    3350:	1102d423 	tstne	r2, r3, lsr #8
    3354:	00000dc9 	andeq	r0, r0, r9, asr #27
    3358:	98025e03 	stmdals	r2, {r0, r1, r9, sl, fp, ip, lr}
    335c:	03000000 	movweq	r0, #0
    3360:	1102d823 	tstne	r2, r3, lsr #16
    3364:	00001067 	andeq	r1, r0, r7, rrx
    3368:	5f025f03 	svcpl	0x00025f03
    336c:	03000023 	movweq	r0, #35	; 0x23
    3370:	1102dc23 	tstne	r2, r3, lsr #24
    3374:	00000f4a 	andeq	r0, r0, sl, asr #30
    3378:	98026003 	stmdals	r2, {r0, r1, sp, lr}
    337c:	03000000 	movweq	r0, #0
    3380:	1102e023 	tstne	r2, r3, lsr #32
    3384:	000005e4 	andeq	r0, r0, r4, ror #11
    3388:	64026103 	strvs	r6, [r2], #-259	; 0x103
    338c:	03000023 	movweq	r0, #35	; 0x23
    3390:	1102e423 	tstne	r2, r3, lsr #8
    3394:	00000cca 	andeq	r0, r0, sl, asr #25
    3398:	69026203 	stmdbvs	r2, {r0, r1, r9, sp, lr}
    339c:	03000023 	movweq	r0, #35	; 0x23
    33a0:	1102e823 	tstne	r2, r3, lsr #16
    33a4:	00000783 	andeq	r0, r0, r3, lsl #15
    33a8:	6e026303 	cdpvs	3, 0, cr6, cr2, cr3, {0}
    33ac:	03000023 	movweq	r0, #35	; 0x23
    33b0:	1102f023 	tstne	r2, r3, lsr #32
    33b4:	000009c3 	andeq	r0, r0, r3, asr #19
    33b8:	73026403 	movwvc	r6, #9219	; 0x2403
    33bc:	03000023 	movweq	r0, #35	; 0x23
    33c0:	1102f423 	tstne	r2, r3, lsr #8
    33c4:	00000796 	muleq	r0, r6, r7
    33c8:	78026503 	stmdavc	r2, {r0, r1, r8, sl, sp, lr}
    33cc:	03000023 	movweq	r0, #35	; 0x23
    33d0:	1102f823 	tstne	r2, r3, lsr #16
    33d4:	0000065e 	andeq	r0, r0, lr, asr r6
    33d8:	7d026603 	stcvc	6, cr6, [r2, #-12]
    33dc:	03000023 	movweq	r0, #35	; 0x23
    33e0:	1102fc23 	tstne	r2, r3, lsr #24
    33e4:	00000f95 	muleq	r0, r5, pc	; <UNPREDICTABLE>
    33e8:	92026703 	andls	r6, r2, #786432	; 0xc0000
    33ec:	03000023 	movweq	r0, #35	; 0x23
    33f0:	11038023 	tstne	r3, r3, lsr #32
    33f4:	00000f69 	andeq	r0, r0, r9, ror #30
    33f8:	97026803 	strls	r6, [r2, -r3, lsl #16]
    33fc:	03000023 	movweq	r0, #35	; 0x23
    3400:	1103f023 	tstne	r3, r3, lsr #32
    3404:	00000f71 	andeq	r0, r0, r1, ror pc
    3408:	97026903 	strls	r6, [r2, -r3, lsl #18]
    340c:	03000023 	movweq	r0, #35	; 0x23
    3410:	0003f423 	andeq	pc, r3, r3, lsr #8
    3414:	0001a807 	andeq	sl, r1, r7, lsl #16
    3418:	02590700 	subseq	r0, r9, #0
    341c:	2c070000 	stccs	0, cr0, [r7], {-0}
    3420:	07000003 	streq	r0, [r0, -r3]
    3424:	00000410 	andeq	r0, r0, r0, lsl r4
    3428:	00052707 	andeq	r2, r5, r7, lsl #14
    342c:	061c0700 	ldreq	r0, [ip], -r0, lsl #14
    3430:	ef070000 	svc	0x00070000
    3434:	08000006 	stmdaeq	r0, {r1, r2}
    3438:	00000053 	andeq	r0, r0, r3, asr r0
    343c:	000022a4 	andeq	r2, r0, r4, lsr #5
    3440:	00005e09 	andeq	r5, r0, r9, lsl #28
    3444:	07000200 	streq	r0, [r0, -r0, lsl #4]
    3448:	00002294 	muleq	r0, r4, r2
    344c:	0007d307 	andeq	sp, r7, r7, lsl #6
    3450:	22940700 	addscs	r0, r4, #0
    3454:	84070000 	strhi	r0, [r7], #-0
    3458:	07000008 	streq	r0, [r0, -r8]
    345c:	00000957 	andeq	r0, r0, r7, asr r9
    3460:	0009d507 	andeq	sp, r9, r7, lsl #10
    3464:	0bda0700 	bleq	ff68506c <__bss_end+0xf681f34>
    3468:	57070000 	strpl	r0, [r7, -r0]
    346c:	0700000d 	streq	r0, [r0, -sp]
    3470:	00000e3b 	andeq	r0, r0, fp, lsr lr
    3474:	000fa807 	andeq	sl, pc, r7, lsl #16
    3478:	00530800 	subseq	r0, r3, r0, lsl #16
    347c:	22e60000 	rsccs	r0, r6, #0
    3480:	5e090000 	cdppl	0, 0, cr0, cr9, cr0, {0}
    3484:	03000000 	movweq	r0, #0
    3488:	22d60700 	sbcscs	r0, r6, #0
    348c:	88070000 	stmdahi	r7, {}	; <UNPREDICTABLE>
    3490:	07000010 	smladeq	r0, r0, r0, r0
    3494:	000010ea 	andeq	r1, r0, sl, ror #1
    3498:	00118207 	andseq	r8, r1, r7, lsl #4
    349c:	11e40700 	mvnne	r0, r0, lsl #14
    34a0:	8e070000 	cdphi	0, 0, cr0, cr7, cr0, {0}
    34a4:	08000012 	stmdaeq	r0, {r1, r4}
    34a8:	00000053 	andeq	r0, r0, r3, asr r0
    34ac:	00002314 	andeq	r2, r0, r4, lsl r3
    34b0:	00005e09 	andeq	r5, r0, r9, lsl #28
    34b4:	07000700 	streq	r0, [r0, -r0, lsl #14]
    34b8:	00002304 	andeq	r2, r0, r4, lsl #6
    34bc:	0013da07 	andseq	sp, r3, r7, lsl #20
    34c0:	14600700 	strbtne	r0, [r0], #-1792	; 0x700
    34c4:	d4070000 	strle	r0, [r7], #-0
    34c8:	07000014 	smladeq	r0, r4, r0, r0
    34cc:	00001548 	andeq	r1, r0, r8, asr #10
    34d0:	00161607 	andseq	r1, r6, r7, lsl #12
    34d4:	16d20700 	ldrbne	r0, [r2], r0, lsl #14
    34d8:	58070000 	stmdapl	r7, {}	; <UNPREDICTABLE>
    34dc:	07000017 	smladeq	r0, r7, r0, r0
    34e0:	000017cc 	andeq	r1, r0, ip, asr #15
    34e4:	00180a07 	andseq	r0, r8, r7, lsl #20
    34e8:	18480700 	stmdane	r8, {r8, r9, sl}^
    34ec:	e0070000 	and	r0, r7, r0
    34f0:	07000018 	smladeq	r0, r8, r0, r0
    34f4:	0000191e 	andeq	r1, r0, lr, lsl r9
    34f8:	00199207 	andseq	r9, r9, r7, lsl #4
    34fc:	1a180700 	bne	605104 <__dram_freq_start+0x605104>
    3500:	b0070000 	andlt	r0, r7, r0
    3504:	0700001a 	smladeq	r0, sl, r0, r0
    3508:	00001b48 	andeq	r1, r0, r8, asr #22
    350c:	00009d07 	andeq	r9, r0, r7, lsl #26
    3510:	1baa0700 	blne	fea85118 <__bss_end+0xea81fe0>
    3514:	d3070000 	movwle	r0, #28672	; 0x7000
    3518:	0700001b 	smladeq	r0, fp, r0, r0
    351c:	00001c11 	andeq	r1, r0, r1, lsl ip
    3520:	001c8507 	andseq	r8, ip, r7, lsl #10
    3524:	00530800 	subseq	r0, r3, r0, lsl #16
    3528:	23920000 	orrscs	r0, r2, #0
    352c:	5e090000 	cdppl	0, 0, cr0, cr9, cr0, {0}
    3530:	1b000000 	blne	3538 <__dram_freq_start+0x3538>
    3534:	23820700 	orrcs	r0, r2, #0
    3538:	2f070000 	svccs	0x00070000
    353c:	0d00001d 	stceq	0, cr0, [r0, #-116]	; 0xffffff8c
    3540:	000013f1 	strdeq	r1, [r0], -r1	; <UNPREDICTABLE>
    3544:	3b026a03 	blcc	9dd58 <__dram_freq_start+0x9dd58>
    3548:	1200001d 	andne	r0, r0, #29
    354c:	000e1a01 	andeq	r1, lr, r1, lsl #20
    3550:	013e0100 	teqeq	lr, r0, lsl #2
    3554:	00000053 	andeq	r0, r0, r3, asr r0
    3558:	0023c601 	eoreq	ip, r3, r1, lsl #12
    355c:	18911300 	ldmne	r1, {r8, r9, ip}
    3560:	40010000 	andmi	r0, r1, r0
    3564:	00000053 	andeq	r0, r0, r3, asr r0
    3568:	0f551400 	svceq	0x00551400
    356c:	c4010000 	strgt	r0, [r1], #-0
    3570:	00005301 	andeq	r5, r0, r1, lsl #6
    3574:	23ee0100 	mvncs	r0, #0
    3578:	a8150000 	ldmdage	r5, {}	; <UNPREDICTABLE>
    357c:	01000001 	tsteq	r0, r1
    3580:	000073c4 	andeq	r7, r0, r4, asr #7
    3584:	10aa1300 	adcne	r1, sl, r0, lsl #6
    3588:	c6010000 	strgt	r0, [r1], -r0
    358c:	0000004c 	andeq	r0, r0, ip, asr #32
    3590:	4b011600 	blmi	48d98 <__dram_freq_start+0x48d98>
    3594:	01000007 	tsteq	r0, r7
    3598:	0e38010b 	rsfeqe	f0, f0, #3.0
    359c:	0e64f000 	cdpeq	0, 6, cr15, cr4, cr0, {0}
    35a0:	7d02f000 	stcvc	0, cr15, [r2, #-0]
    35a4:	00243200 	eoreq	r3, r4, r0, lsl #4
    35a8:	12d31700 	sbcsne	r1, r3, #0
    35ac:	0b010000 	bleq	435b4 <__dram_freq_start+0x435b4>
    35b0:	00000053 	andeq	r0, r0, r3, asr r0
    35b4:	00000e84 	andeq	r0, r0, r4, lsl #29
    35b8:	000be318 	andeq	lr, fp, r8, lsl r3
    35bc:	530b0100 	movwpl	r0, #45312	; 0xb100
    35c0:	01000000 	mrseq	r0, (UNDEF: 0)
    35c4:	18911951 	ldmne	r1, {r0, r4, r6, r8, fp, ip}
    35c8:	0e010000 	cdpeq	0, 0, cr0, cr1, cr0, {0}
    35cc:	00000053 	andeq	r0, r0, r3, asr r0
    35d0:	00000e97 	muleq	r0, r7, lr
    35d4:	20011a00 	andcs	r1, r1, r0, lsl #20
    35d8:	01000007 	tsteq	r0, r7
    35dc:	0e640129 	poweqsp	f0, f4, #1.0
    35e0:	0e80f000 	cdpeq	0, 8, cr15, cr0, cr0, {0}
    35e4:	7d02f000 	stcvc	0, cr15, [r2, #-0]
    35e8:	80011a00 	andhi	r1, r1, r0, lsl #20
    35ec:	01000009 	tsteq	r0, r9
    35f0:	0e800133 	mcreq	1, 4, r0, cr0, cr3, {1}
    35f4:	0ea4f000 	cdpeq	0, 10, cr15, cr4, cr0, {0}
    35f8:	7d02f000 	stcvc	0, cr15, [r2, #-0]
    35fc:	23a81b00 			; <UNDEFINED> instruction: 0x23a81b00
    3600:	0ea40000 	cdpeq	0, 10, cr0, cr4, cr0, {0}
    3604:	0eacf000 	cdpeq	0, 10, cr15, cr12, cr0, {0}
    3608:	7d02f000 	stcvc	0, cr15, [r2, #-0]
    360c:	00247600 	eoreq	r7, r4, r0, lsl #12
    3610:	23ba1c00 			; <UNDEFINED> instruction: 0x23ba1c00
    3614:	50010000 	andpl	r0, r1, r0
    3618:	16011600 	strne	r1, [r1], -r0, lsl #12
    361c:	01000013 	tsteq	r0, r3, lsl r0
    3620:	0eac0146 	fdveqem	f0, f4, f6
    3624:	0ec0f000 	cdpeq	0, 12, cr15, cr0, cr0, {0}
    3628:	7d02f000 	stcvc	0, cr15, [r2, #-0]
    362c:	00249e00 	eoreq	r9, r4, r0, lsl #28
    3630:	18911900 	ldmne	r1, {r8, fp, ip}
    3634:	48010000 	stmdami	r1, {}	; <UNPREDICTABLE>
    3638:	00000053 	andeq	r0, r0, r3, asr r0
    363c:	00000ee0 	andeq	r0, r0, r0, ror #29
    3640:	f6011d00 			; <UNDEFINED> instruction: 0xf6011d00
    3644:	01000005 	tsteq	r0, r5
    3648:	0ec00151 	mcreq	1, 6, r0, cr0, cr1, {2}
    364c:	0f5cf000 	svceq	0x005cf000
    3650:	0f00f000 	svceq	0x0000f000
    3654:	25850000 	strcs	r0, [r5]
    3658:	2b170000 	blcs	5c3660 <__dram_freq_start+0x5c3660>
    365c:	01000011 	tsteq	r0, r1, lsl r0
    3660:	00005351 	andeq	r5, r0, r1, asr r3
    3664:	000f2000 	andeq	r2, pc, r0
    3668:	16021900 	strne	r1, [r2], -r0, lsl #18
    366c:	53010000 	movwpl	r0, #4096	; 0x1000
    3670:	00000053 	andeq	r0, r0, r3, asr r0
    3674:	00000f33 	andeq	r0, r0, r3, lsr pc
    3678:	0014f419 	andseq	pc, r4, r9, lsl r4	; <UNPREDICTABLE>
    367c:	53540100 	cmppl	r4, #0
    3680:	33000000 	movwcc	r0, #0
    3684:	1900000f 	stmdbne	r0, {r0, r1, r2, r3}
    3688:	000010a1 	andeq	r1, r0, r1, lsr #1
    368c:	00535501 	subseq	r5, r3, r1, lsl #10
    3690:	0f330000 	svceq	0x00330000
    3694:	d9190000 	ldmdble	r9, {}	; <UNPREDICTABLE>
    3698:	01000007 	tsteq	r0, r7
    369c:	00005356 	andeq	r5, r0, r6, asr r3
    36a0:	000f4700 	andeq	r4, pc, r0, lsl #14
    36a4:	01641900 	cmneq	r4, r0, lsl #18
    36a8:	57010000 	strpl	r0, [r1, -r0]
    36ac:	00000053 	andeq	r0, r0, r3, asr r0
    36b0:	00000f66 	andeq	r0, r0, r6, ror #30
    36b4:	000b4919 	andeq	r4, fp, r9, lsl r9
    36b8:	53580100 	cmppl	r8, #0
    36bc:	7a000000 	bvc	36c4 <__dram_freq_start+0x36c4>
    36c0:	1900000f 	stmdbne	r0, {r0, r1, r2, r3}
    36c4:	00001134 	andeq	r1, r0, r4, lsr r1
    36c8:	25855901 	strcs	r5, [r5, #2305]	; 0x901
    36cc:	0f990000 	svceq	0x00990000
    36d0:	a9130000 	ldmdbge	r3, {}	; <UNPREDICTABLE>
    36d4:	0100000d 	tsteq	r0, sp
    36d8:	0001a85a 	andeq	sl, r1, sl, asr r8
    36dc:	23a81e00 			; <UNDEFINED> instruction: 0x23a81e00
    36e0:	0edc0000 	cdpeq	0, 13, cr0, cr12, cr0, {0}
    36e4:	0ee0f000 	cdpeq	0, 14, cr15, cr0, cr0, {0}
    36e8:	6401f000 	strvs	pc, [r1], #-0
    36ec:	00002561 	andeq	r2, r0, r1, ror #10
    36f0:	000edc1f 	andeq	sp, lr, pc, lsl ip
    36f4:	000ee0f0 	strdeq	lr, [lr], -r0
    36f8:	23ba20f0 			; <UNDEFINED> instruction: 0x23ba20f0
    36fc:	0fac0000 	svceq	0x00ac0000
    3700:	00000000 	andeq	r0, r0, r0
    3704:	0023a821 	eoreq	sl, r3, r1, lsr #16
    3708:	000ee000 	andeq	lr, lr, r0
    370c:	000ee4f0 	strdeq	lr, [lr], -r0
    3710:	1f6501f0 	svcne	0x006501f0
    3714:	f0000ee0 			; <UNDEFINED> instruction: 0xf0000ee0
    3718:	f0000ee4 			; <UNDEFINED> instruction: 0xf0000ee4
    371c:	0023ba20 	eoreq	fp, r3, r0, lsr #20
    3720:	000fbf00 	andeq	fp, pc, r0, lsl #30
    3724:	00000000 	andeq	r0, r0, r0
    3728:	258b0422 	strcs	r0, [fp, #1058]	; 0x422
    372c:	9c070000 	stcls	0, cr0, [r7], {-0}
    3730:	1d000023 	stcne	0, cr0, [r0, #-140]	; 0xffffff74
    3734:	0014c701 	andseq	ip, r4, r1, lsl #14
    3738:	01850100 	orreq	r0, r5, r0, lsl #2
    373c:	f0000f5c 			; <UNDEFINED> instruction: 0xf0000f5c
    3740:	f0000fb4 			; <UNDEFINED> instruction: 0xf0000fb4
    3744:	00000fd2 	ldrdeq	r0, [r0], -r2
    3748:	0000262f 	andeq	r2, r0, pc, lsr #12
    374c:	00737523 	rsbseq	r7, r3, r3, lsr #10
    3750:	00538501 	subseq	r8, r3, r1, lsl #10
    3754:	0ff20000 	svceq	0x00f20000
    3758:	fb190000 	blx	643762 <__dram_freq_start+0x643762>
    375c:	0100000b 	tsteq	r0, fp
    3760:	00005387 	andeq	r5, r0, r7, lsl #7
    3764:	00101000 	andseq	r1, r0, r0
    3768:	75632400 	strbvc	r2, [r3, #-1024]!	; 0x400
    376c:	88010072 	stmdahi	r1, {r1, r4, r5, r6}
    3770:	00000053 	andeq	r0, r0, r3, asr r0
    3774:	00001034 	andeq	r1, r0, r4, lsr r0
    3778:	000a9219 	andeq	r9, sl, r9, lsl r2
    377c:	53890100 	orrpl	r0, r9, #0
    3780:	5e000000 	cdppl	0, 0, cr0, cr0, cr0, {0}
    3784:	1e000010 	mcrne	0, 0, r0, cr0, cr0, {0}
    3788:	000023a8 	andeq	r2, r0, r8, lsr #7
    378c:	f0000f7c 			; <UNDEFINED> instruction: 0xf0000f7c
    3790:	f0000f80 			; <UNDEFINED> instruction: 0xf0000f80
    3794:	260b9401 	strcs	r9, [fp], -r1, lsl #8
    3798:	7c1f0000 	ldcvc	0, cr0, [pc], {-0}
    379c:	80f0000f 	rscshi	r0, r0, pc
    37a0:	20f0000f 	rscscs	r0, r0, pc
    37a4:	000023ba 			; <UNDEFINED> instruction: 0x000023ba
    37a8:	0000108c 	andeq	r1, r0, ip, lsl #1
    37ac:	a8210000 	stmdage	r1!, {}	; <UNPREDICTABLE>
    37b0:	9c000023 	stcls	0, cr0, [r0], {35}	; 0x23
    37b4:	a0f0000f 	rscsge	r0, r0, pc
    37b8:	01f0000f 	mvnseq	r0, pc
    37bc:	0f9c1f99 	svceq	0x009c1f99
    37c0:	0fa0f000 	svceq	0x00a0f000
    37c4:	ba20f000 	blt	83f7cc <__dram_freq_start+0x83f7cc>
    37c8:	9f000023 	svcls	0x00000023
    37cc:	00000010 	andeq	r0, r0, r0, lsl r0
    37d0:	01160000 	tsteq	r6, r0
    37d4:	00000b7e 	andeq	r0, r0, lr, ror fp
    37d8:	b401bc01 	strlt	fp, [r1], #-3073	; 0xc01
    37dc:	c0f0000f 	rscsgt	r0, r0, pc
    37e0:	02f0000f 	rscseq	r0, r0, #15
    37e4:	2656007d 			; <UNDEFINED> instruction: 0x2656007d
    37e8:	6d230000 	stcvs	0, cr0, [r3, #-0]
    37ec:	bc010073 	stclt	0, cr0, [r1], {115}	; 0x73
    37f0:	00000053 	andeq	r0, r0, r3, asr r0
    37f4:	000010b2 	strheq	r1, [r0], -r2
    37f8:	b4011600 	strlt	r1, [r1], #-1536	; 0x600
    37fc:	01000014 	tsteq	r0, r4, lsl r0
    3800:	0fc001de 	svceq	0x00c001de
    3804:	0fecf000 	svceq	0x00ecf000
    3808:	7d02f000 	stcvc	0, cr15, [r2, #-0]
    380c:	00269a00 	eoreq	r9, r6, r0, lsl #20
    3810:	12d31700 	sbcsne	r1, r3, #0
    3814:	de010000 	cdple	0, 0, cr0, cr1, cr0, {0}
    3818:	00000053 	andeq	r0, r0, r3, asr r0
    381c:	000010c5 	andeq	r1, r0, r5, asr #1
    3820:	000be318 	andeq	lr, fp, r8, lsl r3
    3824:	53de0100 	bicspl	r0, lr, #0
    3828:	01000000 	mrseq	r0, (UNDEF: 0)
    382c:	18911951 	ldmne	r1, {r0, r4, r6, r8, fp, ip}
    3830:	e1010000 	mrs	r0, (UNDEF: 1)
    3834:	00000053 	andeq	r0, r0, r3, asr r0
    3838:	000010d8 	ldrdeq	r1, [r0], -r8
    383c:	2d011600 	stccs	6, cr1, [r1, #-0]
    3840:	0100000f 	tsteq	r0, pc
    3844:	0fec01fc 	svceq	0x00ec01fc
    3848:	1018f000 	andsne	pc, r8, r0
    384c:	7d02f000 	stcvc	0, cr15, [r2, #-0]
    3850:	0026e700 	eoreq	lr, r6, r0, lsl #14
    3854:	01a81800 			; <UNDEFINED> instruction: 0x01a81800
    3858:	fc010000 	stc2	0, cr0, [r1], {-0}
    385c:	00000073 	andeq	r0, r0, r3, ror r0
    3860:	aa195001 	bge	65786c <__dram_freq_start+0x65786c>
    3864:	01000010 	tsteq	r0, r0, lsl r0
    3868:	000053ff 	strdeq	r5, [r0], -pc	; <UNPREDICTABLE>
    386c:	00112100 	andseq	r2, r1, r0, lsl #2
    3870:	23c62500 	biccs	r2, r6, #0
    3874:	0fec0000 	svceq	0x00ec0000
    3878:	1000f000 	andne	pc, r0, r0
    387c:	0001f000 	andeq	pc, r1, r0
    3880:	23d72601 	bicscs	r2, r7, #1048576	; 0x100000
    3884:	50010000 	andpl	r0, r1, r0
    3888:	01270000 	teqeq	r7, r0
    388c:	0000158c 	andeq	r1, r0, ip, lsl #11
    3890:	01010f01 	tsteq	r1, r1, lsl #30
    3894:	0000004c 	andeq	r0, r0, ip, asr #32
    3898:	f0001018 			; <UNDEFINED> instruction: 0xf0001018
    389c:	f0001044 			; <UNDEFINED> instruction: 0xf0001044
    38a0:	4f007d02 	svcmi	0x00007d02
    38a4:	28000027 	stmdacs	r0, {r0, r1, r2, r5}
    38a8:	000001a8 	andeq	r0, r0, r8, lsr #3
    38ac:	73010f01 	movwvc	r0, #7937	; 0x1f01
    38b0:	35000000 	strcc	r0, [r0, #-0]
    38b4:	29000011 	stmdbcs	r0, {r0, r4}
    38b8:	000010aa 	andeq	r1, r0, sl, lsr #1
    38bc:	4c011101 	stfmis	f1, [r1], {1}
    38c0:	55000000 	strpl	r0, [r0, #-0]
    38c4:	29000011 	stmdbcs	r0, {r0, r4}
    38c8:	00001304 	andeq	r1, r0, r4, lsl #6
    38cc:	4c011201 	sfmmi	f1, 4, [r1], {1}
    38d0:	74000000 	strvc	r0, [r0], #-0
    38d4:	25000011 	strcs	r0, [r0, #-17]
    38d8:	000023c6 	andeq	r2, r0, r6, asr #7
    38dc:	f0001018 			; <UNDEFINED> instruction: 0xf0001018
    38e0:	f000102c 			; <UNDEFINED> instruction: 0xf000102c
    38e4:	2a011301 	bcs	484f0 <__dram_freq_start+0x484f0>
    38e8:	000023d7 	ldrdeq	r2, [r0], -r7
    38ec:	00001193 	muleq	r0, r3, r1
    38f0:	bb2b0000 	bllt	ac38f8 <__dram_freq_start+0xac38f8>
    38f4:	0100000b 	tsteq	r0, fp
    38f8:	00005304 	andeq	r5, r0, r4, lsl #6
    38fc:	a0030500 	andge	r0, r3, r0, lsl #10
    3900:	2bf0002f 	blcs	ffc039c4 <__bss_end+0xfc0088c>
    3904:	00000d7a 	andeq	r0, r0, sl, ror sp
    3908:	00530501 	subseq	r0, r3, r1, lsl #10
    390c:	03050000 	movweq	r0, #20480	; 0x5000
    3910:	f0002f9c 			; <UNDEFINED> instruction: 0xf0002f9c
    3914:	000cdd2b 	andeq	sp, ip, fp, lsr #26
    3918:	53060100 	movwpl	r0, #24832	; 0x6100
    391c:	05000000 	streq	r0, [r0, #-0]
    3920:	002f9403 	eoreq	r9, pc, r3, lsl #8
    3924:	09582bf0 	ldmdbeq	r8, {r4, r5, r6, r7, r8, r9, fp, sp}^
    3928:	07010000 	streq	r0, [r1, -r0]
    392c:	00000053 	andeq	r0, r0, r3, asr r0
    3930:	2f980305 	svccs	0x00980305
    3934:	8300f000 	movwhi	pc, #0	; <UNPREDICTABLE>
    3938:	02000000 	andeq	r0, r0, #0
    393c:	0008d700 	andeq	sp, r8, r0, lsl #14
    3940:	5f010400 	svcpl	0x00010400
    3944:	60000007 	andvs	r0, r0, r7
    3948:	b4f00010 	ldrbtlt	r0, [r0], #16
    394c:	2ef00014 	mrccs	0, 7, r0, cr0, cr4, {0}
    3950:	2f2e2e2f 	svccs	0x002e2e2f
    3954:	5f6d656d 	svcpl	0x006d656d
    3958:	5f756d6d 	svcpl	0x00756d6d
    395c:	615f6370 	cmpvs	pc, r0, ror r3	; <UNPREDICTABLE>
    3960:	532e6d73 	teqpl	lr, #7360	; 0x1cc0
    3964:	6f682f00 	svcvs	0x00682f00
    3968:	7a2f656d 	bvc	bdcf24 <__dram_freq_start+0xbdcf24>
    396c:	6e696c78 	mcrvs	12, 3, r6, cr9, cr8, {3}
    3970:	412f7875 	teqmi	pc, r5, ror r8	; <UNPREDICTABLE>
    3974:	342e3032 	strtcc	r3, [lr], #-50	; 0x32
    3978:	412e342e 	teqmi	lr, lr, lsr #8
    397c:	696c2f57 	stmdbvs	ip!, {r0, r1, r2, r4, r6, r8, r9, sl, fp, sp}^
    3980:	65656863 	strbvs	r6, [r5, #-2147]!	; 0x863
    3984:	6e696c2f 	cdpvs	12, 6, cr6, cr9, cr15, {1}
    3988:	332d7875 	teqcc	sp, #7667712	; 0x750000
    398c:	612f342e 	teqvs	pc, lr, lsr #8
    3990:	2f686372 	svccs	0x00686372
    3994:	2f6d7261 	svccs	0x006d7261
    3998:	6863616d 	stmdavs	r3!, {r0, r2, r3, r5, r6, r8, sp, lr}^
    399c:	6e75732d 	cdpvs	3, 7, cr7, cr5, cr13, {1}
    39a0:	702f6937 	eorvc	r6, pc, r7, lsr r9	; <UNPREDICTABLE>
    39a4:	72642f6d 	rsbvc	r2, r4, #436	; 0x1b4
    39a8:	662d6d61 	strtvs	r6, [sp], -r1, ror #26
    39ac:	00716572 	rsbseq	r6, r1, r2, ror r5
    39b0:	20554e47 	subscs	r4, r5, r7, asr #28
    39b4:	32205341 	eorcc	r5, r0, #67108865	; 0x4000001
    39b8:	0032322e 	eorseq	r3, r2, lr, lsr #4
    39bc:	072a8001 	streq	r8, [sl, -r1]!
    39c0:	00020000 	andeq	r0, r2, r0
    39c4:	000008eb 	andeq	r0, r0, fp, ror #17
    39c8:	00970104 	addseq	r0, r7, r4, lsl #2
    39cc:	26010000 	strcs	r0, [r1], -r0
    39d0:	0f000017 	svceq	0x00000017
    39d4:	c0000002 	andgt	r0, r0, r2
    39d8:	bcf00014 	ldcllt	0, cr0, [r0], #80	; 0x50
    39dc:	bdf0002e 	ldcllt	0, cr0, [r0, #184]!	; 0xb8
    39e0:	02000008 	andeq	r0, r0, #8
    39e4:	01740704 	cmneq	r4, r4, lsl #14
    39e8:	01020000 	mrseq	r0, (UNDEF: 2)
    39ec:	0000bb06 	andeq	fp, r0, r6, lsl #22
    39f0:	18480300 	stmdane	r8, {r8, r9}^
    39f4:	0f020000 	svceq	0x00020000
    39f8:	0000003e 	andeq	r0, r0, lr, lsr r0
    39fc:	b9080102 	stmdblt	r8, {r1, r8}
    3a00:	02000000 	andeq	r0, r0, #0
    3a04:	01f10502 	mvnseq	r0, r2, lsl #10
    3a08:	02020000 	andeq	r0, r2, #0
    3a0c:	0000d907 	andeq	sp, r0, r7, lsl #18
    3a10:	02e40300 	rsceq	r0, r4, #0
    3a14:	12020000 	andne	r0, r2, #0
    3a18:	0000005e 	andeq	r0, r0, lr, asr r0
    3a1c:	69050404 	stmdbvs	r5, {r2, sl}
    3a20:	0300746e 	movweq	r7, #1134	; 0x46e
    3a24:	0000002d 	andeq	r0, r0, sp, lsr #32
    3a28:	00251302 	eoreq	r1, r5, r2, lsl #6
    3a2c:	08020000 	stmdaeq	r2, {}	; <UNPREDICTABLE>
    3a30:	0001e305 	andeq	lr, r1, r5, lsl #6
    3a34:	07080200 	streq	r0, [r8, -r0, lsl #4]
    3a38:	0000016a 	andeq	r0, r0, sl, ror #2
    3a3c:	00006505 	andeq	r6, r0, r5, lsl #10
    3a40:	01050600 	tsteq	r5, r0, lsl #12
    3a44:	03500000 	cmpeq	r0, #0
    3a48:	0001a85c 	andeq	sl, r1, ip, asr r8
    3a4c:	01500700 	cmpeq	r0, r0, lsl #14
    3a50:	5e030000 	cdppl	0, 0, cr0, cr3, cr0, {0}
    3a54:	00000025 	andeq	r0, r0, r5, lsr #32
    3a58:	07002302 	streq	r2, [r0, -r2, lsl #6]
    3a5c:	0000008e 	andeq	r0, r0, lr, lsl #1
    3a60:	00255f03 	eoreq	r5, r5, r3, lsl #30
    3a64:	23020000 	movwcs	r0, #8192	; 0x2000
    3a68:	01a30704 			; <UNDEFINED> instruction: 0x01a30704
    3a6c:	60030000 	andvs	r0, r3, r0
    3a70:	00000025 	andeq	r0, r0, r5, lsr #32
    3a74:	07082302 	streq	r2, [r8, -r2, lsl #6]
    3a78:	00000117 	andeq	r0, r0, r7, lsl r1
    3a7c:	00256103 	eoreq	r6, r5, r3, lsl #2
    3a80:	23020000 	movwcs	r0, #8192	; 0x2000
    3a84:	0008070c 	andeq	r0, r8, ip, lsl #14
    3a88:	62030000 	andvs	r0, r3, #0
    3a8c:	00000025 	andeq	r0, r0, r5, lsr #32
    3a90:	07102302 	ldreq	r2, [r0, -r2, lsl #6]
    3a94:	000001b7 			; <UNDEFINED> instruction: 0x000001b7
    3a98:	00256303 	eoreq	r6, r5, r3, lsl #6
    3a9c:	23020000 	movwcs	r0, #8192	; 0x2000
    3aa0:	003c0714 	eorseq	r0, ip, r4, lsl r7
    3aa4:	64030000 	strvs	r0, [r3], #-0
    3aa8:	00000025 	andeq	r0, r0, r5, lsr #32
    3aac:	07182302 	ldreq	r2, [r8, -r2, lsl #6]
    3ab0:	00000131 	andeq	r0, r0, r1, lsr r1
    3ab4:	00256503 	eoreq	r6, r5, r3, lsl #10
    3ab8:	23020000 	movwcs	r0, #8192	; 0x2000
    3abc:	0000071c 	andeq	r0, r0, ip, lsl r7
    3ac0:	66030000 	strvs	r0, [r3], -r0
    3ac4:	00000025 	andeq	r0, r0, r5, lsr #32
    3ac8:	07202302 	streq	r2, [r0, -r2, lsl #6]!
    3acc:	0000006e 	andeq	r0, r0, lr, rrx
    3ad0:	00256703 	eoreq	r6, r5, r3, lsl #14
    3ad4:	23020000 	movwcs	r0, #8192	; 0x2000
    3ad8:	16c60724 	strbne	r0, [r6], r4, lsr #14
    3adc:	68030000 	stmdavs	r3, {}	; <UNPREDICTABLE>
    3ae0:	00000025 	andeq	r0, r0, r5, lsr #32
    3ae4:	07282302 	streq	r2, [r8, -r2, lsl #6]!
    3ae8:	000001fb 	strdeq	r0, [r0], -fp
    3aec:	00256903 	eoreq	r6, r5, r3, lsl #18
    3af0:	23020000 	movwcs	r0, #8192	; 0x2000
    3af4:	005a072c 	subseq	r0, sl, ip, lsr #14
    3af8:	6a030000 	bvs	c3b00 <__dram_freq_start+0xc3b00>
    3afc:	00000025 	andeq	r0, r0, r5, lsr #32
    3b00:	07302302 	ldreq	r2, [r0, -r2, lsl #6]!
    3b04:	00000064 	andeq	r0, r0, r4, rrx
    3b08:	00256b03 	eoreq	r6, r5, r3, lsl #22
    3b0c:	23020000 	movwcs	r0, #8192	; 0x2000
    3b10:	02050734 	andeq	r0, r5, #13631488	; 0xd00000
    3b14:	6c030000 	stcvs	0, cr0, [r3], {-0}
    3b18:	00000025 	andeq	r0, r0, r5, lsr #32
    3b1c:	07382302 	ldreq	r2, [r8, -r2, lsl #6]!
    3b20:	0000007a 	andeq	r0, r0, sl, ror r0
    3b24:	00256d03 	eoreq	r6, r5, r3, lsl #26
    3b28:	23020000 	movwcs	r0, #8192	; 0x2000
    3b2c:	0084073c 	addeq	r0, r4, ip, lsr r7
    3b30:	6e030000 	cdpvs	0, 0, cr0, cr3, cr0, {0}
    3b34:	00000025 	andeq	r0, r0, r5, lsr #32
    3b38:	07402302 	strbeq	r2, [r0, -r2, lsl #6]
    3b3c:	0000026c 	andeq	r0, r0, ip, ror #4
    3b40:	00256f03 	eoreq	r6, r5, r3, lsl #30
    3b44:	23020000 	movwcs	r0, #8192	; 0x2000
    3b48:	02760744 	rsbseq	r0, r6, #17825792	; 0x1100000
    3b4c:	70030000 	andvc	r0, r3, r0
    3b50:	00000025 	andeq	r0, r0, r5, lsr #32
    3b54:	07482302 	strbeq	r2, [r8, -r2, lsl #6]
    3b58:	00000280 	andeq	r0, r0, r0, lsl #5
    3b5c:	00257103 	eoreq	r7, r5, r3, lsl #2
    3b60:	23020000 	movwcs	r0, #8192	; 0x2000
    3b64:	1a03004c 	bne	c3c9c <__dram_freq_start+0xc3c9c>
    3b68:	03000000 	movweq	r0, #0
    3b6c:	00008372 	andeq	r8, r0, r2, ror r3
    3b70:	16df0300 	ldrbne	r0, [pc], r0, lsl #6
    3b74:	6b040000 	blvs	103b7c <__dram_freq_start+0x103b7c>
    3b78:	000001a8 	andeq	r0, r0, r8, lsr #3
    3b7c:	c2080102 	andgt	r0, r8, #-2147483648	; 0x80000000
    3b80:	08000000 	stmdaeq	r0, {}	; <UNPREDICTABLE>
    3b84:	00184d01 	andseq	r4, r8, r1, lsl #26
    3b88:	01630100 	cmneq	r3, r0, lsl #2
    3b8c:	f00014c0 			; <UNDEFINED> instruction: 0xf00014c0
    3b90:	f0001534 			; <UNDEFINED> instruction: 0xf0001534
    3b94:	000011b3 			; <UNDEFINED> instruction: 0x000011b3
    3b98:	000001fc 	strdeq	r0, [r0], -ip
    3b9c:	000b4909 	andeq	r4, fp, r9, lsl #18
    3ba0:	65650100 	strbvs	r0, [r5, #-256]!	; 0x100
    3ba4:	02000000 	andeq	r0, r0, #0
    3ba8:	010a7491 			; <UNDEFINED> instruction: 0x010a7491
    3bac:	00001744 	andeq	r1, r0, r4, asr #14
    3bb0:	005e6a01 	subseq	r6, lr, r1, lsl #20
    3bb4:	0b010000 	bleq	43bbc <__dram_freq_start+0x43bbc>
    3bb8:	01080000 	mrseq	r0, (UNDEF: 8)
    3bbc:	00001839 	andeq	r1, r0, r9, lsr r8
    3bc0:	34017001 	strcc	r7, [r1], #-1
    3bc4:	a0f00015 	rscsge	r0, r0, r5, lsl r0
    3bc8:	dff00015 	svcle	0x00f00015
    3bcc:	24000011 	strcs	r0, [r0], #-17
    3bd0:	09000002 	stmdbeq	r0, {r1}
    3bd4:	00000b49 	andeq	r0, r0, r9, asr #22
    3bd8:	00657201 	rsbeq	r7, r5, r1, lsl #4
    3bdc:	91020000 	mrsls	r0, (UNDEF: 2)
    3be0:	01080074 	tsteq	r8, r4, ror r0
    3be4:	00001820 	andeq	r1, r0, r0, lsr #16
    3be8:	a0017d01 	andge	r7, r1, r1, lsl #26
    3bec:	f8f00015 			; <UNDEFINED> instruction: 0xf8f00015
    3bf0:	0bf00015 	bleq	ffc03c4c <__bss_end+0xfc00b14>
    3bf4:	4c000012 	stcmi	0, cr0, [r0], {18}
    3bf8:	09000002 	stmdbeq	r0, {r1}
    3bfc:	00000b49 	andeq	r0, r0, r9, asr #22
    3c00:	00657f01 	rsbeq	r7, r5, r1, lsl #30
    3c04:	91020000 	mrsls	r0, (UNDEF: 2)
    3c08:	01080074 	tsteq	r8, r4, ror r0
    3c0c:	00001875 	andeq	r1, r0, r5, ror r8
    3c10:	f8018701 			; <UNDEFINED> instruction: 0xf8018701
    3c14:	44f00015 	ldrbtmi	r0, [r0], #21
    3c18:	37f00016 			; <UNDEFINED> instruction: 0x37f00016
    3c1c:	74000012 	strvc	r0, [r0], #-18
    3c20:	09000002 	stmdbeq	r0, {r1}
    3c24:	00000b49 	andeq	r0, r0, r9, asr #22
    3c28:	00658901 	rsbeq	r8, r5, r1, lsl #18
    3c2c:	91020000 	mrsls	r0, (UNDEF: 2)
    3c30:	01080074 	tsteq	r8, r4, ror r0
    3c34:	000017dd 	ldrdeq	r1, [r0], -sp
    3c38:	44019001 	strmi	r9, [r1], #-1
    3c3c:	00f00016 	rscseq	r0, r0, r6, lsl r0
    3c40:	63f00017 	mvnsvs	r0, #23
    3c44:	9c000012 	stcls	0, cr0, [r0], {18}
    3c48:	0c000002 	stceq	0, cr0, [r0], {2}
    3c4c:	00001779 	andeq	r1, r0, r9, ror r7
    3c50:	00659001 	rsbeq	r9, r5, r1
    3c54:	91020000 	mrsls	r0, (UNDEF: 2)
    3c58:	01080074 	tsteq	r8, r4, ror r0
    3c5c:	000016a1 	andeq	r1, r0, r1, lsr #13
    3c60:	0001a201 	andeq	sl, r1, r1, lsl #4
    3c64:	04f00017 	ldrbteq	r0, [r0], #23
    3c68:	8ff00019 	svchi	0x00f00019
    3c6c:	fa000012 	blx	3cbc <__dram_freq_start+0x3cbc>
    3c70:	0c000002 	stceq	0, cr0, [r0], {2}
    3c74:	00001779 	andeq	r1, r0, r9, ror r7
    3c78:	0065a201 	rsbeq	sl, r5, r1, lsl #4
    3c7c:	91020000 	mrsls	r0, (UNDEF: 2)
    3c80:	00690d64 	rsbeq	r0, r9, r4, ror #26
    3c84:	0065a401 	rsbeq	sl, r5, r1, lsl #8
    3c88:	91020000 	mrsls	r0, (UNDEF: 2)
    3c8c:	0b490974 	bleq	1246264 <__dram_freq_start+0x1246264>
    3c90:	a5010000 	strge	r0, [r1, #-0]
    3c94:	00000065 	andeq	r0, r0, r5, rrx
    3c98:	09689102 	stmdbeq	r8!, {r1, r8, ip, pc}^
    3c9c:	000018b2 			; <UNDEFINED> instruction: 0x000018b2
    3ca0:	0065a601 	rsbeq	sl, r5, r1, lsl #12
    3ca4:	91020000 	mrsls	r0, (UNDEF: 2)
    3ca8:	17750970 			; <UNDEFINED> instruction: 0x17750970
    3cac:	a7010000 	strge	r0, [r1, -r0]
    3cb0:	00000065 	andeq	r0, r0, r5, rrx
    3cb4:	006c9102 	rsbeq	r9, ip, r2, lsl #2
    3cb8:	17950108 	ldrne	r0, [r5, r8, lsl #2]
    3cbc:	cb010000 	blgt	43cc4 <__dram_freq_start+0x43cc4>
    3cc0:	00190401 	andseq	r0, r9, r1, lsl #8
    3cc4:	001a34f0 			; <UNDEFINED> instruction: 0x001a34f0
    3cc8:	0012bbf0 			; <UNDEFINED> instruction: 0x0012bbf0
    3ccc:	00032200 	andeq	r2, r3, r0, lsl #4
    3cd0:	0b490900 	bleq	12460d8 <__dram_freq_start+0x12460d8>
    3cd4:	cd010000 	stcgt	0, cr0, [r1, #-0]
    3cd8:	00000065 	andeq	r0, r0, r5, rrx
    3cdc:	00749102 	rsbseq	r9, r4, r2, lsl #2
    3ce0:	16800108 	strne	r0, [r0], r8, lsl #2
    3ce4:	f3010000 	vhadd.u8	d0, d1, d0
    3ce8:	001a3401 	andseq	r3, sl, r1, lsl #8
    3cec:	001b24f0 			; <UNDEFINED> instruction: 0x001b24f0
    3cf0:	0012e7f0 			; <UNDEFINED> instruction: 0x0012e7f0
    3cf4:	00034800 	andeq	r4, r3, r0, lsl #16
    3cf8:	00690d00 	rsbeq	r0, r9, r0, lsl #26
    3cfc:	0065f501 	rsbeq	pc, r5, r1, lsl #10
    3d00:	91020000 	mrsls	r0, (UNDEF: 2)
    3d04:	010e0074 	tsteq	lr, r4, ror r0
    3d08:	00001663 	andeq	r1, r0, r3, ror #12
    3d0c:	01010601 	tsteq	r1, r1, lsl #12
    3d10:	f0001b24 			; <UNDEFINED> instruction: 0xf0001b24
    3d14:	f0001d40 			; <UNDEFINED> instruction: 0xf0001d40
    3d18:	00001313 	andeq	r1, r0, r3, lsl r3
    3d1c:	00000390 	muleq	r0, r0, r3
    3d20:	6b6c630f 	blvs	1b1c964 <__dram_freq_start+0x1b1c964>
    3d24:	01060100 	mrseq	r0, (UNDEF: 22)
    3d28:	00000065 	andeq	r0, r0, r5, rrx
    3d2c:	106c9102 	rsbne	r9, ip, r2, lsl #2
    3d30:	0000177f 	andeq	r1, r0, pc, ror r7
    3d34:	65010601 	strvs	r0, [r1, #-1537]	; 0x601
    3d38:	02000000 	andeq	r0, r0, #0
    3d3c:	49116891 	ldmdbmi	r1, {r0, r4, r7, fp, sp, lr}
    3d40:	0100000b 	tsteq	r0, fp
    3d44:	00650108 	rsbeq	r0, r5, r8, lsl #2
    3d48:	91020000 	mrsls	r0, (UNDEF: 2)
    3d4c:	01120074 	tsteq	r2, r4, ror r0
    3d50:	0000178a 	andeq	r1, r0, sl, lsl #15
    3d54:	01014601 	tsteq	r1, r1, lsl #12
    3d58:	00000053 	andeq	r0, r0, r3, asr r0
    3d5c:	f0001d40 			; <UNDEFINED> instruction: 0xf0001d40
    3d60:	f00024f8 			; <UNDEFINED> instruction: 0xf00024f8
    3d64:	0000133f 	andeq	r1, r0, pc, lsr r3
    3d68:	00000406 	andeq	r0, r0, r6, lsl #8
    3d6c:	00170e10 	andseq	r0, r7, r0, lsl lr
    3d70:	01460100 	mrseq	r0, (UNDEF: 86)
    3d74:	00000406 	andeq	r0, r0, r6, lsl #8
    3d78:	11649102 	cmnne	r4, r2, lsl #2
    3d7c:	00000b49 	andeq	r0, r0, r9, asr #22
    3d80:	65014801 	strvs	r4, [r1, #-2049]	; 0x801
    3d84:	02000000 	andeq	r0, r0, #0
    3d88:	b2117491 	andslt	r7, r1, #-1862270976	; 0x91000000
    3d8c:	01000016 	tsteq	r0, r6, lsl r0
    3d90:	00650149 	rsbeq	r0, r5, r9, asr #2
    3d94:	91020000 	mrsls	r0, (UNDEF: 2)
    3d98:	188d1370 	stmne	sp, {r4, r5, r6, r8, r9, ip}
    3d9c:	4a010000 	bmi	43da4 <__dram_freq_start+0x43da4>
    3da0:	00003301 	andeq	r3, r0, r1, lsl #6
    3da4:	18851100 	stmne	r5, {r8, ip}
    3da8:	4b010000 	blmi	43db0 <__dram_freq_start+0x43db0>
    3dac:	00005301 	andeq	r5, r0, r1, lsl #6
    3db0:	6c910200 	lfmvs	f0, 4, [r1], {0}
    3db4:	1744010a 	strbne	r0, [r4, -sl, lsl #2]
    3db8:	6a010000 	bvs	43dc0 <__dram_freq_start+0x43dc0>
    3dbc:	0000005e 	andeq	r0, r0, lr, asr r0
    3dc0:	00000b01 	andeq	r0, r0, r1, lsl #22
    3dc4:	01b30414 			; <UNDEFINED> instruction: 0x01b30414
    3dc8:	01120000 	tsteq	r2, r0
    3dcc:	000017c9 	andeq	r1, r0, r9, asr #15
    3dd0:	01024f01 	tsteq	r2, r1, lsl #30
    3dd4:	00000053 	andeq	r0, r0, r3, asr r0
    3dd8:	f00024f8 			; <UNDEFINED> instruction: 0xf00024f8
    3ddc:	f00025b4 			; <UNDEFINED> instruction: 0xf00025b4
    3de0:	0000136b 	andeq	r1, r0, fp, ror #6
    3de4:	0000043a 	andeq	r0, r0, sl, lsr r4
    3de8:	000b4911 	andeq	r4, fp, r1, lsl r9
    3dec:	02510100 	subseq	r0, r1, #0
    3df0:	00000065 	andeq	r0, r0, r5, rrx
    3df4:	00749102 	rsbseq	r9, r4, r2, lsl #2
    3df8:	17ee010e 	strbne	r0, [lr, lr, lsl #2]!
    3dfc:	86010000 	strhi	r0, [r1], -r0
    3e00:	25b40102 	ldrcs	r0, [r4, #258]!	; 0x102
    3e04:	2618f000 	ldrcs	pc, [r8], -r0
    3e08:	1397f000 	orrsne	pc, r7, #0
    3e0c:	04720000 	ldrbteq	r0, [r2], #-0
    3e10:	6f0f0000 	svcvs	0x000f0000
    3e14:	8601006e 	strhi	r0, [r1], -lr, rrx
    3e18:	00006502 	andeq	r6, r0, r2, lsl #10
    3e1c:	6c910200 	lfmvs	f0, 4, [r1], {0}
    3e20:	000b4911 	andeq	r4, fp, r1, lsl r9
    3e24:	02880100 	addeq	r0, r8, #0
    3e28:	00000065 	andeq	r0, r0, r5, rrx
    3e2c:	00749102 	rsbseq	r9, r4, r2, lsl #2
    3e30:	1804010e 	stmdane	r4, {r1, r2, r3, r8}
    3e34:	9e010000 	cdpls	0, 0, cr0, cr1, cr0, {0}
    3e38:	26180102 	ldrcs	r0, [r8], -r2, lsl #2
    3e3c:	2698f000 	ldrcs	pc, [r8], r0
    3e40:	13c3f000 	bicne	pc, r3, #0
    3e44:	04ba0000 	ldrteq	r0, [sl], #0
    3e48:	630f0000 	movwvs	r0, #61440	; 0xf000
    3e4c:	01006b6c 	tsteq	r0, ip, ror #22
    3e50:	0065029e 	mlseq	r5, lr, r2, r0
    3e54:	91020000 	mrsls	r0, (UNDEF: 2)
    3e58:	0b49116c 	bleq	1248410 <__dram_freq_start+0x1248410>
    3e5c:	a0010000 	andge	r0, r1, r0
    3e60:	00006502 	andeq	r6, r0, r2, lsl #10
    3e64:	74910200 	ldrvc	r0, [r1], #512	; 0x200
    3e68:	00183111 	andseq	r3, r8, r1, lsl r1
    3e6c:	02a20100 	adceq	r0, r2, #0
    3e70:	00000065 	andeq	r0, r0, r5, rrx
    3e74:	00709102 	rsbseq	r9, r0, r2, lsl #2
    3e78:	16bc0112 	ssatne	r0, #29, r2, lsl #2
    3e7c:	ca010000 	bgt	43e84 <__dram_freq_start+0x43e84>
    3e80:	00650102 	rsbeq	r0, r5, r2, lsl #2
    3e84:	26980000 	ldrcs	r0, [r8], r0
    3e88:	27b8f000 	ldrcs	pc, [r8, r0]!
    3e8c:	13eff000 	mvnne	pc, #0
    3e90:	05060000 	streq	r0, [r6, #-0]
    3e94:	49110000 	ldmdbmi	r1, {}	; <UNPREDICTABLE>
    3e98:	0100000b 	tsteq	r0, fp
    3e9c:	006502cc 	rsbeq	r0, r5, ip, asr #5
    3ea0:	91020000 	mrsls	r0, (UNDEF: 2)
    3ea4:	16c61170 			; <UNDEFINED> instruction: 0x16c61170
    3ea8:	cd010000 	stcgt	0, cr0, [r1, #-0]
    3eac:	00006502 	andeq	r6, r0, r2, lsl #10
    3eb0:	74910200 	ldrvc	r0, [r1], #512	; 0x200
    3eb4:	00169811 	andseq	r9, r6, r1, lsl r8
    3eb8:	02ce0100 	sbceq	r0, lr, #0
    3ebc:	00000065 	andeq	r0, r0, r5, rrx
    3ec0:	006c9102 	rsbeq	r9, ip, r2, lsl #2
    3ec4:	17bf0115 			; <UNDEFINED> instruction: 0x17bf0115
    3ec8:	ea010000 	b	43ed0 <__dram_freq_start+0x43ed0>
    3ecc:	00530102 	subseq	r0, r3, r2, lsl #2
    3ed0:	27b80000 	ldrcs	r0, [r8, r0]!
    3ed4:	27d4f000 	ldrbcs	pc, [r4, r0]	; <UNPREDICTABLE>
    3ed8:	141bf000 	ldrne	pc, [fp], #-0
    3edc:	010e0000 	mrseq	r0, (UNDEF: 14)
    3ee0:	000018a2 	andeq	r1, r0, r2, lsr #17
    3ee4:	0102f101 	tsteq	r2, r1, lsl #2
    3ee8:	f00027d4 			; <UNDEFINED> instruction: 0xf00027d4
    3eec:	f00027f0 			; <UNDEFINED> instruction: 0xf00027f0
    3ef0:	00001447 	andeq	r1, r0, r7, asr #8
    3ef4:	0000054a 	andeq	r0, r0, sl, asr #10
    3ef8:	6c61760f 	stclvs	6, cr7, [r1], #-60	; 0xffffffc4
    3efc:	02f10100 	rscseq	r0, r1, #0
    3f00:	0000007e 	andeq	r0, r0, lr, ror r0
    3f04:	00749102 	rsbseq	r9, r4, r2, lsl #2
    3f08:	185d010e 	ldmdane	sp, {r1, r2, r3, r8}^
    3f0c:	00010000 	andeq	r0, r1, r0
    3f10:	27f00103 	ldrbcs	r0, [r0, r3, lsl #2]!
    3f14:	2888f000 	stmcs	r8, {ip, sp, lr, pc}
    3f18:	1473f000 	ldrbtne	pc, [r3], #-0	; <UNPREDICTABLE>
    3f1c:	05740000 	ldrbeq	r0, [r4, #-0]!
    3f20:	49110000 	ldmdbmi	r1, {}	; <UNPREDICTABLE>
    3f24:	0100000b 	tsteq	r0, fp
    3f28:	00650302 	rsbeq	r0, r5, r2, lsl #6
    3f2c:	91020000 	mrsls	r0, (UNDEF: 2)
    3f30:	010e0074 	tsteq	lr, r4, ror r0
    3f34:	000017b0 			; <UNDEFINED> instruction: 0x000017b0
    3f38:	01031401 	tsteq	r3, r1, lsl #8
    3f3c:	f0002888 			; <UNDEFINED> instruction: 0xf0002888
    3f40:	f00029d8 			; <UNDEFINED> instruction: 0xf00029d8
    3f44:	0000149f 	muleq	r0, pc, r4	; <UNPREDICTABLE>
    3f48:	000005ad 	andeq	r0, r0, sp, lsr #11
    3f4c:	6b6c630f 	blvs	1b1cb90 <__dram_freq_start+0x1b1cb90>
    3f50:	03140100 	tsteq	r4, #0
    3f54:	00000065 	andeq	r0, r0, r5, rrx
    3f58:	116c9102 	cmnne	ip, r2, lsl #2
    3f5c:	00000b49 	andeq	r0, r0, r9, asr #22
    3f60:	65031601 	strvs	r1, [r3, #-1537]	; 0x601
    3f64:	02000000 	andeq	r0, r0, #0
    3f68:	12007491 	andne	r7, r0, #-1862270976	; 0x91000000
    3f6c:	0000ec01 	andeq	lr, r0, r1, lsl #24
    3f70:	03380100 	teqeq	r8, #0
    3f74:	00005301 	andeq	r5, r0, r1, lsl #6
    3f78:	0029d800 	eoreq	sp, r9, r0, lsl #16
    3f7c:	002db4f0 	strdeq	fp, [sp], -r0	; <UNPREDICTABLE>
    3f80:	0014cbf0 			; <UNDEFINED> instruction: 0x0014cbf0
    3f84:	00060300 	andeq	r0, r6, r0, lsl #6
    3f88:	16791000 	ldrbtne	r1, [r9], -r0
    3f8c:	38010000 	stmdacc	r1, {}	; <UNPREDICTABLE>
    3f90:	00003e03 	andeq	r3, r0, r3, lsl #28
    3f94:	6f910200 	svcvs	0x00910200
    3f98:	0001d910 	andeq	sp, r1, r0, lsl r9
    3f9c:	03380100 	teqeq	r8, #0
    3fa0:	00000406 	andeq	r0, r0, r6, lsl #8
    3fa4:	11689102 	cmnne	r8, r2, lsl #2
    3fa8:	00000b49 	andeq	r0, r0, r9, asr #22
    3fac:	65033a01 	strvs	r3, [r3, #-2561]	; 0xa01
    3fb0:	02000000 	andeq	r0, r0, #0
    3fb4:	69167491 	ldmdbvs	r6, {r0, r4, r7, sl, ip, sp, lr}
    3fb8:	033d0100 	teqeq	sp, #0
    3fbc:	00000065 	andeq	r0, r0, r5, rrx
    3fc0:	a6011200 	strge	r1, [r1], -r0, lsl #4
    3fc4:	01000017 	tsteq	r0, r7, lsl r0
    3fc8:	530103f4 	movwpl	r0, #5108	; 0x13f4
    3fcc:	b4000000 	strlt	r0, [r0], #-0
    3fd0:	18f0002d 	ldmne	r0!, {r0, r2, r3, r5}^
    3fd4:	f7f0002e 			; <UNDEFINED> instruction: 0xf7f0002e
    3fd8:	4d000014 	stcmi	0, cr0, [r0, #-80]	; 0xffffffb0
    3fdc:	10000006 	andne	r0, r0, r6
    3fe0:	00001708 	andeq	r1, r0, r8, lsl #14
    3fe4:	4d03f401 	cfstrsmi	mvf15, [r3, #-4]
    3fe8:	02000006 	andeq	r0, r0, #6
    3fec:	69176c91 	ldmdbvs	r7, {r0, r4, r7, sl, fp, sp, lr}
    3ff0:	03f60100 	mvnseq	r0, #0
    3ff4:	00000065 	andeq	r0, r0, r5, rrx
    3ff8:	11749102 	cmnne	r4, r2, lsl #2
    3ffc:	00001885 	andeq	r1, r0, r5, lsl #17
    4000:	5303f701 	movwpl	pc, #14081	; 0x3701	; <UNPREDICTABLE>
    4004:	02000000 	andeq	r0, r0, #0
    4008:	14007091 	strne	r7, [r0], #-145	; 0x91
    400c:	0001a804 	andeq	sl, r1, r4, lsl #16
    4010:	5d011500 	cfstr32pl	mvfx1, [r1, #-0]
    4014:	01000017 	tsteq	r0, r7, lsl r0
    4018:	5301040a 	movwpl	r0, #5130	; 0x140a
    401c:	18000000 	stmdane	r0, {}	; <UNPREDICTABLE>
    4020:	34f0002e 	ldrbtcc	r0, [r0], #46	; 0x2e
    4024:	23f0002e 	mvnscs	r0, #46	; 0x2e
    4028:	15000015 	strne	r0, [r0, #-21]
    402c:	00176701 	andseq	r6, r7, r1, lsl #14
    4030:	040f0100 	streq	r0, [pc], #-256	; 4038 <__dram_freq_start+0x4038>
    4034:	00005301 	andeq	r5, r0, r1, lsl #6
    4038:	002e3400 	eoreq	r3, lr, r0, lsl #8
    403c:	002e4cf0 	strdeq	r4, [lr], -r0	; <UNPREDICTABLE>
    4040:	00154ff0 			; <UNDEFINED> instruction: 0x00154ff0
    4044:	d0010e00 	andle	r0, r1, r0, lsl #28
    4048:	01000016 	tsteq	r0, r6, lsl r0
    404c:	4c010414 	cfstrsmi	mvf0, [r1], {20}
    4050:	74f0002e 	ldrbtvc	r0, [r0], #46	; 0x2e
    4054:	7bf0002e 	blvc	ffc04114 <__bss_end+0xfc00fdc>
    4058:	b1000015 	tstlt	r0, r5, lsl r0
    405c:	0f000006 	svceq	0x00000006
    4060:	006b6c63 	rsbeq	r6, fp, r3, ror #24
    4064:	5e041401 	cdppl	4, 0, cr1, cr4, cr1, {0}
    4068:	02000000 	andeq	r0, r0, #0
    406c:	18007491 	stmdane	r0, {r0, r4, r7, sl, ip, sp, lr}
    4070:	00174e01 	andseq	r4, r7, r1, lsl #28
    4074:	04190100 	ldreq	r0, [r9], #-256	; 0x100
    4078:	002e7401 	eoreq	r7, lr, r1, lsl #8
    407c:	002e84f0 	strdeq	r8, [lr], -r0	; <UNPREDICTABLE>
    4080:	0015a7f0 			; <UNDEFINED> instruction: 0x0015a7f0
    4084:	ed010e00 	stc	14, cr0, [r1, #-0]
    4088:	01000016 	tsteq	r0, r6, lsl r0
    408c:	8401041e 	strhi	r0, [r1], #-1054	; 0x41e
    4090:	a4f0002e 	ldrbtge	r0, [r0], #46	; 0x2e
    4094:	d3f0002e 	mvnsle	r0, #46	; 0x2e
    4098:	f1000015 	cps	#21
    409c:	0f000006 	svceq	0x00000006
    40a0:	006b6c63 	rsbeq	r6, fp, r3, ror #24
    40a4:	65041e01 	strvs	r1, [r4, #-3585]	; 0xe01
    40a8:	02000000 	andeq	r0, r0, #0
    40ac:	15007491 	strne	r7, [r0, #-1169]	; 0x491
    40b0:	00171301 	andseq	r1, r7, r1, lsl #6
    40b4:	04230100 	strteq	r0, [r3], #-256	; 0x100
    40b8:	00005301 	andeq	r5, r0, r1, lsl #6
    40bc:	002ea400 	eoreq	sl, lr, r0, lsl #8
    40c0:	002ebcf0 	strdeq	fp, [lr], -r0	; <UNPREDICTABLE>
    40c4:	0015fff0 			; <UNDEFINED> instruction: 0x0015fff0
    40c8:	00651900 	rsbeq	r1, r5, r0, lsl #18
    40cc:	071b0000 	ldreq	r0, [fp, -r0]
    40d0:	251a0000 	ldrcs	r0, [sl, #-0]
    40d4:	1f000000 	svcne	0x00000000
    40d8:	18971b00 	ldmne	r7, {r8, r9, fp, ip}
    40dc:	e9010000 	stmdb	r1, {}	; <UNPREDICTABLE>
    40e0:	0000070b 	andeq	r0, r0, fp, lsl #14
    40e4:	10030501 	andne	r0, r3, r1, lsl #10
    40e8:	00f0002f 	rscseq	r0, r0, pc, lsr #32

Disassembly of section .debug_abbrev:

00000000 <.debug_abbrev>:
   0:	25011101 	strcs	r1, [r1, #-257]	; 0x101
   4:	030b130e 	movweq	r1, #45838	; 0xb30e
   8:	110e1b0e 	tstne	lr, lr, lsl #22
   c:	55015201 	strpl	r5, [r1, #-513]	; 0x201
  10:	00061006 	andeq	r1, r6, r6
  14:	00240200 	eoreq	r0, r4, r0, lsl #4
  18:	0b3e0b0b 	bleq	f82c4c <__dram_freq_start+0xf82c4c>
  1c:	00000e03 	andeq	r0, r0, r3, lsl #28
  20:	0b002403 	bleq	9034 <__dram_freq_start+0x9034>
  24:	030b3e0b 	movweq	r3, #48651	; 0xbe0b
  28:	04000008 	streq	r0, [r0], #-8
  2c:	0e030016 	mcreq	0, 0, r0, cr3, cr6, {0}
  30:	0b3b0b3a 	bleq	ec2d20 <__dram_freq_start+0xec2d20>
  34:	00001349 	andeq	r1, r0, r9, asr #6
  38:	03011305 	movweq	r1, #4869	; 0x1305
  3c:	3a0b0b0e 	bcc	2c2c7c <__dram_freq_start+0x2c2c7c>
  40:	010b3b0b 	tsteq	fp, fp, lsl #22
  44:	06000013 			; <UNDEFINED> instruction: 0x06000013
  48:	0e03000d 	cdpeq	0, 0, cr0, cr3, cr13, {0}
  4c:	0b3b0b3a 	bleq	ec2d3c <__dram_freq_start+0xec2d3c>
  50:	0a381349 	beq	e04d7c <__dram_freq_start+0xe04d7c>
  54:	0f070000 	svceq	0x00070000
  58:	000b0b00 	andeq	r0, fp, r0, lsl #22
  5c:	012e0800 	teqeq	lr, r0, lsl #16
  60:	0b3a0e03 	bleq	e83874 <__dram_freq_start+0xe83874>
  64:	0c270b3b 	stceq	11, cr0, [r7], #-236	; 0xffffff14
  68:	13010b20 	movwne	r0, #6944	; 0x1b20
  6c:	05090000 	streq	r0, [r9, #-0]
  70:	3a0e0300 	bcc	380c78 <__dram_freq_start+0x380c78>
  74:	490b3b0b 	stmdbmi	fp, {r0, r1, r3, r8, r9, fp, ip, sp}
  78:	0a000013 	beq	cc <__dram_freq_start+0xcc>
  7c:	08030005 	stmdaeq	r3, {r0, r2}
  80:	0b3b0b3a 	bleq	ec2d70 <__dram_freq_start+0xec2d70>
  84:	00001349 	andeq	r1, r0, r9, asr #6
  88:	0300340b 	movweq	r3, #1035	; 0x40b
  8c:	3b0b3a0e 	blcc	2ce8cc <__dram_freq_start+0x2ce8cc>
  90:	0013490b 	andseq	r4, r3, fp, lsl #18
  94:	000f0c00 	andeq	r0, pc, r0, lsl #24
  98:	13490b0b 	movtne	r0, #39691	; 0x9b0b
  9c:	2e0d0000 	cdpcs	0, 0, cr0, cr13, cr0, {0}
  a0:	11133101 	tstne	r3, r1, lsl #2
  a4:	40011201 	andmi	r1, r1, r1, lsl #4
  a8:	0013010a 	andseq	r0, r3, sl, lsl #2
  ac:	00050e00 	andeq	r0, r5, r0, lsl #28
  b0:	0a021331 	beq	84d7c <__dram_freq_start+0x84d7c>
  b4:	340f0000 	strcc	r0, [pc], #-0	; bc <__dram_freq_start+0xbc>
  b8:	02133100 	andseq	r3, r3, #0
  bc:	1000000a 	andne	r0, r0, sl
  c0:	1331011d 	teqne	r1, #1073741831	; 0x40000007
  c4:	01120111 	tsteq	r2, r1, lsl r1
  c8:	0b590b58 	bleq	1642e30 <__dram_freq_start+0x1642e30>
  cc:	05110000 	ldreq	r0, [r1, #-0]
  d0:	02133100 	andseq	r3, r3, #0
  d4:	12000006 	andne	r0, r0, #6
  d8:	13310005 	teqne	r1, #5
  dc:	0b130000 	bleq	4c00e4 <__dram_freq_start+0x4c00e4>
  e0:	12011101 	andne	r1, r1, #1073741824	; 0x40000000
  e4:	14000001 	strne	r0, [r0], #-1
  e8:	13310034 	teqne	r1, #52	; 0x34
  ec:	00000602 	andeq	r0, r0, r2, lsl #12
  f0:	3f012e15 	svccc	0x00012e15
  f4:	3a0e030c 	bcc	380d2c <__dram_freq_start+0x380d2c>
  f8:	270b3b0b 	strcs	r3, [fp, -fp, lsl #22]
  fc:	1113490c 	tstne	r3, ip, lsl #18
 100:	40011201 	andmi	r1, r1, r1, lsl #4
 104:	00130106 	andseq	r0, r3, r6, lsl #2
 108:	00051600 	andeq	r1, r5, r0, lsl #12
 10c:	0b3a0e03 	bleq	e83920 <__dram_freq_start+0xe83920>
 110:	13490b3b 	movtne	r0, #39739	; 0x9b3b
 114:	00000602 	andeq	r0, r0, r2, lsl #12
 118:	03003417 	movweq	r3, #1047	; 0x417
 11c:	3b0b3a0e 	blcc	2ce95c <__dram_freq_start+0x2ce95c>
 120:	0213490b 	andseq	r4, r3, #180224	; 0x2c000
 124:	18000006 	stmdane	r0, {r1, r2}
 128:	0e030034 	mcreq	0, 0, r0, cr3, cr4, {1}
 12c:	0b3b0b3a 	bleq	ec2e1c <__dram_freq_start+0xec2e1c>
 130:	0d1c1349 	ldceq	3, cr1, [ip, #-292]	; 0xfffffedc
 134:	2e190000 	cdpcs	0, 1, cr0, cr9, cr0, {0}
 138:	030c3f01 	movweq	r3, #52993	; 0xcf01
 13c:	3b0b3a0e 	blcc	2ce97c <__dram_freq_start+0x2ce97c>
 140:	3c13490b 	ldccc	9, cr4, [r3], {11}
 144:	1a00000c 	bne	17c <__dram_freq_start+0x17c>
 148:	00000018 	andeq	r0, r0, r8, lsl r0
 14c:	0300341b 	movweq	r3, #1051	; 0x41b
 150:	3b0b3a0e 	blcc	2ce990 <__dram_freq_start+0x2ce990>
 154:	3f13490b 	svccc	0x0013490b
 158:	000c3c0c 	andeq	r3, ip, ip, lsl #24
 15c:	00341c00 	eorseq	r1, r4, r0, lsl #24
 160:	0b3a0e03 	bleq	e83974 <__dram_freq_start+0xe83974>
 164:	13490b3b 	movtne	r0, #39739	; 0x9b3b
 168:	0a020c3f 	beq	8326c <__dram_freq_start+0x8326c>
 16c:	011d0000 	tsteq	sp, r0
 170:	01134901 	tsteq	r3, r1, lsl #18
 174:	1e000013 	mcrne	0, 0, r0, cr0, cr3, {0}
 178:	13490021 	movtne	r0, #36897	; 0x9021
 17c:	00000b2f 	andeq	r0, r0, pc, lsr #22
 180:	01110100 	tsteq	r1, r0, lsl #2
 184:	0b130e25 	bleq	4c3a20 <__dram_freq_start+0x4c3a20>
 188:	0e1b0e03 	cdpeq	14, 1, cr0, cr11, cr3, {0}
 18c:	01120111 	tsteq	r2, r1, lsl r1
 190:	00000610 	andeq	r0, r0, r0, lsl r6
 194:	0b002402 	bleq	91a4 <__dram_freq_start+0x91a4>
 198:	030b3e0b 	movweq	r3, #48651	; 0xbe0b
 19c:	0300000e 	movweq	r0, #14
 1a0:	0e030016 	mcreq	0, 0, r0, cr3, cr6, {0}
 1a4:	0b3b0b3a 	bleq	ec2e94 <__dram_freq_start+0xec2e94>
 1a8:	00001349 	andeq	r1, r0, r9, asr #6
 1ac:	0b002404 	bleq	91c4 <__dram_freq_start+0x91c4>
 1b0:	030b3e0b 	movweq	r3, #48651	; 0xbe0b
 1b4:	05000008 	streq	r0, [r0, #-8]
 1b8:	0e03012e 	adfeqsp	f0, f3, #0.5
 1bc:	0b3b0b3a 	bleq	ec2eac <__dram_freq_start+0xec2eac>
 1c0:	13490c27 	movtne	r0, #39975	; 0x9c27
 1c4:	13010b20 	movwne	r0, #6944	; 0x1b20
 1c8:	34060000 	strcc	r0, [r6], #-0
 1cc:	3a0e0300 	bcc	380dd4 <__dram_freq_start+0x380dd4>
 1d0:	490b3b0b 	stmdbmi	fp, {r0, r1, r3, r8, r9, fp, ip, sp}
 1d4:	07000013 	smladeq	r0, r3, r0, r0
 1d8:	0e03012e 	adfeqsp	f0, f3, #0.5
 1dc:	0b3b0b3a 	bleq	ec2ecc <__dram_freq_start+0xec2ecc>
 1e0:	0b200c27 	bleq	803284 <__dram_freq_start+0x803284>
 1e4:	00001301 	andeq	r1, r0, r1, lsl #6
 1e8:	03000508 	movweq	r0, #1288	; 0x508
 1ec:	3b0b3a08 	blcc	2cea14 <__dram_freq_start+0x2cea14>
 1f0:	0013490b 	andseq	r4, r3, fp, lsl #18
 1f4:	002e0900 	eoreq	r0, lr, r0, lsl #18
 1f8:	0e030c3f 	mcreq	12, 0, r0, cr3, cr15, {1}
 1fc:	0b3b0b3a 	bleq	ec2eec <__dram_freq_start+0xec2eec>
 200:	01110c27 	tsteq	r1, r7, lsr #24
 204:	0a400112 	beq	1000654 <__dram_freq_start+0x1000654>
 208:	2e0a0000 	cdpcs	0, 0, cr0, cr10, cr0, {0}
 20c:	030c3f01 	movweq	r3, #52993	; 0xcf01
 210:	3b0b3a0e 	blcc	2cea50 <__dram_freq_start+0x2cea50>
 214:	490c270b 	stmdbmi	ip, {r0, r1, r3, r8, r9, sl, sp}
 218:	12011113 	andne	r1, r1, #-1073741820	; 0xc0000004
 21c:	010a4001 	tsteq	sl, r1
 220:	0b000013 	bleq	274 <__dram_freq_start+0x274>
 224:	0e030005 	cdpeq	0, 0, cr0, cr3, cr5, {0}
 228:	0b3b0b3a 	bleq	ec2f18 <__dram_freq_start+0xec2f18>
 22c:	06021349 	streq	r1, [r2], -r9, asr #6
 230:	0f0c0000 	svceq	0x000c0000
 234:	490b0b00 	stmdbmi	fp, {r8, r9, fp}
 238:	0d000013 	stceq	0, cr0, [r0, #-76]	; 0xffffffb4
 23c:	13490026 	movtne	r0, #36902	; 0x9026
 240:	050e0000 	streq	r0, [lr, #-0]
 244:	3a080300 	bcc	200e4c <__dram_freq_start+0x200e4c>
 248:	490b3b0b 	stmdbmi	fp, {r0, r1, r3, r8, r9, fp, ip, sp}
 24c:	00060213 	andeq	r0, r6, r3, lsl r2
 250:	00050f00 	andeq	r0, r5, r0, lsl #30
 254:	0b3a0803 	bleq	e82268 <__dram_freq_start+0xe82268>
 258:	13490b3b 	movtne	r0, #39739	; 0x9b3b
 25c:	00000a02 	andeq	r0, r0, r2, lsl #20
 260:	03003410 	movweq	r3, #1040	; 0x410
 264:	3b0b3a08 	blcc	2cea8c <__dram_freq_start+0x2cea8c>
 268:	0213490b 	andseq	r4, r3, #180224	; 0x2c000
 26c:	11000006 	tstne	r0, r6
 270:	08030034 	stmdaeq	r3, {r2, r4, r5}
 274:	0b3b0b3a 	bleq	ec2f64 <__dram_freq_start+0xec2f64>
 278:	00001349 	andeq	r1, r0, r9, asr #6
 27c:	31011d12 	tstcc	r1, r2, lsl sp
 280:	55015213 	strpl	r5, [r1, #-531]	; 0x213
 284:	590b5806 	stmdbpl	fp, {r1, r2, fp, ip, lr}
 288:	1300000b 	movwne	r0, #11
 28c:	0655010b 	ldrbeq	r0, [r5], -fp, lsl #2
 290:	34140000 	ldrcc	r0, [r4], #-0
 294:	00133100 	andseq	r3, r3, r0, lsl #2
 298:	012e1500 	teqeq	lr, r0, lsl #10
 29c:	0e030c3f 	mcreq	12, 0, r0, cr3, cr15, {1}
 2a0:	0b3b0b3a 	bleq	ec2f90 <__dram_freq_start+0xec2f90>
 2a4:	01110c27 	tsteq	r1, r7, lsr #24
 2a8:	0a400112 	beq	10006f8 <__dram_freq_start+0x10006f8>
 2ac:	00001301 	andeq	r1, r0, r1, lsl #6
 2b0:	03003416 	movweq	r3, #1046	; 0x416
 2b4:	3b0b3a0e 	blcc	2ceaf4 <__dram_freq_start+0x2ceaf4>
 2b8:	1c13490b 	ldcne	9, cr4, [r3], {11}
 2bc:	17000006 	strne	r0, [r0, -r6]
 2c0:	08030034 	stmdaeq	r3, {r2, r4, r5}
 2c4:	0b3b0b3a 	bleq	ec2fb4 <__dram_freq_start+0xec2fb4>
 2c8:	0b1c1349 	bleq	704ff4 <__dram_freq_start+0x704ff4>
 2cc:	34180000 	ldrcc	r0, [r8], #-0
 2d0:	3a080300 	bcc	200ed8 <__dram_freq_start+0x200ed8>
 2d4:	490b3b0b 	stmdbmi	fp, {r0, r1, r3, r8, r9, fp, ip, sp}
 2d8:	000d1c13 	andeq	r1, sp, r3, lsl ip
 2dc:	00341900 	eorseq	r1, r4, r0, lsl #18
 2e0:	0b3a0e03 	bleq	e83af4 <__dram_freq_start+0xe83af4>
 2e4:	13490b3b 	movtne	r0, #39739	; 0x9b3b
 2e8:	00000b1c 	andeq	r0, r0, ip, lsl fp
 2ec:	4900351a 	stmdbmi	r0, {r1, r3, r4, r8, sl, ip, sp}
 2f0:	1b000013 	blne	344 <__dram_freq_start+0x344>
 2f4:	0c3f012e 	ldfeqs	f0, [pc], #-184	; 244 <__dram_freq_start+0x244>
 2f8:	0b3a0e03 	bleq	e83b0c <__dram_freq_start+0xe83b0c>
 2fc:	0c270b3b 	stceq	11, cr0, [r7], #-236	; 0xffffff14
 300:	01111349 	tsteq	r1, r9, asr #6
 304:	06400112 			; <UNDEFINED> instruction: 0x06400112
 308:	00001301 	andeq	r1, r0, r1, lsl #6
 30c:	31011d1c 	tstcc	r1, ip, lsl sp
 310:	55015213 	strpl	r5, [r1, #-531]	; 0x213
 314:	590b5806 	stmdbpl	fp, {r1, r2, fp, ip, lr}
 318:	0013010b 	andseq	r0, r3, fp, lsl #2
 31c:	00051d00 	andeq	r1, r5, r0, lsl #26
 320:	00001331 	andeq	r1, r0, r1, lsr r3
 324:	31011d1e 	tstcc	r1, lr, lsl sp
 328:	12011113 	andne	r1, r1, #-1073741820	; 0xc0000004
 32c:	590b5801 	stmdbpl	fp, {r0, fp, ip, lr}
 330:	1f00000b 	svcne	0x0000000b
 334:	13310005 	teqne	r1, #5
 338:	00000602 	andeq	r0, r0, r2, lsl #12
 33c:	3f012e20 	svccc	0x00012e20
 340:	3a0e030c 	bcc	380f78 <__dram_freq_start+0x380f78>
 344:	270b3b0b 	strcs	r3, [fp, -fp, lsl #22]
 348:	1113490c 	tstne	r3, ip, lsl #18
 34c:	40011201 	andmi	r1, r1, r1, lsl #4
 350:	0000000a 	andeq	r0, r0, sl
 354:	25011101 	strcs	r1, [r1, #-257]	; 0x101
 358:	030b130e 	movweq	r1, #45838	; 0xb30e
 35c:	110e1b0e 	tstne	lr, lr, lsl #22
 360:	10011201 	andne	r1, r1, r1, lsl #4
 364:	02000006 	andeq	r0, r0, #6
 368:	0b0b0024 	bleq	2c0400 <__dram_freq_start+0x2c0400>
 36c:	0e030b3e 	vmoveq.16	d3[0], r0
 370:	16030000 	strne	r0, [r3], -r0
 374:	3a0e0300 	bcc	380f7c <__dram_freq_start+0x380f7c>
 378:	490b3b0b 	stmdbmi	fp, {r0, r1, r3, r8, r9, fp, ip, sp}
 37c:	04000013 	streq	r0, [r0], #-19
 380:	0b0b0024 	bleq	2c0418 <__dram_freq_start+0x2c0418>
 384:	08030b3e 	stmdaeq	r3, {r1, r2, r3, r4, r5, r8, r9, fp}
 388:	0f050000 	svceq	0x00050000
 38c:	000b0b00 	andeq	r0, fp, r0, lsl #22
 390:	01130600 	tsteq	r3, r0, lsl #12
 394:	0b0b0e03 	bleq	2c3ba8 <__dram_freq_start+0x2c3ba8>
 398:	0b3b0b3a 	bleq	ec3088 <__dram_freq_start+0xec3088>
 39c:	00001301 	andeq	r1, r0, r1, lsl #6
 3a0:	03000d07 	movweq	r0, #3335	; 0xd07
 3a4:	3813490e 	ldmdacc	r3, {r1, r2, r3, r8, fp, lr}
 3a8:	000c340a 	andeq	r3, ip, sl, lsl #8
 3ac:	012e0800 	teqeq	lr, r0, lsl #16
 3b0:	0e030c3f 	mcreq	12, 0, r0, cr3, cr15, {1}
 3b4:	0b3b0b3a 	bleq	ec30a4 <__dram_freq_start+0xec30a4>
 3b8:	13490c27 	movtne	r0, #39975	; 0x9c27
 3bc:	13010b20 	movwne	r0, #6944	; 0x1b20
 3c0:	05090000 	streq	r0, [r9, #-0]
 3c4:	3a080300 	bcc	200fcc <__dram_freq_start+0x200fcc>
 3c8:	490b3b0b 	stmdbmi	fp, {r0, r1, r3, r8, r9, fp, ip, sp}
 3cc:	0a000013 	beq	420 <__dram_freq_start+0x420>
 3d0:	08030034 	stmdaeq	r3, {r2, r4, r5}
 3d4:	0b3b0b3a 	bleq	ec30c4 <__dram_freq_start+0xec30c4>
 3d8:	00001349 	andeq	r1, r0, r9, asr #6
 3dc:	0b000f0b 	bleq	4010 <__dram_freq_start+0x4010>
 3e0:	0013490b 	andseq	r4, r3, fp, lsl #18
 3e4:	00260c00 	eoreq	r0, r6, r0, lsl #24
 3e8:	00001349 	andeq	r1, r0, r9, asr #6
 3ec:	0300050d 	movweq	r0, #1293	; 0x50d
 3f0:	3b0b3a0e 	blcc	2cec30 <__dram_freq_start+0x2cec30>
 3f4:	0013490b 	andseq	r4, r3, fp, lsl #18
 3f8:	012e0e00 	teqeq	lr, r0, lsl #28
 3fc:	01111331 	tsteq	r1, r1, lsr r3
 400:	0a400112 	beq	1000850 <__dram_freq_start+0x1000850>
 404:	00001301 	andeq	r1, r0, r1, lsl #6
 408:	3100050f 	tstcc	r0, pc, lsl #10
 40c:	00060213 	andeq	r0, r6, r3, lsl r2
 410:	00341000 	eorseq	r1, r4, r0
 414:	06021331 			; <UNDEFINED> instruction: 0x06021331
 418:	34110000 	ldrcc	r0, [r1], #-0
 41c:	02133100 	andseq	r3, r3, #0
 420:	1200000a 	andne	r0, r0, #10
 424:	0c3f012e 	ldfeqs	f0, [pc], #-184	; 374 <__dram_freq_start+0x374>
 428:	0b3a0e03 	bleq	e83c3c <__dram_freq_start+0xe83c3c>
 42c:	0c270b3b 	stceq	11, cr0, [r7], #-236	; 0xffffff14
 430:	01111349 	tsteq	r1, r9, asr #6
 434:	0a400112 	beq	1000884 <__dram_freq_start+0x1000884>
 438:	00001301 	andeq	r1, r0, r1, lsl #6
 43c:	03000513 	movweq	r0, #1299	; 0x513
 440:	3b0b3a0e 	blcc	2cec80 <__dram_freq_start+0x2cec80>
 444:	0213490b 	andseq	r4, r3, #180224	; 0x2c000
 448:	1400000a 	strne	r0, [r0], #-10
 44c:	08030005 	stmdaeq	r3, {r0, r2}
 450:	0b3b0b3a 	bleq	ec3140 <__dram_freq_start+0xec3140>
 454:	0a021349 	beq	85180 <__dram_freq_start+0x85180>
 458:	05150000 	ldreq	r0, [r5, #-0]
 45c:	3a0e0300 	bcc	381064 <__dram_freq_start+0x381064>
 460:	490b3b0b 	stmdbmi	fp, {r0, r1, r3, r8, r9, fp, ip, sp}
 464:	00060213 	andeq	r0, r6, r3, lsl r2
 468:	00341600 	eorseq	r1, r4, r0, lsl #12
 46c:	0b3a0803 	bleq	e82480 <__dram_freq_start+0xe82480>
 470:	13490b3b 	movtne	r0, #39739	; 0x9b3b
 474:	00000602 	andeq	r0, r0, r2, lsl #12
 478:	03000517 	movweq	r0, #1303	; 0x517
 47c:	3b0b3a08 	blcc	2ceca4 <__dram_freq_start+0x2ceca4>
 480:	0213490b 	andseq	r4, r3, #180224	; 0x2c000
 484:	18000006 	stmdane	r0, {r1, r2}
 488:	08030034 	stmdaeq	r3, {r2, r4, r5}
 48c:	0b3b0b3a 	bleq	ec317c <__dram_freq_start+0xec317c>
 490:	0a021349 	beq	851bc <__dram_freq_start+0x851bc>
 494:	2e190000 	cdpcs	0, 1, cr0, cr9, cr0, {0}
 498:	030c3f01 	movweq	r3, #52993	; 0xcf01
 49c:	3b0b3a0e 	blcc	2cecdc <__dram_freq_start+0x2cecdc>
 4a0:	490c270b 	stmdbmi	ip, {r0, r1, r3, r8, r9, sl, sp}
 4a4:	12011113 	andne	r1, r1, #-1073741820	; 0xc0000004
 4a8:	01064001 	tsteq	r6, r1
 4ac:	1a000013 	bne	500 <__dram_freq_start+0x500>
 4b0:	0e030034 	mcreq	0, 0, r0, cr3, cr4, {1}
 4b4:	0b3b0b3a 	bleq	ec31a4 <__dram_freq_start+0xec31a4>
 4b8:	0a021349 	beq	851e4 <__dram_freq_start+0x851e4>
 4bc:	341b0000 	ldrcc	r0, [fp], #-0
 4c0:	3a0e0300 	bcc	3810c8 <__dram_freq_start+0x3810c8>
 4c4:	490b3b0b 	stmdbmi	fp, {r0, r1, r3, r8, r9, fp, ip, sp}
 4c8:	00060213 	andeq	r0, r6, r3, lsl r2
 4cc:	01011c00 	tsteq	r1, r0, lsl #24
 4d0:	13011349 	movwne	r1, #4937	; 0x1349
 4d4:	211d0000 	tstcs	sp, r0
 4d8:	2f134900 	svccs	0x00134900
 4dc:	1e00000b 	cdpne	0, 0, cr0, cr0, cr11, {0}
 4e0:	0c3f012e 	ldfeqs	f0, [pc], #-184	; 430 <__dram_freq_start+0x430>
 4e4:	0b3a0e03 	bleq	e83cf8 <__dram_freq_start+0xe83cf8>
 4e8:	0c27053b 	cfstr32eq	mvfx0, [r7], #-236	; 0xffffff14
 4ec:	01111349 	tsteq	r1, r9, asr #6
 4f0:	06400112 			; <UNDEFINED> instruction: 0x06400112
 4f4:	00001301 	andeq	r1, r0, r1, lsl #6
 4f8:	0300051f 	movweq	r0, #1311	; 0x51f
 4fc:	3b0b3a0e 	blcc	2ced3c <__dram_freq_start+0x2ced3c>
 500:	02134905 	andseq	r4, r3, #81920	; 0x14000
 504:	20000006 	andcs	r0, r0, r6
 508:	08030005 	stmdaeq	r3, {r0, r2}
 50c:	053b0b3a 	ldreq	r0, [fp, #-2874]!	; 0xb3a
 510:	06021349 	streq	r1, [r2], -r9, asr #6
 514:	34210000 	strtcc	r0, [r1], #-0
 518:	3a0e0300 	bcc	381120 <__dram_freq_start+0x381120>
 51c:	49053b0b 	stmdbmi	r5, {r0, r1, r3, r8, r9, fp, ip, sp}
 520:	000a0213 	andeq	r0, sl, r3, lsl r2
 524:	00182200 	andseq	r2, r8, r0, lsl #4
 528:	34230000 	strtcc	r0, [r3], #-0
 52c:	3a0e0300 	bcc	381134 <__dram_freq_start+0x381134>
 530:	49053b0b 	stmdbmi	r5, {r0, r1, r3, r8, r9, fp, ip, sp}
 534:	00060213 	andeq	r0, r6, r3, lsl r2
 538:	00342400 	eorseq	r2, r4, r0, lsl #8
 53c:	0b3a0803 	bleq	e82550 <__dram_freq_start+0xe82550>
 540:	1349053b 	movtne	r0, #38203	; 0x953b
 544:	00000602 	andeq	r0, r0, r2, lsl #12
 548:	55010b25 	strpl	r0, [r1, #-2853]	; 0xb25
 54c:	00130106 	andseq	r0, r3, r6, lsl #2
 550:	012e2600 	teqeq	lr, r0, lsl #12
 554:	0e030c3f 	mcreq	12, 0, r0, cr3, cr15, {1}
 558:	053b0b3a 	ldreq	r0, [fp, #-2874]!	; 0xb3a
 55c:	0c3c1349 	ldceq	3, cr1, [ip], #-292	; 0xfffffedc
 560:	00001301 	andeq	r1, r0, r1, lsl #6
 564:	31011d27 	tstcc	r1, r7, lsr #26
 568:	12011113 	andne	r1, r1, #-1073741820	; 0xc0000004
 56c:	590b5801 	stmdbpl	fp, {r0, fp, ip, lr}
 570:	00130105 	andseq	r0, r3, r5, lsl #2
 574:	010b2800 	tsteq	fp, r0, lsl #16
 578:	01120111 	tsteq	r2, r1, lsl r1
 57c:	1d290000 	stcne	0, cr0, [r9, #-0]
 580:	11133101 	tstne	r3, r1, lsl #2
 584:	58011201 	stmdapl	r1, {r0, r9, ip}
 588:	0005590b 	andeq	r5, r5, fp, lsl #18
 58c:	00052a00 	andeq	r2, r5, r0, lsl #20
 590:	00001331 	andeq	r1, r0, r1, lsr r3
 594:	11010b2b 	tstne	r1, fp, lsr #22
 598:	01011201 	tsteq	r1, r1, lsl #4
 59c:	2c000013 	stccs	0, cr0, [r0], {19}
 5a0:	13310005 	teqne	r1, #5
 5a4:	00000a02 	andeq	r0, r0, r2, lsl #20
 5a8:	0300342d 	movweq	r3, #1069	; 0x42d
 5ac:	3b0b3a0e 	blcc	2cedec <__dram_freq_start+0x2cedec>
 5b0:	3f134905 	svccc	0x00134905
 5b4:	000a020c 	andeq	r0, sl, ip, lsl #4
 5b8:	11010000 	mrsne	r0, (UNDEF: 1)
 5bc:	130e2501 	movwne	r2, #58625	; 0xe501
 5c0:	1b0e030b 	blne	3811f4 <__dram_freq_start+0x3811f4>
 5c4:	1201110e 	andne	r1, r1, #-2147483645	; 0x80000003
 5c8:	00061001 	andeq	r1, r6, r1
 5cc:	00240200 	eoreq	r0, r4, r0, lsl #4
 5d0:	0b3e0b0b 	bleq	f83204 <__dram_freq_start+0xf83204>
 5d4:	00000e03 	andeq	r0, r0, r3, lsl #28
 5d8:	03001603 	movweq	r1, #1539	; 0x603
 5dc:	3b0b3a0e 	blcc	2cee1c <__dram_freq_start+0x2cee1c>
 5e0:	0013490b 	andseq	r4, r3, fp, lsl #18
 5e4:	00240400 	eoreq	r0, r4, r0, lsl #8
 5e8:	0b3e0b0b 	bleq	f8321c <__dram_freq_start+0xf8321c>
 5ec:	00000803 	andeq	r0, r0, r3, lsl #16
 5f0:	3f002e05 	svccc	0x00002e05
 5f4:	3a0e030c 	bcc	38122c <__dram_freq_start+0x38122c>
 5f8:	270b3b0b 	strcs	r3, [fp, -fp, lsl #22]
 5fc:	1201110c 	andne	r1, r1, #3
 600:	000a4001 	andeq	r4, sl, r1
 604:	012e0600 	teqeq	lr, r0, lsl #12
 608:	0e030c3f 	mcreq	12, 0, r0, cr3, cr15, {1}
 60c:	0b3b0b3a 	bleq	ec32fc <__dram_freq_start+0xec32fc>
 610:	13490c27 	movtne	r0, #39975	; 0x9c27
 614:	01120111 	tsteq	r2, r1, lsl r1
 618:	00000a40 	andeq	r0, r0, r0, asr #20
 61c:	03000507 	movweq	r0, #1287	; 0x507
 620:	3b0b3a0e 	blcc	2cee60 <__dram_freq_start+0x2cee60>
 624:	0213490b 	andseq	r4, r3, #180224	; 0x2c000
 628:	08000006 	stmdaeq	r0, {r1, r2}
 62c:	0e030034 	mcreq	0, 0, r0, cr3, cr4, {1}
 630:	0b3b0b3a 	bleq	ec3320 <__dram_freq_start+0xec3320>
 634:	06021349 	streq	r1, [r2], -r9, asr #6
 638:	01000000 	mrseq	r0, (UNDEF: 0)
 63c:	06100011 			; <UNDEFINED> instruction: 0x06100011
 640:	01120111 	tsteq	r2, r1, lsl r1
 644:	081b0803 	ldmdaeq	fp, {r0, r1, fp}
 648:	05130825 	ldreq	r0, [r3, #-2085]	; 0x825
 64c:	01000000 	mrseq	r0, (UNDEF: 0)
 650:	06100011 			; <UNDEFINED> instruction: 0x06100011
 654:	01120111 	tsteq	r2, r1, lsl r1
 658:	081b0803 	ldmdaeq	fp, {r0, r1, fp}
 65c:	05130825 	ldreq	r0, [r3, #-2085]	; 0x825
 660:	01000000 	mrseq	r0, (UNDEF: 0)
 664:	0e250111 	mcreq	1, 1, r0, cr5, cr1, {0}
 668:	0e030b13 	vmoveq.32	d3[0], r0
 66c:	01110e1b 	tsteq	r1, fp, lsl lr
 670:	06100112 			; <UNDEFINED> instruction: 0x06100112
 674:	24020000 	strcs	r0, [r2], #-0
 678:	3e0b0b00 	vmlacc.f64	d0, d11, d0
 67c:	000e030b 	andeq	r0, lr, fp, lsl #6
 680:	00160300 	andseq	r0, r6, r0, lsl #6
 684:	0b3a0e03 	bleq	e83e98 <__dram_freq_start+0xe83e98>
 688:	13490b3b 	movtne	r0, #39739	; 0x9b3b
 68c:	24040000 	strcs	r0, [r4], #-0
 690:	3e0b0b00 	vmlacc.f64	d0, d11, d0
 694:	0008030b 	andeq	r0, r8, fp, lsl #6
 698:	01040500 	tsteq	r4, r0, lsl #10
 69c:	0b0b0e03 	bleq	2c3eb0 <__dram_freq_start+0x2c3eb0>
 6a0:	0b3b0b3a 	bleq	ec3390 <__dram_freq_start+0xec3390>
 6a4:	00001301 	andeq	r1, r0, r1, lsl #6
 6a8:	03002806 	movweq	r2, #2054	; 0x806
 6ac:	000d1c0e 	andeq	r1, sp, lr, lsl #24
 6b0:	00350700 	eorseq	r0, r5, r0, lsl #14
 6b4:	00001349 	andeq	r1, r0, r9, asr #6
 6b8:	49010108 	stmdbmi	r1, {r3, r8}
 6bc:	00130113 	andseq	r0, r3, r3, lsl r1
 6c0:	00210900 	eoreq	r0, r1, r0, lsl #18
 6c4:	0b2f1349 	bleq	bc53f0 <__dram_freq_start+0xbc53f0>
 6c8:	130a0000 	movwne	r0, #40960	; 0xa000
 6cc:	0b0e0301 	bleq	3812d8 <__dram_freq_start+0x3812d8>
 6d0:	3b0b3a0b 	blcc	2cef04 <__dram_freq_start+0x2cef04>
 6d4:	0013010b 	andseq	r0, r3, fp, lsl #2
 6d8:	000d0b00 	andeq	r0, sp, r0, lsl #22
 6dc:	0b3a0e03 	bleq	e83ef0 <__dram_freq_start+0xe83ef0>
 6e0:	13490b3b 	movtne	r0, #39739	; 0x9b3b
 6e4:	0b0d0b0b 	bleq	343318 <__dram_freq_start+0x343318>
 6e8:	0a380b0c 	beq	e03320 <__dram_freq_start+0xe03320>
 6ec:	0d0c0000 	stceq	0, cr0, [ip, #-0]
 6f0:	3a0e0300 	bcc	3812f8 <__dram_freq_start+0x3812f8>
 6f4:	49053b0b 	stmdbmi	r5, {r0, r1, r3, r8, r9, fp, ip, sp}
 6f8:	0d0b0b13 	vstreq	d0, [fp, #-76]	; 0xffffffb4
 6fc:	380b0c0b 	stmdacc	fp, {r0, r1, r3, sl, fp}
 700:	0d00000a 	stceq	0, cr0, [r0, #-40]	; 0xffffffd8
 704:	0e030016 	mcreq	0, 0, r0, cr3, cr6, {0}
 708:	053b0b3a 	ldreq	r0, [fp, #-2874]!	; 0xb3a
 70c:	00001349 	andeq	r1, r0, r9, asr #6
 710:	0301130e 	movweq	r1, #4878	; 0x130e
 714:	3a0b0b0e 	bcc	2c3354 <__dram_freq_start+0x2c3354>
 718:	01053b0b 	tsteq	r5, fp, lsl #22
 71c:	0f000013 	svceq	0x00000013
 720:	0803000d 	stmdaeq	r3, {r0, r2, r3}
 724:	053b0b3a 	ldreq	r0, [fp, #-2874]!	; 0xb3a
 728:	0a381349 	beq	e05454 <__dram_freq_start+0xe05454>
 72c:	13100000 	tstne	r0, #0
 730:	0b0e0301 	bleq	38133c <__dram_freq_start+0x38133c>
 734:	3b0b3a05 	blcc	2cef50 <__dram_freq_start+0x2cef50>
 738:	00130105 	andseq	r0, r3, r5, lsl #2
 73c:	000d1100 	andeq	r1, sp, r0, lsl #2
 740:	0b3a0e03 	bleq	e83f54 <__dram_freq_start+0xe83f54>
 744:	1349053b 	movtne	r0, #38203	; 0x953b
 748:	00000a38 	andeq	r0, r0, r8, lsr sl
 74c:	3f012e12 	svccc	0x00012e12
 750:	3a0e030c 	bcc	381388 <__dram_freq_start+0x381388>
 754:	270b3b0b 	strcs	r3, [fp, -fp, lsl #22]
 758:	2013490c 	andscs	r4, r3, ip, lsl #18
 75c:	0013010b 	andseq	r0, r3, fp, lsl #2
 760:	00341300 	eorseq	r1, r4, r0, lsl #6
 764:	0b3a0e03 	bleq	e83f78 <__dram_freq_start+0xe83f78>
 768:	13490b3b 	movtne	r0, #39739	; 0x9b3b
 76c:	2e140000 	cdpcs	0, 1, cr0, cr4, cr0, {0}
 770:	3a0e0301 	bcc	38137c <__dram_freq_start+0x38137c>
 774:	270b3b0b 	strcs	r3, [fp, -fp, lsl #22]
 778:	2013490c 	andscs	r4, r3, ip, lsl #18
 77c:	0013010b 	andseq	r0, r3, fp, lsl #2
 780:	00051500 	andeq	r1, r5, r0, lsl #10
 784:	0b3a0e03 	bleq	e83f98 <__dram_freq_start+0xe83f98>
 788:	13490b3b 	movtne	r0, #39739	; 0x9b3b
 78c:	2e160000 	cdpcs	0, 1, cr0, cr6, cr0, {0}
 790:	030c3f01 	movweq	r3, #52993	; 0xcf01
 794:	3b0b3a0e 	blcc	2cefd4 <__dram_freq_start+0x2cefd4>
 798:	110c270b 	tstne	ip, fp, lsl #14
 79c:	40011201 	andmi	r1, r1, r1, lsl #4
 7a0:	0013010a 	andseq	r0, r3, sl, lsl #2
 7a4:	00051700 	andeq	r1, r5, r0, lsl #14
 7a8:	0b3a0e03 	bleq	e83fbc <__dram_freq_start+0xe83fbc>
 7ac:	13490b3b 	movtne	r0, #39739	; 0x9b3b
 7b0:	00000602 	andeq	r0, r0, r2, lsl #12
 7b4:	03000518 	movweq	r0, #1304	; 0x518
 7b8:	3b0b3a0e 	blcc	2ceff8 <__dram_freq_start+0x2ceff8>
 7bc:	0213490b 	andseq	r4, r3, #180224	; 0x2c000
 7c0:	1900000a 	stmdbne	r0, {r1, r3}
 7c4:	0e030034 	mcreq	0, 0, r0, cr3, cr4, {1}
 7c8:	0b3b0b3a 	bleq	ec34b8 <__dram_freq_start+0xec34b8>
 7cc:	06021349 	streq	r1, [r2], -r9, asr #6
 7d0:	2e1a0000 	cdpcs	0, 1, cr0, cr10, cr0, {0}
 7d4:	030c3f00 	movweq	r3, #52992	; 0xcf00
 7d8:	3b0b3a0e 	blcc	2cf018 <__dram_freq_start+0x2cf018>
 7dc:	110c270b 	tstne	ip, fp, lsl #14
 7e0:	40011201 	andmi	r1, r1, r1, lsl #4
 7e4:	1b00000a 	blne	814 <__dram_freq_start+0x814>
 7e8:	1331012e 	teqne	r1, #-2147483637	; 0x8000000b
 7ec:	01120111 	tsteq	r2, r1, lsl r1
 7f0:	13010a40 	movwne	r0, #6720	; 0x1a40
 7f4:	341c0000 	ldrcc	r0, [ip], #-0
 7f8:	02133100 	andseq	r3, r3, #0
 7fc:	1d00000a 	stcne	0, cr0, [r0, #-40]	; 0xffffffd8
 800:	0c3f012e 	ldfeqs	f0, [pc], #-184	; 750 <__dram_freq_start+0x750>
 804:	0b3a0e03 	bleq	e84018 <__dram_freq_start+0xe84018>
 808:	0c270b3b 	stceq	11, cr0, [r7], #-236	; 0xffffff14
 80c:	01120111 	tsteq	r2, r1, lsl r1
 810:	13010640 	movwne	r0, #5696	; 0x1640
 814:	1d1e0000 	ldcne	0, cr0, [lr, #-0]
 818:	11133101 	tstne	r3, r1, lsl #2
 81c:	58011201 	stmdapl	r1, {r0, r9, ip}
 820:	010b590b 	tsteq	fp, fp, lsl #18
 824:	1f000013 	svcne	0x00000013
 828:	0111010b 	tsteq	r1, fp, lsl #2
 82c:	00000112 	andeq	r0, r0, r2, lsl r1
 830:	31003420 	tstcc	r0, r0, lsr #8
 834:	00060213 	andeq	r0, r6, r3, lsl r2
 838:	011d2100 	tsteq	sp, r0, lsl #2
 83c:	01111331 	tsteq	r1, r1, lsr r3
 840:	0b580112 	bleq	1600c90 <__dram_freq_start+0x1600c90>
 844:	00000b59 	andeq	r0, r0, r9, asr fp
 848:	0b000f22 	bleq	44d8 <__dram_freq_start+0x44d8>
 84c:	0013490b 	andseq	r4, r3, fp, lsl #18
 850:	00052300 	andeq	r2, r5, r0, lsl #6
 854:	0b3a0803 	bleq	e82868 <__dram_freq_start+0xe82868>
 858:	13490b3b 	movtne	r0, #39739	; 0x9b3b
 85c:	00000602 	andeq	r0, r0, r2, lsl #12
 860:	03003424 	movweq	r3, #1060	; 0x424
 864:	3b0b3a08 	blcc	2cf08c <__dram_freq_start+0x2cf08c>
 868:	0213490b 	andseq	r4, r3, #180224	; 0x2c000
 86c:	25000006 	strcs	r0, [r0, #-6]
 870:	1331011d 	teqne	r1, #1073741831	; 0x40000007
 874:	01120111 	tsteq	r2, r1, lsl r1
 878:	05590b58 	ldrbeq	r0, [r9, #-2904]	; 0xb58
 87c:	05260000 	streq	r0, [r6, #-0]!
 880:	02133100 	andseq	r3, r3, #0
 884:	2700000a 	strcs	r0, [r0, -sl]
 888:	0c3f012e 	ldfeqs	f0, [pc], #-184	; 7d8 <__dram_freq_start+0x7d8>
 88c:	0b3a0e03 	bleq	e840a0 <__dram_freq_start+0xe840a0>
 890:	0c27053b 	cfstr32eq	mvfx0, [r7], #-236	; 0xffffff14
 894:	01111349 	tsteq	r1, r9, asr #6
 898:	0a400112 	beq	1000ce8 <__dram_freq_start+0x1000ce8>
 89c:	00001301 	andeq	r1, r0, r1, lsl #6
 8a0:	03000528 	movweq	r0, #1320	; 0x528
 8a4:	3b0b3a0e 	blcc	2cf0e4 <__dram_freq_start+0x2cf0e4>
 8a8:	02134905 	andseq	r4, r3, #81920	; 0x14000
 8ac:	29000006 	stmdbcs	r0, {r1, r2}
 8b0:	0e030034 	mcreq	0, 0, r0, cr3, cr4, {1}
 8b4:	053b0b3a 	ldreq	r0, [fp, #-2874]!	; 0xb3a
 8b8:	06021349 	streq	r1, [r2], -r9, asr #6
 8bc:	052a0000 	streq	r0, [sl, #-0]!
 8c0:	02133100 	andseq	r3, r3, #0
 8c4:	2b000006 	blcs	8e4 <__dram_freq_start+0x8e4>
 8c8:	0e030034 	mcreq	0, 0, r0, cr3, cr4, {1}
 8cc:	0b3b0b3a 	bleq	ec35bc <__dram_freq_start+0xec35bc>
 8d0:	0a021349 	beq	855fc <__dram_freq_start+0x855fc>
 8d4:	01000000 	mrseq	r0, (UNDEF: 0)
 8d8:	06100011 			; <UNDEFINED> instruction: 0x06100011
 8dc:	01120111 	tsteq	r2, r1, lsl r1
 8e0:	081b0803 	ldmdaeq	fp, {r0, r1, fp}
 8e4:	05130825 	ldreq	r0, [r3, #-2085]	; 0x825
 8e8:	01000000 	mrseq	r0, (UNDEF: 0)
 8ec:	0e250111 	mcreq	1, 1, r0, cr5, cr1, {0}
 8f0:	0e030b13 	vmoveq.32	d3[0], r0
 8f4:	01110e1b 	tsteq	r1, fp, lsl lr
 8f8:	06100112 			; <UNDEFINED> instruction: 0x06100112
 8fc:	24020000 	strcs	r0, [r2], #-0
 900:	3e0b0b00 	vmlacc.f64	d0, d11, d0
 904:	000e030b 	andeq	r0, lr, fp, lsl #6
 908:	00160300 	andseq	r0, r6, r0, lsl #6
 90c:	0b3a0e03 	bleq	e84120 <__dram_freq_start+0xe84120>
 910:	13490b3b 	movtne	r0, #39739	; 0x9b3b
 914:	24040000 	strcs	r0, [r4], #-0
 918:	3e0b0b00 	vmlacc.f64	d0, d11, d0
 91c:	0008030b 	andeq	r0, r8, fp, lsl #6
 920:	00350500 	eorseq	r0, r5, r0, lsl #10
 924:	00001349 	andeq	r1, r0, r9, asr #6
 928:	03011306 	movweq	r1, #4870	; 0x1306
 92c:	3a0b0b0e 	bcc	2c356c <__dram_freq_start+0x2c356c>
 930:	010b3b0b 	tsteq	fp, fp, lsl #22
 934:	07000013 	smladeq	r0, r3, r0, r0
 938:	0e03000d 	cdpeq	0, 0, cr0, cr3, cr13, {0}
 93c:	0b3b0b3a 	bleq	ec362c <__dram_freq_start+0xec362c>
 940:	0a381349 	beq	e0566c <__dram_freq_start+0xe0566c>
 944:	2e080000 	cdpcs	0, 0, cr0, cr8, cr0, {0}
 948:	030c3f01 	movweq	r3, #52993	; 0xcf01
 94c:	3b0b3a0e 	blcc	2cf18c <__dram_freq_start+0x2cf18c>
 950:	110c270b 	tstne	ip, fp, lsl #14
 954:	40011201 	andmi	r1, r1, r1, lsl #4
 958:	00130106 	andseq	r0, r3, r6, lsl #2
 95c:	00340900 	eorseq	r0, r4, r0, lsl #18
 960:	0b3a0e03 	bleq	e84174 <__dram_freq_start+0xe84174>
 964:	13490b3b 	movtne	r0, #39739	; 0x9b3b
 968:	00000a02 	andeq	r0, r0, r2, lsl #20
 96c:	3f012e0a 	svccc	0x00012e0a
 970:	3a0e030c 	bcc	3815a8 <__dram_freq_start+0x3815a8>
 974:	490b3b0b 	stmdbmi	fp, {r0, r1, r3, r8, r9, fp, ip, sp}
 978:	000c3c13 	andeq	r3, ip, r3, lsl ip
 97c:	00180b00 	andseq	r0, r8, r0, lsl #22
 980:	050c0000 	streq	r0, [ip, #-0]
 984:	3a0e0300 	bcc	38158c <__dram_freq_start+0x38158c>
 988:	490b3b0b 	stmdbmi	fp, {r0, r1, r3, r8, r9, fp, ip, sp}
 98c:	000a0213 	andeq	r0, sl, r3, lsl r2
 990:	00340d00 	eorseq	r0, r4, r0, lsl #26
 994:	0b3a0803 	bleq	e829a8 <__dram_freq_start+0xe829a8>
 998:	13490b3b 	movtne	r0, #39739	; 0x9b3b
 99c:	00000a02 	andeq	r0, r0, r2, lsl #20
 9a0:	3f012e0e 	svccc	0x00012e0e
 9a4:	3a0e030c 	bcc	3815dc <__dram_freq_start+0x3815dc>
 9a8:	27053b0b 	strcs	r3, [r5, -fp, lsl #22]
 9ac:	1201110c 	andne	r1, r1, #3
 9b0:	01064001 	tsteq	r6, r1
 9b4:	0f000013 	svceq	0x00000013
 9b8:	08030005 	stmdaeq	r3, {r0, r2}
 9bc:	053b0b3a 	ldreq	r0, [fp, #-2874]!	; 0xb3a
 9c0:	0a021349 	beq	856ec <__dram_freq_start+0x856ec>
 9c4:	05100000 	ldreq	r0, [r0, #-0]
 9c8:	3a0e0300 	bcc	3815d0 <__dram_freq_start+0x3815d0>
 9cc:	49053b0b 	stmdbmi	r5, {r0, r1, r3, r8, r9, fp, ip, sp}
 9d0:	000a0213 	andeq	r0, sl, r3, lsl r2
 9d4:	00341100 	eorseq	r1, r4, r0, lsl #2
 9d8:	0b3a0e03 	bleq	e841ec <__dram_freq_start+0xe841ec>
 9dc:	1349053b 	movtne	r0, #38203	; 0x953b
 9e0:	00000a02 	andeq	r0, r0, r2, lsl #20
 9e4:	3f012e12 	svccc	0x00012e12
 9e8:	3a0e030c 	bcc	381620 <__dram_freq_start+0x381620>
 9ec:	27053b0b 	strcs	r3, [r5, -fp, lsl #22]
 9f0:	1113490c 	tstne	r3, ip, lsl #18
 9f4:	40011201 	andmi	r1, r1, r1, lsl #4
 9f8:	00130106 	andseq	r0, r3, r6, lsl #2
 9fc:	00341300 	eorseq	r1, r4, r0, lsl #6
 a00:	0b3a0e03 	bleq	e84214 <__dram_freq_start+0xe84214>
 a04:	1349053b 	movtne	r0, #38203	; 0x953b
 a08:	0f140000 	svceq	0x00140000
 a0c:	490b0b00 	stmdbmi	fp, {r8, r9, fp}
 a10:	15000013 	strne	r0, [r0, #-19]
 a14:	0c3f002e 	ldceq	0, cr0, [pc], #-184	; 964 <__dram_freq_start+0x964>
 a18:	0b3a0e03 	bleq	e8422c <__dram_freq_start+0xe8422c>
 a1c:	0c27053b 	cfstr32eq	mvfx0, [r7], #-236	; 0xffffff14
 a20:	01111349 	tsteq	r1, r9, asr #6
 a24:	06400112 			; <UNDEFINED> instruction: 0x06400112
 a28:	34160000 	ldrcc	r0, [r6], #-0
 a2c:	3a080300 	bcc	201634 <__dram_freq_start+0x201634>
 a30:	49053b0b 	stmdbmi	r5, {r0, r1, r3, r8, r9, fp, ip, sp}
 a34:	17000013 	smladne	r0, r3, r0, r0
 a38:	08030034 	stmdaeq	r3, {r2, r4, r5}
 a3c:	053b0b3a 	ldreq	r0, [fp, #-2874]!	; 0xb3a
 a40:	0a021349 	beq	8576c <__dram_freq_start+0x8576c>
 a44:	2e180000 	cdpcs	0, 1, cr0, cr8, cr0, {0}
 a48:	030c3f00 	movweq	r3, #52992	; 0xcf00
 a4c:	3b0b3a0e 	blcc	2cf28c <__dram_freq_start+0x2cf28c>
 a50:	110c2705 	tstne	ip, r5, lsl #14
 a54:	40011201 	andmi	r1, r1, r1, lsl #4
 a58:	19000006 	stmdbne	r0, {r1, r2}
 a5c:	13490101 	movtne	r0, #37121	; 0x9101
 a60:	00001301 	andeq	r1, r0, r1, lsl #6
 a64:	4900211a 	stmdbmi	r0, {r1, r3, r4, r8, sp}
 a68:	000b2f13 	andeq	r2, fp, r3, lsl pc
 a6c:	00341b00 	eorseq	r1, r4, r0, lsl #22
 a70:	0b3a0e03 	bleq	e84284 <__dram_freq_start+0xe84284>
 a74:	13490b3b 	movtne	r0, #39739	; 0x9b3b
 a78:	0a020c3f 	beq	83b7c <__dram_freq_start+0x83b7c>
 a7c:	Address 0x00000a7c is out of bounds.


Disassembly of section .debug_loc:

00000000 <.debug_loc>:
       0:	f00000d8 			; <UNDEFINED> instruction: 0xf00000d8
       4:	f00000e0 			; <UNDEFINED> instruction: 0xf00000e0
       8:	00520001 	subseq	r0, r2, r1
       c:	00000000 	andeq	r0, r0, r0
      10:	d8000000 	stmdale	r0, {}	; <UNPREDICTABLE>
      14:	e0f00000 	rscs	r0, r0, r0
      18:	01f00000 	mvnseq	r0, r0
      1c:	00005100 	andeq	r5, r0, r0, lsl #2
      20:	00000000 	andeq	r0, r0, r0
      24:	00d80000 	sbcseq	r0, r8, r0
      28:	00e0f000 	rsceq	pc, r0, r0
      2c:	0001f000 	andeq	pc, r1, r0
      30:	00000050 	andeq	r0, r0, r0, asr r0
	...
      3c:	000010f0 	strdeq	r1, [r0], -r0
      40:	7d0002f0 	sfmvc	f0, 4, [r0, #-960]	; 0xfffffc40
      44:	00001000 	andeq	r1, r0, r0
      48:	0000c4f0 	strdeq	ip, [r0], -r0
      4c:	7d0002f0 	sfmvc	f0, 4, [r0, #-960]	; 0xfffffc40
      50:	00000008 	andeq	r0, r0, r8
	...
      5c:	000024f0 	strdeq	r2, [r0], -r0
      60:	500001f0 	strdpl	r0, [r0], -r0	; <UNPREDICTABLE>
      64:	f0000024 			; <UNDEFINED> instruction: 0xf0000024
      68:	f00000c4 			; <UNDEFINED> instruction: 0xf00000c4
      6c:	00540001 	subseq	r0, r4, r1
	...
      78:	53f00000 	mvnspl	r0, #0
      7c:	01f00000 	mvnseq	r0, r0
      80:	00a45100 	adceq	r5, r4, r0, lsl #2
      84:	00c4f000 	sbceq	pc, r4, r0
      88:	0001f000 	andeq	pc, r1, r0
      8c:	00000051 	andeq	r0, r0, r1, asr r0
	...
      98:	000004f0 	strdeq	r0, [r0], -r0	; <UNPREDICTABLE>
      9c:	520001f0 	andpl	r0, r0, #60	; 0x3c
	...
      a8:	f0000024 			; <UNDEFINED> instruction: 0xf0000024
      ac:	f0000038 			; <UNDEFINED> instruction: 0xf0000038
      b0:	00520001 	subseq	r0, r2, r1
      b4:	00000000 	andeq	r0, r0, r0
      b8:	14000000 	strne	r0, [r0], #-0
      bc:	18000000 	stmdane	r0, {}	; <UNPREDICTABLE>
      c0:	01000000 	mrseq	r0, (UNDEF: 0)
      c4:	00005000 	andeq	r5, r0, r0
      c8:	00000000 	andeq	r0, r0, r0
      cc:	001c0000 	andseq	r0, ip, r0
      d0:	005c0000 	subseq	r0, ip, r0
      d4:	00010000 	andeq	r0, r1, r0
      d8:	00006050 	andeq	r6, r0, r0, asr r0
      dc:	00006400 	andeq	r6, r0, r0, lsl #8
      e0:	50000100 	andpl	r0, r0, r0, lsl #2
	...
      ec:	0000001c 	andeq	r0, r0, ip, lsl r0
      f0:	00000030 	andeq	r0, r0, r0, lsr r0
      f4:	9f300002 	svcls	0x00300002
      f8:	00000050 	andeq	r0, r0, r0, asr r0
      fc:	00000058 	andeq	r0, r0, r8, asr r0
     100:	605c0001 	subsvs	r0, ip, r1
     104:	68000000 	stmdavs	r0, {}	; <UNPREDICTABLE>
     108:	02000000 	andeq	r0, r0, #0
     10c:	009f3000 	addseq	r3, pc, r0
     110:	00000000 	andeq	r0, r0, r0
     114:	9c000000 	stcls	0, cr0, [r0], {-0}
     118:	a8000000 	stmdage	r0, {}	; <UNPREDICTABLE>
     11c:	01000000 	mrseq	r0, (UNDEF: 0)
     120:	00005200 	andeq	r5, r0, r0, lsl #4
     124:	00000000 	andeq	r0, r0, r0
     128:	00d40000 	sbcseq	r0, r4, r0
     12c:	00d80000 	sbcseq	r0, r8, r0
     130:	00020000 	andeq	r0, r2, r0
     134:	00d8007d 	sbcseq	r0, r8, sp, ror r0
     138:	014c0000 	mrseq	r0, (UNDEF: 76)
     13c:	00020000 	andeq	r0, r2, r0
     140:	0000047d 	andeq	r0, r0, sp, ror r4
     144:	00000000 	andeq	r0, r0, r0
     148:	00d40000 	sbcseq	r0, r4, r0
     14c:	00ec0000 	rsceq	r0, ip, r0
     150:	00010000 	andeq	r0, r1, r0
     154:	0000ec50 	andeq	lr, r0, r0, asr ip
     158:	0000f400 	andeq	pc, r0, r0, lsl #8
     15c:	70000300 	andvc	r0, r0, r0, lsl #6
     160:	00009f01 	andeq	r9, r0, r1, lsl #30
     164:	00000000 	andeq	r0, r0, r0
     168:	01000000 	mrseq	r0, (UNDEF: 0)
     16c:	01240000 	teqeq	r4, r0
     170:	00010000 	andeq	r0, r1, r0
     174:	0000005c 	andeq	r0, r0, ip, asr r0
     178:	00000000 	andeq	r0, r0, r0
     17c:	00014c00 	andeq	r4, r1, r0, lsl #24
     180:	00018c00 	andeq	r8, r1, r0, lsl #24
     184:	50000100 	andpl	r0, r0, r0, lsl #2
     188:	00000190 	muleq	r0, r0, r1
     18c:	00000194 	muleq	r0, r4, r1
     190:	00500001 	subseq	r0, r0, r1
     194:	00000000 	andeq	r0, r0, r0
     198:	4c000000 	stcmi	0, cr0, [r0], {-0}
     19c:	60000001 	andvs	r0, r0, r1
     1a0:	02000001 	andeq	r0, r0, #1
     1a4:	809f3000 	addshi	r3, pc, r0
     1a8:	88000001 	stmdahi	r0, {r0}
     1ac:	01000001 	tsteq	r0, r1
     1b0:	01905c00 	orrseq	r5, r0, r0, lsl #24
     1b4:	01980000 	orrseq	r0, r8, r0
     1b8:	00020000 	andeq	r0, r2, r0
     1bc:	00009f30 	andeq	r9, r0, r0, lsr pc
	...
     1c8:	00200000 	eoreq	r0, r0, r0
     1cc:	00010000 	andeq	r0, r1, r0
     1d0:	00002450 	andeq	r2, r0, r0, asr r4
     1d4:	00002800 	andeq	r2, r0, r0, lsl #16
     1d8:	50000100 	andpl	r0, r0, r0, lsl #2
	...
     1e8:	00000010 	andeq	r0, r0, r0, lsl r0
     1ec:	10500001 	subsne	r0, r0, r1
     1f0:	14000000 	strne	r0, [r0], #-0
     1f4:	01000000 	mrseq	r0, (UNDEF: 0)
     1f8:	00145300 	andseq	r5, r4, r0, lsl #6
     1fc:	00240000 	eoreq	r0, r4, r0
     200:	00030000 	andeq	r0, r3, r0
     204:	249f7f73 	ldrcs	r7, [pc], #3955	; 20c <__dram_freq_start+0x20c>
     208:	28000000 	stmdacs	r0, {}	; <UNPREDICTABLE>
     20c:	01000000 	mrseq	r0, (UNDEF: 0)
     210:	00005000 	andeq	r5, r0, r0
     214:	00000000 	andeq	r0, r0, r0
     218:	002c0000 	eoreq	r0, ip, r0
     21c:	00340000 	eorseq	r0, r4, r0
     220:	00010000 	andeq	r0, r1, r0
     224:	00003450 	andeq	r3, r0, r0, asr r4
     228:	00004800 	andeq	r4, r0, r0, lsl #16
     22c:	52000100 	andpl	r0, r0, #0
	...
     238:	0000002c 	andeq	r0, r0, ip, lsr #32
     23c:	00000030 	andeq	r0, r0, r0, lsr r0
     240:	30510001 	subscc	r0, r1, r1
     244:	34000000 	strcc	r0, [r0], #-0
     248:	03000000 	movweq	r0, #0
     24c:	9f017100 	svcls	0x00017100
	...
     258:	00000048 	andeq	r0, r0, r8, asr #32
     25c:	00000054 	andeq	r0, r0, r4, asr r0
     260:	64520001 	ldrbvs	r0, [r2], #-1
     264:	68000000 	stmdavs	r0, {}	; <UNPREDICTABLE>
     268:	03000000 	movweq	r0, #0
     26c:	9f7f7200 	svcls	0x007f7200
     270:	00000068 	andeq	r0, r0, r8, rrx
     274:	00000070 	andeq	r0, r0, r0, ror r0
     278:	00520001 	subseq	r0, r2, r1
     27c:	00000000 	andeq	r0, r0, r0
     280:	4c000000 	stcmi	0, cr0, [r0], {-0}
     284:	54000000 	strpl	r0, [r0], #-0
     288:	01000000 	mrseq	r0, (UNDEF: 0)
     28c:	00005000 	andeq	r5, r0, r0
     290:	00000000 	andeq	r0, r0, r0
     294:	00700000 	rsbseq	r0, r0, r0
     298:	00840000 	addeq	r0, r4, r0
     29c:	00010000 	andeq	r0, r1, r0
     2a0:	00008450 	andeq	r8, r0, r0, asr r4
     2a4:	00008800 	andeq	r8, r0, r0, lsl #16
     2a8:	53000100 	movwpl	r0, #256	; 0x100
     2ac:	00000088 	andeq	r0, r0, r8, lsl #1
     2b0:	00000090 	muleq	r0, r0, r0
     2b4:	7f730003 	svcvc	0x00730003
     2b8:	0000909f 	muleq	r0, pc, r0	; <UNPREDICTABLE>
     2bc:	00009800 	andeq	r9, r0, r0, lsl #16
     2c0:	53000100 	movwpl	r0, #256	; 0x100
     2c4:	0000009c 	muleq	r0, ip, r0
     2c8:	000000b0 	strheq	r0, [r0], -r0	; <UNPREDICTABLE>
     2cc:	00520001 	subseq	r0, r2, r1
     2d0:	00000000 	andeq	r0, r0, r0
     2d4:	70000000 	andvc	r0, r0, r0
     2d8:	9c000000 	stcls	0, cr0, [r0], {-0}
     2dc:	01000000 	mrseq	r0, (UNDEF: 0)
     2e0:	00005100 	andeq	r5, r0, r0, lsl #2
     2e4:	00000000 	andeq	r0, r0, r0
     2e8:	00b00000 	adcseq	r0, r0, r0
     2ec:	00b80000 	adcseq	r0, r8, r0
     2f0:	00020000 	andeq	r0, r2, r0
     2f4:	00b8007d 	adcseq	r0, r8, sp, ror r0
     2f8:	01180000 	tsteq	r8, r0
     2fc:	00020000 	andeq	r0, r2, r0
     300:	0000047d 	andeq	r0, r0, sp, ror r4
     304:	00000000 	andeq	r0, r0, r0
     308:	00b00000 	adcseq	r0, r0, r0
     30c:	00d00000 	sbcseq	r0, r0, r0
     310:	00010000 	andeq	r0, r1, r0
     314:	0000d050 	andeq	sp, r0, r0, asr r0
     318:	0000d400 	andeq	sp, r0, r0, lsl #8
     31c:	53000100 	movwpl	r0, #256	; 0x100
     320:	000000d4 	ldrdeq	r0, [r0], -r4
     324:	000000dc 	ldrdeq	r0, [r0], -ip
     328:	7f730003 	svcvc	0x00730003
     32c:	0000dc9f 	muleq	r0, pc, ip	; <UNPREDICTABLE>
     330:	0000e400 	andeq	lr, r0, r0, lsl #8
     334:	53000100 	movwpl	r0, #256	; 0x100
     338:	000000ec 	andeq	r0, r0, ip, ror #1
     33c:	000000f0 	strdeq	r0, [r0], -r0	; <UNPREDICTABLE>
     340:	f0530001 			; <UNDEFINED> instruction: 0xf0530001
     344:	00000000 	andeq	r0, r0, r0
     348:	01000001 	tsteq	r0, r1
     34c:	01005c00 	tsteq	r0, r0, lsl #24
     350:	01100000 	tsteq	r0, r0
     354:	00010000 	andeq	r0, r1, r0
     358:	00000053 	andeq	r0, r0, r3, asr r0
     35c:	00000000 	andeq	r0, r0, r0
     360:	0000b000 	andeq	fp, r0, r0
     364:	0000e800 	andeq	lr, r0, r0, lsl #16
     368:	51000100 	mrspl	r0, (UNDEF: 16)
     36c:	000000e8 	andeq	r0, r0, r8, ror #1
     370:	000000ec 	andeq	r0, r0, ip, ror #1
     374:	01710003 	cmneq	r1, r3
     378:	0000009f 	muleq	r0, pc, r0	; <UNPREDICTABLE>
     37c:	00000000 	andeq	r0, r0, r0
     380:	0000b000 	andeq	fp, r0, r0
     384:	00010400 	andeq	r0, r1, r0, lsl #8
     388:	52000100 	andpl	r0, r0, #0
     38c:	00000104 	andeq	r0, r0, r4, lsl #2
     390:	00000108 	andeq	r0, r0, r8, lsl #2
     394:	7f720003 	svcvc	0x00720003
     398:	0001089f 	muleq	r1, pc, r8	; <UNPREDICTABLE>
     39c:	00011800 	andeq	r1, r1, r0, lsl #16
     3a0:	52000100 	andpl	r0, r0, #0
	...
     3ac:	00000118 	andeq	r0, r0, r8, lsl r1
     3b0:	00000134 	andeq	r0, r0, r4, lsr r1
     3b4:	38500001 	ldmdacc	r0, {r0}^
     3b8:	44000001 	strmi	r0, [r0], #-1
     3bc:	01000001 	tsteq	r0, r1
     3c0:	00005000 	andeq	r5, r0, r0
     3c4:	00000000 	andeq	r0, r0, r0
     3c8:	01480000 	mrseq	r0, (UNDEF: 72)
     3cc:	01500000 	cmpeq	r0, r0
     3d0:	00010000 	andeq	r0, r1, r0
     3d4:	00015850 	andeq	r5, r1, r0, asr r8
     3d8:	00017800 	andeq	r7, r1, r0, lsl #16
     3dc:	70000300 	andvc	r0, r0, r0, lsl #6
     3e0:	01b89f01 			; <UNDEFINED> instruction: 0x01b89f01
     3e4:	01bc0000 			; <UNDEFINED> instruction: 0x01bc0000
     3e8:	00030000 	andeq	r0, r3, r0
     3ec:	009f0170 	addseq	r0, pc, r0, ror r1	; <UNPREDICTABLE>
     3f0:	00000000 	andeq	r0, r0, r0
     3f4:	48000000 	stmdami	r0, {}	; <UNPREDICTABLE>
     3f8:	5c000001 	stcpl	0, cr0, [r0], {1}
     3fc:	01000001 	tsteq	r0, r1
     400:	015c5100 	cmpeq	ip, r0, lsl #2
     404:	01780000 	cmneq	r8, r0
     408:	00030000 	andeq	r0, r3, r0
     40c:	b89f0171 	ldmlt	pc, {r0, r4, r5, r6, r8}	; <UNPREDICTABLE>
     410:	c0000001 	andgt	r0, r0, r1
     414:	03000001 	movweq	r0, #1
     418:	9f017100 	svcls	0x00017100
	...
     424:	00000148 	andeq	r0, r0, r8, asr #2
     428:	00000170 	andeq	r0, r0, r0, ror r1
     42c:	00520001 	subseq	r0, r2, r1
     430:	00000000 	andeq	r0, r0, r0
     434:	58000000 	stmdapl	r0, {}	; <UNPREDICTABLE>
     438:	6c000001 	stcvs	0, cr0, [r0], {1}
     43c:	01000001 	tsteq	r0, r1
     440:	017c5300 	cmneq	ip, r0, lsl #6
     444:	01900000 	orrseq	r0, r0, r0
     448:	00010000 	andeq	r0, r1, r0
     44c:	0001b053 	andeq	fp, r1, r3, asr r0
     450:	0001b800 	andeq	fp, r1, r0, lsl #16
     454:	53000100 	movwpl	r0, #256	; 0x100
	...
     460:	0000015c 	andeq	r0, r0, ip, asr r1
     464:	00000178 	andeq	r0, r0, r8, ror r1
     468:	805c0001 	subshi	r0, ip, r1
     46c:	90000001 	andls	r0, r0, r1
     470:	01000001 	tsteq	r0, r1
     474:	01b05c00 	lslseq	r5, r0, #24
     478:	01c00000 	biceq	r0, r0, r0
     47c:	00010000 	andeq	r0, r1, r0
     480:	0000005c 	andeq	r0, r0, ip, asr r0
     484:	00000000 	andeq	r0, r0, r0
     488:	0001c000 	andeq	ip, r1, r0
     48c:	0001c400 	andeq	ip, r1, r0, lsl #8
     490:	7d000200 	sfmvc	f0, 4, [r0, #-0]
     494:	0001c400 	andeq	ip, r1, r0, lsl #8
     498:	0001dc00 	andeq	sp, r1, r0, lsl #24
     49c:	7d000200 	sfmvc	f0, 4, [r0, #-0]
     4a0:	0001dc20 	andeq	sp, r1, r0, lsr #24
     4a4:	0002a400 	andeq	sl, r2, r0, lsl #8
     4a8:	7d000300 	stcvc	3, cr0, [r0, #-0]
     4ac:	000000c8 	andeq	r0, r0, r8, asr #1
     4b0:	00000000 	andeq	r0, r0, r0
     4b4:	01c00000 	biceq	r0, r0, r0
     4b8:	01e40000 	mvneq	r0, r0
     4bc:	00010000 	andeq	r0, r1, r0
     4c0:	0001e450 	andeq	lr, r1, r0, asr r4
     4c4:	00021800 	andeq	r1, r2, r0, lsl #16
     4c8:	54000100 	strpl	r0, [r0], #-256	; 0x100
     4cc:	00000218 	andeq	r0, r0, r8, lsl r2
     4d0:	0000021c 	andeq	r0, r0, ip, lsl r2
     4d4:	44500001 	ldrbmi	r0, [r0], #-1
     4d8:	94000002 	strls	r0, [r0], #-2
     4dc:	01000002 	tsteq	r0, r2
     4e0:	00005000 	andeq	r5, r0, r0
     4e4:	00000000 	andeq	r0, r0, r0
     4e8:	01c00000 	biceq	r0, r0, r0
     4ec:	01e40000 	mvneq	r0, r0
     4f0:	00010000 	andeq	r0, r1, r0
     4f4:	0001e451 	andeq	lr, r1, r1, asr r4
     4f8:	0002a400 	andeq	sl, r2, r0, lsl #8
     4fc:	57000100 	strpl	r0, [r0, -r0, lsl #2]
	...
     508:	000001c0 	andeq	r0, r0, r0, asr #3
     50c:	000001e4 	andeq	r0, r0, r4, ror #3
     510:	e4520001 	ldrb	r0, [r2], #-1
     514:	a4000001 	strge	r0, [r0], #-1
     518:	01000002 	tsteq	r0, r2
     51c:	00005500 	andeq	r5, r0, r0, lsl #10
     520:	00000000 	andeq	r0, r0, r0
     524:	01c00000 	biceq	r0, r0, r0
     528:	02000000 	andeq	r0, r0, #0
     52c:	00020000 	andeq	r0, r2, r0
     530:	02009f30 	andeq	r9, r0, #192	; 0xc0
     534:	020c0000 	andeq	r0, ip, #0
     538:	00020000 	andeq	r0, r2, r0
     53c:	020c9f31 	andeq	r9, ip, #196	; 0xc4
     540:	02600000 	rsbeq	r0, r0, #0
     544:	00010000 	andeq	r0, r1, r0
     548:	00000059 	andeq	r0, r0, r9, asr r0
     54c:	00000000 	andeq	r0, r0, r0
     550:	00020c00 	andeq	r0, r2, r0, lsl #24
     554:	00021800 	andeq	r1, r2, r0, lsl #16
     558:	30000200 	andcc	r0, r0, r0, lsl #4
     55c:	0002189f 	muleq	r2, pc, r8	; <UNPREDICTABLE>
     560:	00021c00 	andeq	r1, r2, r0, lsl #24
     564:	53000100 	movwpl	r0, #256	; 0x100
     568:	0000024c 	andeq	r0, r0, ip, asr #4
     56c:	0000025c 	andeq	r0, r0, ip, asr r2
     570:	64530001 	ldrbvs	r0, [r3], #-1
     574:	94000002 	strls	r0, [r0], #-2
     578:	01000002 	tsteq	r0, r2
     57c:	00005600 	andeq	r5, r0, r0, lsl #12
     580:	00000000 	andeq	r0, r0, r0
     584:	02580000 	subseq	r0, r8, #0
     588:	02640000 	rsbeq	r0, r4, #0
     58c:	00020000 	andeq	r0, r2, r0
     590:	02649f30 	rsbeq	r9, r4, #192	; 0xc0
     594:	02700000 	rsbseq	r0, r0, #0
     598:	00010000 	andeq	r0, r1, r0
     59c:	00000059 	andeq	r0, r0, r9, asr r0
     5a0:	00000000 	andeq	r0, r0, r0
     5a4:	0002a400 	andeq	sl, r2, r0, lsl #8
     5a8:	0002a800 	andeq	sl, r2, r0, lsl #16
     5ac:	7d000200 	sfmvc	f0, 4, [r0, #-0]
     5b0:	0002a800 	andeq	sl, r2, r0, lsl #16
     5b4:	0002c000 	andeq	ip, r2, r0
     5b8:	7d000200 	sfmvc	f0, 4, [r0, #-0]
     5bc:	0002c01c 	andeq	ip, r2, ip, lsl r0
     5c0:	00036000 	andeq	r6, r3, r0
     5c4:	7d000300 	stcvc	3, cr0, [r0, #-0]
     5c8:	000000c8 	andeq	r0, r0, r8, asr #1
     5cc:	00000000 	andeq	r0, r0, r0
     5d0:	02a40000 	adceq	r0, r4, #0
     5d4:	02d00000 	sbcseq	r0, r0, #0
     5d8:	00010000 	andeq	r0, r1, r0
     5dc:	0002d050 	andeq	sp, r2, r0, asr r0
     5e0:	0002f000 	andeq	pc, r2, r0
     5e4:	54000100 	strpl	r0, [r0], #-256	; 0x100
     5e8:	000002f0 	strdeq	r0, [r0], -r0	; <UNPREDICTABLE>
     5ec:	000002f4 	strdeq	r0, [r0], -r4
     5f0:	1c500001 	mrrcne	0, 0, r0, r0, cr1	; <UNPREDICTABLE>
     5f4:	50000003 	andpl	r0, r0, r3
     5f8:	01000003 	tsteq	r0, r3
     5fc:	00005000 	andeq	r5, r0, r0
     600:	00000000 	andeq	r0, r0, r0
     604:	02a40000 	adceq	r0, r4, #0
     608:	02d00000 	sbcseq	r0, r0, #0
     60c:	00010000 	andeq	r0, r1, r0
     610:	0002d051 	andeq	sp, r2, r1, asr r0
     614:	00036000 	andeq	r6, r3, r0
     618:	57000100 	strpl	r0, [r0, -r0, lsl #2]
	...
     624:	000002a4 	andeq	r0, r0, r4, lsr #5
     628:	000002d0 	ldrdeq	r0, [r0], -r0	; <UNPREDICTABLE>
     62c:	d0520001 	subsle	r0, r2, r1
     630:	60000002 	andvs	r0, r0, r2
     634:	01000003 	tsteq	r0, r3
     638:	00005500 	andeq	r5, r0, r0, lsl #10
     63c:	00000000 	andeq	r0, r0, r0
     640:	02f00000 	rscseq	r0, r0, #0
     644:	02f40000 	rscseq	r0, r4, #0
     648:	00010000 	andeq	r0, r1, r0
     64c:	00032453 	andeq	r2, r3, r3, asr r4
     650:	00032800 	andeq	r2, r3, r0, lsl #16
     654:	53000100 	movwpl	r0, #256	; 0x100
     658:	00000328 	andeq	r0, r0, r8, lsr #6
     65c:	00000334 	andeq	r0, r0, r4, lsr r3
     660:	00580001 	subseq	r0, r8, r1
     664:	00000000 	andeq	r0, r0, r0
     668:	28000000 	stmdacs	r0, {}	; <UNPREDICTABLE>
     66c:	34000003 	strcc	r0, [r0], #-3
     670:	02000003 	andeq	r0, r0, #3
     674:	009f3000 	addseq	r3, pc, r0
     678:	00000000 	andeq	r0, r0, r0
     67c:	60000000 	andvs	r0, r0, r0
     680:	64000003 	strvs	r0, [r0], #-3
     684:	02000003 	andeq	r0, r0, #3
     688:	64007d00 	strvs	r7, [r0], #-3328	; 0xd00
     68c:	7c000003 	stcvc	0, cr0, [r0], {3}
     690:	02000003 	andeq	r0, r0, #3
     694:	7c147d00 	ldcvc	13, cr7, [r4], {-0}
     698:	bc000003 	stclt	0, cr0, [r0], {3}
     69c:	02000003 	andeq	r0, r0, #3
     6a0:	00307d00 	eorseq	r7, r0, r0, lsl #26
     6a4:	00000000 	andeq	r0, r0, r0
     6a8:	60000000 	andvs	r0, r0, r0
     6ac:	88000003 	stmdahi	r0, {r0, r1}
     6b0:	01000003 	tsteq	r0, r3
     6b4:	03885000 	orreq	r5, r8, #0
     6b8:	03bc0000 			; <UNDEFINED> instruction: 0x03bc0000
     6bc:	00010000 	andeq	r0, r1, r0
     6c0:	00000057 	andeq	r0, r0, r7, asr r0
     6c4:	00000000 	andeq	r0, r0, r0
     6c8:	00036000 	andeq	r6, r3, r0
     6cc:	00038800 	andeq	r8, r3, r0, lsl #16
     6d0:	51000100 	mrspl	r0, (UNDEF: 16)
	...
     6dc:	00000360 	andeq	r0, r0, r0, ror #6
     6e0:	00000388 	andeq	r0, r0, r8, lsl #7
     6e4:	88520001 	ldmdahi	r2, {r0}^
     6e8:	bc000003 	stclt	0, cr0, [r0], {3}
     6ec:	01000003 	tsteq	r0, r3
     6f0:	00005600 	andeq	r5, r0, r0, lsl #12
     6f4:	00000000 	andeq	r0, r0, r0
     6f8:	03bc0000 			; <UNDEFINED> instruction: 0x03bc0000
     6fc:	03c00000 	biceq	r0, r0, #0
     700:	00020000 	andeq	r0, r2, r0
     704:	03c0007d 	biceq	r0, r0, #125	; 0x7d
     708:	03c80000 	biceq	r0, r8, #0
     70c:	00020000 	andeq	r0, r2, r0
     710:	03c8107d 	biceq	r1, r8, #125	; 0x7d
     714:	03cc0000 	biceq	r0, ip, #0
     718:	00020000 	andeq	r0, r2, r0
     71c:	03cc307d 	biceq	r3, ip, #125	; 0x7d
     720:	06ac0000 	strteq	r0, [ip], r0
     724:	00030000 	andeq	r0, r3, r0
     728:	0000c87d 	andeq	ip, r0, sp, ror r8
     72c:	00000000 	andeq	r0, r0, r0
     730:	bc000000 	stclt	0, cr0, [r0], {-0}
     734:	e0000003 	and	r0, r0, r3
     738:	02000003 	andeq	r0, r0, #3
     73c:	f0709100 			; <UNDEFINED> instruction: 0xf0709100
     740:	00000003 	andeq	r0, r0, r3
     744:	02000004 	andeq	r0, r0, #4
     748:	00709100 	rsbseq	r9, r0, r0, lsl #2
     74c:	1c000004 	stcne	0, cr0, [r0], {4}
     750:	02000004 	andeq	r0, r0, #4
     754:	1c489100 	stfnep	f1, [r8], {-0}
     758:	38000004 	stmdacc	r0, {r2}
     75c:	01000004 	tsteq	r0, r4
     760:	04385400 	ldrteq	r5, [r8], #-1024	; 0x400
     764:	04500000 	ldrbeq	r0, [r0], #-0
     768:	00030000 	andeq	r0, r3, r0
     76c:	589f0174 	ldmpl	pc, {r2, r4, r5, r6, r8}	; <UNPREDICTABLE>
     770:	ac000004 	stcge	0, cr0, [r0], {4}
     774:	01000006 	tsteq	r0, r6
     778:	00005400 	andeq	r5, r0, r0, lsl #8
     77c:	00000000 	andeq	r0, r0, r0
     780:	03f00000 	mvnseq	r0, #0
     784:	041c0000 	ldreq	r0, [ip], #-0
     788:	00060000 	andeq	r0, r6, r0
     78c:	00303803 	eorseq	r3, r0, r3, lsl #16
     790:	041c9ff0 	ldreq	r9, [ip], #-4080	; 0xff0
     794:	042c0000 	strteq	r0, [ip], #-0
     798:	00010000 	andeq	r0, r1, r0
     79c:	0004cc55 	andeq	ip, r4, r5, asr ip
     7a0:	0004d800 	andeq	sp, r4, r0, lsl #16
     7a4:	55000100 	strpl	r0, [r0, #-256]	; 0x100
     7a8:	00000544 	andeq	r0, r0, r4, asr #10
     7ac:	00000548 	andeq	r0, r0, r8, asr #10
     7b0:	94550001 	ldrbls	r0, [r5], #-1
     7b4:	98000005 	stmdals	r0, {r0, r2}
     7b8:	01000005 	tsteq	r0, r5
     7bc:	06045500 	streq	r5, [r4], -r0, lsl #10
     7c0:	06080000 	streq	r0, [r8], -r0
     7c4:	00010000 	andeq	r0, r1, r0
     7c8:	00062455 	andeq	r2, r6, r5, asr r4
     7cc:	00063000 	andeq	r3, r6, r0
     7d0:	75000300 	strvc	r0, [r0, #-768]	; 0x300
     7d4:	06309f01 	ldrteq	r9, [r0], -r1, lsl #30
     7d8:	06340000 	ldrteq	r0, [r4], -r0
     7dc:	00010000 	andeq	r0, r1, r0
     7e0:	0006a055 	andeq	sl, r6, r5, asr r0
     7e4:	0006ac00 	andeq	sl, r6, r0, lsl #24
     7e8:	55000100 	strpl	r0, [r0, #-256]	; 0x100
	...
     7f4:	0000055c 	andeq	r0, r0, ip, asr r5
     7f8:	00000598 	muleq	r0, r8, r5
     7fc:	a4910004 	ldrge	r0, [r1], #4
     800:	0000067f 	andeq	r0, r0, pc, ror r6
     804:	00000000 	andeq	r0, r0, r0
     808:	04540000 	ldrbeq	r0, [r4], #-0
     80c:	04c00000 	strbeq	r0, [r0], #0
     810:	00010000 	andeq	r0, r1, r0
     814:	0004d857 	andeq	sp, r4, r7, asr r8
     818:	0006ac00 	andeq	sl, r6, r0, lsl #24
     81c:	57000100 	strpl	r0, [r0, -r0, lsl #2]
	...
     828:	000003bc 			; <UNDEFINED> instruction: 0x000003bc
     82c:	000003e0 	andeq	r0, r0, r0, ror #7
     830:	9f300002 	svcls	0x00300002
     834:	000003f0 	strdeq	r0, [r0], -r0	; <UNPREDICTABLE>
     838:	0000041c 	andeq	r0, r0, ip, lsl r4
     83c:	9f300002 	svcls	0x00300002
     840:	00000514 	andeq	r0, r0, r4, lsl r5
     844:	0000052c 	andeq	r0, r0, ip, lsr #10
     848:	2c5a0001 	mrrccs	0, 0, r0, sl, cr1
     84c:	48000005 	stmdami	r0, {r0, r2}
     850:	01000005 	tsteq	r0, r5
     854:	05d45000 	ldrbeq	r5, [r4]
     858:	05ec0000 	strbeq	r0, [ip, #0]!
     85c:	00010000 	andeq	r0, r1, r0
     860:	0005ec5a 	andeq	lr, r5, sl, asr ip
     864:	00060800 	andeq	r0, r6, r0, lsl #16
     868:	50000100 	andpl	r0, r0, r0, lsl #2
     86c:	00000670 	andeq	r0, r0, r0, ror r6
     870:	00000688 	andeq	r0, r0, r8, lsl #13
     874:	885a0001 	ldmdahi	sl, {r0}^
     878:	ac000006 	stcge	0, cr0, [r0], {6}
     87c:	01000006 	tsteq	r0, r6
     880:	00005000 	andeq	r5, r0, r0
     884:	00000000 	andeq	r0, r0, r0
     888:	04f40000 	ldrbteq	r0, [r4], #0
     88c:	05480000 	strbeq	r0, [r8, #-0]
     890:	00010000 	andeq	r0, r1, r0
     894:	00000056 	andeq	r0, r0, r6, asr r0
     898:	00000000 	andeq	r0, r0, r0
     89c:	0004f400 	andeq	pc, r4, r0, lsl #8
     8a0:	00050400 	andeq	r0, r5, r0, lsl #8
     8a4:	56000100 	strpl	r0, [r0], -r0, lsl #2
     8a8:	00000504 	andeq	r0, r0, r4, lsl #10
     8ac:	00000508 	andeq	r0, r0, r8, lsl #10
     8b0:	085a0001 	ldmdaeq	sl, {r0}^
     8b4:	14000005 	strne	r0, [r0], #-5
     8b8:	03000005 	movweq	r0, #5
     8bc:	9f7f7a00 	svcls	0x007f7a00
	...
     8c8:	0000052c 	andeq	r0, r0, ip, lsr #10
     8cc:	00000530 	andeq	r0, r0, r0, lsr r5
     8d0:	00560001 	subseq	r0, r6, r1
     8d4:	00000000 	andeq	r0, r0, r0
     8d8:	2c000000 	stccs	0, cr0, [r0], {-0}
     8dc:	30000005 	andcc	r0, r0, r5
     8e0:	01000005 	tsteq	r0, r5
     8e4:	05305500 	ldreq	r5, [r0, #-1280]!	; 0x500
     8e8:	05480000 	strbeq	r0, [r8, #-0]
     8ec:	00010000 	andeq	r0, r1, r0
     8f0:	00000051 	andeq	r0, r0, r1, asr r0
     8f4:	00000000 	andeq	r0, r0, r0
     8f8:	00052c00 	andeq	r2, r5, r0, lsl #24
     8fc:	00054400 	andeq	r4, r5, r0, lsl #8
     900:	55000100 	strpl	r0, [r0, #-256]	; 0x100
	...
     90c:	0000055c 	andeq	r0, r0, ip, asr r5
     910:	00000560 	andeq	r0, r0, r0, ror #10
     914:	a4910004 	ldrge	r0, [r1], #4
     918:	0000067f 	andeq	r0, r0, pc, ror r6
     91c:	00000000 	andeq	r0, r0, r0
     920:	055c0000 	ldrbeq	r0, [ip, #-0]
     924:	05600000 	strbeq	r0, [r0, #-0]!
     928:	00010000 	andeq	r0, r1, r0
     92c:	00056055 	andeq	r6, r5, r5, asr r0
     930:	00059800 	andeq	r9, r5, r0, lsl #16
     934:	51000100 	mrspl	r0, (UNDEF: 16)
	...
     940:	0000055c 	andeq	r0, r0, ip, asr r5
     944:	00000594 	muleq	r0, r4, r5
     948:	00550001 	subseq	r0, r5, r1
     94c:	00000000 	andeq	r0, r0, r0
     950:	70000000 	andvc	r0, r0, r0
     954:	80000005 	andhi	r0, r0, r5
     958:	04000005 	streq	r0, [r0], #-5
     95c:	7fa49100 	svcvc	0x00a49100
     960:	00058006 	andeq	r8, r5, r6
     964:	00058400 	andeq	r8, r5, r0, lsl #8
     968:	53000100 	movwpl	r0, #256	; 0x100
     96c:	00000584 	andeq	r0, r0, r4, lsl #11
     970:	00000590 	muleq	r0, r0, r5
     974:	7f730003 	svcvc	0x00730003
     978:	0000009f 	muleq	r0, pc, r0	; <UNPREDICTABLE>
     97c:	00000000 	andeq	r0, r0, r0
     980:	0005b400 	andeq	fp, r5, r0, lsl #8
     984:	00060800 	andeq	r0, r6, r0, lsl #16
     988:	56000100 	strpl	r0, [r0], -r0, lsl #2
	...
     994:	000005b4 			; <UNDEFINED> instruction: 0x000005b4
     998:	000005c4 	andeq	r0, r0, r4, asr #11
     99c:	c4560001 	ldrbgt	r0, [r6], #-1
     9a0:	c8000005 	stmdagt	r0, {r0, r2}
     9a4:	01000005 	tsteq	r0, r5
     9a8:	05c85a00 	strbeq	r5, [r8, #2560]	; 0xa00
     9ac:	05d40000 	ldrbeq	r0, [r4]
     9b0:	00030000 	andeq	r0, r3, r0
     9b4:	009f7f7a 	addseq	r7, pc, sl, ror pc	; <UNPREDICTABLE>
     9b8:	00000000 	andeq	r0, r0, r0
     9bc:	ec000000 	stc	0, cr0, [r0], {-0}
     9c0:	f0000005 			; <UNDEFINED> instruction: 0xf0000005
     9c4:	01000005 	tsteq	r0, r5
     9c8:	00005600 	andeq	r5, r0, r0, lsl #12
     9cc:	00000000 	andeq	r0, r0, r0
     9d0:	05ec0000 	strbeq	r0, [ip, #0]!
     9d4:	05f00000 	ldrbeq	r0, [r0, #0]!
     9d8:	00010000 	andeq	r0, r1, r0
     9dc:	0005f055 	andeq	pc, r5, r5, asr r0	; <UNPREDICTABLE>
     9e0:	00060800 	andeq	r0, r6, r0, lsl #16
     9e4:	51000100 	mrspl	r0, (UNDEF: 16)
	...
     9f0:	000005ec 	andeq	r0, r0, ip, ror #11
     9f4:	00000604 	andeq	r0, r0, r4, lsl #12
     9f8:	00550001 	subseq	r0, r5, r1
     9fc:	00000000 	andeq	r0, r0, r0
     a00:	50000000 	andpl	r0, r0, r0
     a04:	60000006 	andvs	r0, r0, r6
     a08:	01000006 	tsteq	r0, r6
     a0c:	06605600 	strbteq	r5, [r0], -r0, lsl #12
     a10:	06640000 	strbteq	r0, [r4], -r0
     a14:	00010000 	andeq	r0, r1, r0
     a18:	0006645a 	andeq	r6, r6, sl, asr r4
     a1c:	00067000 	andeq	r7, r6, r0
     a20:	7a000300 	bvc	1628 <__dram_freq_start+0x1628>
     a24:	00009f7f 	andeq	r9, r0, pc, ror pc
     a28:	00000000 	andeq	r0, r0, r0
     a2c:	06880000 	streq	r0, [r8], r0
     a30:	068c0000 	streq	r0, [ip], r0
     a34:	00010000 	andeq	r0, r1, r0
     a38:	00000056 	andeq	r0, r0, r6, asr r0
     a3c:	00000000 	andeq	r0, r0, r0
     a40:	00068800 	andeq	r8, r6, r0, lsl #16
     a44:	00068c00 	andeq	r8, r6, r0, lsl #24
     a48:	55000100 	strpl	r0, [r0, #-256]	; 0x100
     a4c:	0000068c 	andeq	r0, r0, ip, lsl #13
     a50:	000006ac 	andeq	r0, r0, ip, lsr #13
     a54:	00510001 	subseq	r0, r1, r1
     a58:	00000000 	andeq	r0, r0, r0
     a5c:	88000000 	stmdahi	r0, {}	; <UNPREDICTABLE>
     a60:	a0000006 	andge	r0, r0, r6
     a64:	01000006 	tsteq	r0, r6
     a68:	00005500 	andeq	r5, r0, r0, lsl #10
     a6c:	00000000 	andeq	r0, r0, r0
     a70:	06ac0000 	strteq	r0, [ip], r0
     a74:	06b00000 	ldrteq	r0, [r0], r0
     a78:	00020000 	andeq	r0, r2, r0
     a7c:	06b0007d 	sxtaheq	r0, r0, sp
     a80:	06b40000 	ldrteq	r0, [r4], r0
     a84:	00020000 	andeq	r0, r2, r0
     a88:	06b4107d 	sxtaheq	r1, r4, sp
     a8c:	06b80000 	ldrteq	r0, [r8], r0
     a90:	00020000 	andeq	r0, r2, r0
     a94:	06b8307d 	sxtaheq	r3, r8, sp
     a98:	09800000 	stmibeq	r0, {}	; <UNPREDICTABLE>
     a9c:	00030000 	andeq	r0, r3, r0
     aa0:	0000c87d 	andeq	ip, r0, sp, ror r8
     aa4:	00000000 	andeq	r0, r0, r0
     aa8:	ac000000 	stcge	0, cr0, [r0], {-0}
     aac:	c4000006 	strgt	r0, [r0], #-6
     ab0:	02000006 	andeq	r0, r0, #6
     ab4:	c4709100 	ldrbtgt	r9, [r0], #-256	; 0x100
     ab8:	e8000006 	stmda	r0, {r1, r2}
     abc:	02000006 	andeq	r0, r0, #6
     ac0:	e8489100 	stmda	r8, {r8, ip, pc}^
     ac4:	04000006 	streq	r0, [r0], #-6
     ac8:	01000007 	tsteq	r0, r7
     acc:	07045400 	streq	r5, [r4, -r0, lsl #8]
     ad0:	071c0000 	ldreq	r0, [ip, -r0]
     ad4:	00030000 	andeq	r0, r3, r0
     ad8:	249f0174 	ldrcs	r0, [pc], #372	; ae0 <__dram_freq_start+0xae0>
     adc:	80000007 	andhi	r0, r0, r7
     ae0:	01000009 	tsteq	r0, r9
     ae4:	00005400 	andeq	r5, r0, r0, lsl #8
     ae8:	00000000 	andeq	r0, r0, r0
     aec:	06ac0000 	strteq	r0, [ip], r0
     af0:	06e80000 	strbteq	r0, [r8], r0
     af4:	00060000 	andeq	r0, r6, r0
     af8:	00303803 	eorseq	r3, r0, r3, lsl #16
     afc:	06e89ff0 			; <UNDEFINED> instruction: 0x06e89ff0
     b00:	06f80000 	ldrbteq	r0, [r8], r0
     b04:	00010000 	andeq	r0, r1, r0
     b08:	00079855 	andeq	r9, r7, r5, asr r8
     b0c:	0007b000 	andeq	fp, r7, r0
     b10:	55000100 	strpl	r0, [r0, #-256]	; 0x100
     b14:	0000081c 	andeq	r0, r0, ip, lsl r8
     b18:	00000820 	andeq	r0, r0, r0, lsr #16
     b1c:	6c550001 	mrrcvs	0, 0, r0, r5, cr1
     b20:	70000008 	andvc	r0, r0, r8
     b24:	01000008 	tsteq	r0, r8
     b28:	08dc5500 	ldmeq	ip, {r8, sl, ip, lr}^
     b2c:	08e00000 	stmiaeq	r0!, {}^	; <UNPREDICTABLE>
     b30:	00010000 	andeq	r0, r1, r0
     b34:	0008fc55 	andeq	pc, r8, r5, asr ip	; <UNPREDICTABLE>
     b38:	00090800 	andeq	r0, r9, r0, lsl #16
     b3c:	75000300 	strvc	r0, [r0, #-768]	; 0x300
     b40:	09089f01 	stmdbeq	r8, {r0, r8, r9, sl, fp, ip, pc}
     b44:	090c0000 	stmdbeq	ip, {}	; <UNPREDICTABLE>
     b48:	00010000 	andeq	r0, r1, r0
     b4c:	00097855 	andeq	r7, r9, r5, asr r8
     b50:	00098000 	andeq	r8, r9, r0
     b54:	55000100 	strpl	r0, [r0, #-256]	; 0x100
	...
     b60:	00000834 	andeq	r0, r0, r4, lsr r8
     b64:	00000870 	andeq	r0, r0, r0, ror r8
     b68:	a4910004 	ldrge	r0, [r1], #4
     b6c:	0000067f 	andeq	r0, r0, pc, ror r6
     b70:	00000000 	andeq	r0, r0, r0
     b74:	07200000 	streq	r0, [r0, -r0]!
     b78:	078c0000 	streq	r0, [ip, r0]
     b7c:	00010000 	andeq	r0, r1, r0
     b80:	0007b057 	andeq	fp, r7, r7, asr r0
     b84:	00098000 	andeq	r8, r9, r0
     b88:	57000100 	strpl	r0, [r0, -r0, lsl #2]
	...
     b94:	000006ac 	andeq	r0, r0, ip, lsr #13
     b98:	000006e8 	andeq	r0, r0, r8, ror #13
     b9c:	9f300002 	svcls	0x00300002
     ba0:	000007ec 	andeq	r0, r0, ip, ror #15
     ba4:	00000804 	andeq	r0, r0, r4, lsl #16
     ba8:	045a0001 	ldrbeq	r0, [sl], #-1
     bac:	20000008 	andcs	r0, r0, r8
     bb0:	01000008 	tsteq	r0, r8
     bb4:	08ac5000 	stmiaeq	ip!, {ip, lr}
     bb8:	08c40000 	stmiaeq	r4, {}^	; <UNPREDICTABLE>
     bbc:	00010000 	andeq	r0, r1, r0
     bc0:	0008c45a 	andeq	ip, r8, sl, asr r4
     bc4:	0008e000 	andeq	lr, r8, r0
     bc8:	50000100 	andpl	r0, r0, r0, lsl #2
     bcc:	00000948 	andeq	r0, r0, r8, asr #18
     bd0:	00000960 	andeq	r0, r0, r0, ror #18
     bd4:	605a0001 	subsvs	r0, sl, r1
     bd8:	80000009 	andhi	r0, r0, r9
     bdc:	01000009 	tsteq	r0, r9
     be0:	00005000 	andeq	r5, r0, r0
     be4:	00000000 	andeq	r0, r0, r0
     be8:	07cc0000 	strbeq	r0, [ip, r0]
     bec:	08200000 	stmdaeq	r0!, {}	; <UNPREDICTABLE>
     bf0:	00010000 	andeq	r0, r1, r0
     bf4:	00000056 	andeq	r0, r0, r6, asr r0
     bf8:	00000000 	andeq	r0, r0, r0
     bfc:	0007cc00 	andeq	ip, r7, r0, lsl #24
     c00:	0007dc00 	andeq	sp, r7, r0, lsl #24
     c04:	56000100 	strpl	r0, [r0], -r0, lsl #2
     c08:	000007dc 	ldrdeq	r0, [r0], -ip
     c0c:	000007e0 	andeq	r0, r0, r0, ror #15
     c10:	e05a0001 	subs	r0, sl, r1
     c14:	ec000007 	stc	0, cr0, [r0], {7}
     c18:	03000007 	movweq	r0, #7
     c1c:	9f7f7a00 	svcls	0x007f7a00
	...
     c28:	00000804 	andeq	r0, r0, r4, lsl #16
     c2c:	00000808 	andeq	r0, r0, r8, lsl #16
     c30:	00560001 	subseq	r0, r6, r1
     c34:	00000000 	andeq	r0, r0, r0
     c38:	04000000 	streq	r0, [r0], #-0
     c3c:	08000008 	stmdaeq	r0, {r3}
     c40:	01000008 	tsteq	r0, r8
     c44:	08085500 	stmdaeq	r8, {r8, sl, ip, lr}
     c48:	08200000 	stmdaeq	r0!, {}	; <UNPREDICTABLE>
     c4c:	00010000 	andeq	r0, r1, r0
     c50:	00000051 	andeq	r0, r0, r1, asr r0
     c54:	00000000 	andeq	r0, r0, r0
     c58:	00080400 	andeq	r0, r8, r0, lsl #8
     c5c:	00081c00 	andeq	r1, r8, r0, lsl #24
     c60:	55000100 	strpl	r0, [r0, #-256]	; 0x100
	...
     c6c:	00000834 	andeq	r0, r0, r4, lsr r8
     c70:	00000838 	andeq	r0, r0, r8, lsr r8
     c74:	a4910004 	ldrge	r0, [r1], #4
     c78:	0000067f 	andeq	r0, r0, pc, ror r6
     c7c:	00000000 	andeq	r0, r0, r0
     c80:	08340000 	ldmdaeq	r4!, {}	; <UNPREDICTABLE>
     c84:	08380000 	ldmdaeq	r8!, {}	; <UNPREDICTABLE>
     c88:	00010000 	andeq	r0, r1, r0
     c8c:	00083855 	andeq	r3, r8, r5, asr r8
     c90:	00087000 	andeq	r7, r8, r0
     c94:	51000100 	mrspl	r0, (UNDEF: 16)
	...
     ca0:	00000834 	andeq	r0, r0, r4, lsr r8
     ca4:	0000086c 	andeq	r0, r0, ip, ror #16
     ca8:	00550001 	subseq	r0, r5, r1
     cac:	00000000 	andeq	r0, r0, r0
     cb0:	48000000 	stmdami	r0, {}	; <UNPREDICTABLE>
     cb4:	58000008 	stmdapl	r0, {r3}
     cb8:	04000008 	streq	r0, [r0], #-8
     cbc:	7fa49100 	svcvc	0x00a49100
     cc0:	00085806 	andeq	r5, r8, r6, lsl #16
     cc4:	00085c00 	andeq	r5, r8, r0, lsl #24
     cc8:	53000100 	movwpl	r0, #256	; 0x100
     ccc:	0000085c 	andeq	r0, r0, ip, asr r8
     cd0:	00000868 	andeq	r0, r0, r8, ror #16
     cd4:	7f730003 	svcvc	0x00730003
     cd8:	0000009f 	muleq	r0, pc, r0	; <UNPREDICTABLE>
     cdc:	00000000 	andeq	r0, r0, r0
     ce0:	00088c00 	andeq	r8, r8, r0, lsl #24
     ce4:	0008e000 	andeq	lr, r8, r0
     ce8:	56000100 	strpl	r0, [r0], -r0, lsl #2
	...
     cf4:	0000088c 	andeq	r0, r0, ip, lsl #17
     cf8:	0000089c 	muleq	r0, ip, r8
     cfc:	9c560001 	mrrcls	0, 0, r0, r6, cr1
     d00:	a0000008 	andge	r0, r0, r8
     d04:	01000008 	tsteq	r0, r8
     d08:	08a05a00 	stmiaeq	r0!, {r9, fp, ip, lr}
     d0c:	08ac0000 	stmiaeq	ip!, {}	; <UNPREDICTABLE>
     d10:	00030000 	andeq	r0, r3, r0
     d14:	009f7f7a 	addseq	r7, pc, sl, ror pc	; <UNPREDICTABLE>
     d18:	00000000 	andeq	r0, r0, r0
     d1c:	c4000000 	strgt	r0, [r0], #-0
     d20:	c8000008 	stmdagt	r0, {r3}
     d24:	01000008 	tsteq	r0, r8
     d28:	00005600 	andeq	r5, r0, r0, lsl #12
     d2c:	00000000 	andeq	r0, r0, r0
     d30:	08c40000 	stmiaeq	r4, {}^	; <UNPREDICTABLE>
     d34:	08c80000 	stmiaeq	r8, {}^	; <UNPREDICTABLE>
     d38:	00010000 	andeq	r0, r1, r0
     d3c:	0008c855 	andeq	ip, r8, r5, asr r8
     d40:	0008e000 	andeq	lr, r8, r0
     d44:	51000100 	mrspl	r0, (UNDEF: 16)
	...
     d50:	000008c4 	andeq	r0, r0, r4, asr #17
     d54:	000008dc 	ldrdeq	r0, [r0], -ip
     d58:	00550001 	subseq	r0, r5, r1
     d5c:	00000000 	andeq	r0, r0, r0
     d60:	28000000 	stmdacs	r0, {}	; <UNPREDICTABLE>
     d64:	38000009 	stmdacc	r0, {r0, r3}
     d68:	01000009 	tsteq	r0, r9
     d6c:	09385600 	ldmdbeq	r8!, {r9, sl, ip, lr}
     d70:	093c0000 	ldmdbeq	ip!, {}	; <UNPREDICTABLE>
     d74:	00010000 	andeq	r0, r1, r0
     d78:	00093c5a 	andeq	r3, r9, sl, asr ip
     d7c:	00094800 	andeq	r4, r9, r0, lsl #16
     d80:	7a000300 	bvc	1988 <__dram_freq_start+0x1988>
     d84:	00009f7f 	andeq	r9, r0, pc, ror pc
     d88:	00000000 	andeq	r0, r0, r0
     d8c:	09600000 	stmdbeq	r0!, {}^	; <UNPREDICTABLE>
     d90:	09640000 	stmdbeq	r4!, {}^	; <UNPREDICTABLE>
     d94:	00010000 	andeq	r0, r1, r0
     d98:	00000056 	andeq	r0, r0, r6, asr r0
     d9c:	00000000 	andeq	r0, r0, r0
     da0:	00096000 	andeq	r6, r9, r0
     da4:	00096400 	andeq	r6, r9, r0, lsl #8
     da8:	55000100 	strpl	r0, [r0, #-256]	; 0x100
     dac:	00000964 	andeq	r0, r0, r4, ror #18
     db0:	00000980 	andeq	r0, r0, r0, lsl #19
     db4:	00510001 	subseq	r0, r1, r1
     db8:	00000000 	andeq	r0, r0, r0
     dbc:	60000000 	andvs	r0, r0, r0
     dc0:	78000009 	stmdavc	r0, {r0, r3}
     dc4:	01000009 	tsteq	r0, r9
     dc8:	00005500 	andeq	r5, r0, r0, lsl #10
     dcc:	00000000 	andeq	r0, r0, r0
     dd0:	000c0000 	andeq	r0, ip, r0
     dd4:	00540000 	subseq	r0, r4, r0
     dd8:	00010000 	andeq	r0, r1, r0
     ddc:	00000050 	andeq	r0, r0, r0, asr r0
     de0:	00000000 	andeq	r0, r0, r0
     de4:	00000c00 	andeq	r0, r0, r0, lsl #24
     de8:	00002000 	andeq	r2, r0, r0
     dec:	51000100 	mrspl	r0, (UNDEF: 16)
	...
     df8:	0000000c 	andeq	r0, r0, ip
     dfc:	00000020 	andeq	r0, r0, r0, lsr #32
     e00:	20510001 	subscs	r0, r1, r1
     e04:	24000000 	strcs	r0, [r0], #-0
     e08:	05000000 	streq	r0, [r0, #-0]
     e0c:	31007100 	mrscc	r7, (UNDEF: 16)
     e10:	00249f24 	eoreq	r9, r4, r4, lsr #30
     e14:	00280000 	eoreq	r0, r8, r0
     e18:	00010000 	andeq	r0, r1, r0
     e1c:	00003051 	andeq	r3, r0, r1, asr r0
     e20:	00005800 	andeq	r5, r0, r0, lsl #16
     e24:	51000100 	mrspl	r0, (UNDEF: 16)
	...
     e30:	0000000c 	andeq	r0, r0, ip
     e34:	00000030 	andeq	r0, r0, r0, lsr r0
     e38:	9f300002 	svcls	0x00300002
     e3c:	00000030 	andeq	r0, r0, r0, lsr r0
     e40:	00000040 	andeq	r0, r0, r0, asr #32
     e44:	44520001 	ldrbmi	r0, [r2], #-1
     e48:	50000000 	andpl	r0, r0, r0
     e4c:	01000000 	mrseq	r0, (UNDEF: 0)
     e50:	00005200 	andeq	r5, r0, r0, lsl #4
     e54:	00000000 	andeq	r0, r0, r0
     e58:	000c0000 	andeq	r0, ip, r0
     e5c:	00200000 	eoreq	r0, r0, r0
     e60:	00020000 	andeq	r0, r2, r0
     e64:	00289f30 	eoreq	r9, r8, r0, lsr pc
     e68:	002c0000 	eoreq	r0, ip, r0
     e6c:	00010000 	andeq	r0, r1, r0
     e70:	00003053 	andeq	r3, r0, r3, asr r0
     e74:	00004800 	andeq	r4, r0, r0, lsl #16
     e78:	53000100 	movwpl	r0, #256	; 0x100
	...
     e88:	00000008 	andeq	r0, r0, r8
     e8c:	00500001 	subseq	r0, r0, r1
	...
     e98:	0c000000 	stceq	0, cr0, [r0], {-0}
     e9c:	02000000 	andeq	r0, r0, #0
     ea0:	0c9f3100 	ldfeqs	f3, [pc], {0}
     ea4:	14000000 	strne	r0, [r0], #-0
     ea8:	01000000 	mrseq	r0, (UNDEF: 0)
     eac:	00145000 	andseq	r5, r4, r0
     eb0:	00180000 	andseq	r0, r8, r0
     eb4:	00050000 	andeq	r0, r5, r0
     eb8:	21400070 	hvccs	0
     ebc:	0000189f 	muleq	r0, pc, r8	; <UNPREDICTABLE>
     ec0:	00001c00 	andeq	r1, r0, r0, lsl #24
     ec4:	50000100 	andpl	r0, r0, r0, lsl #2
     ec8:	0000001c 	andeq	r0, r0, ip, lsl r0
     ecc:	0000002c 	andeq	r0, r0, ip, lsr #32
     ed0:	049e0006 	ldreq	r0, [lr], #6
     ed4:	8000000f 	andhi	r0, r0, pc
	...
     ee0:	00000074 	andeq	r0, r0, r4, ror r0
     ee4:	0000007c 	andeq	r0, r0, ip, ror r0
     ee8:	9f300002 	svcls	0x00300002
     eec:	0000007c 	andeq	r0, r0, ip, ror r0
     ef0:	00000088 	andeq	r0, r0, r8, lsl #1
     ef4:	9f340002 	svcls	0x00340002
	...
     f00:	00000088 	andeq	r0, r0, r8, lsl #1
     f04:	0000009c 	muleq	r0, ip, r0
     f08:	007d0002 	rsbseq	r0, sp, r2
     f0c:	0000009c 	muleq	r0, ip, r0
     f10:	00000124 	andeq	r0, r0, r4, lsr #2
     f14:	087d0002 	ldmdaeq	sp!, {r1}^
	...
     f20:	00000088 	andeq	r0, r0, r8, lsl #1
     f24:	000000f0 	strdeq	r0, [r0], -r0	; <UNPREDICTABLE>
     f28:	00500001 	subseq	r0, r0, r1
     f2c:	00000000 	andeq	r0, r0, r0
     f30:	88000000 	stmdahi	r0, {}	; <UNPREDICTABLE>
     f34:	04000000 	streq	r0, [r0], #-0
     f38:	02000001 	andeq	r0, r0, #1
     f3c:	009f3000 	addseq	r3, pc, r0
     f40:	00000000 	andeq	r0, r0, r0
     f44:	88000000 	stmdahi	r0, {}	; <UNPREDICTABLE>
     f48:	ec000000 	stc	0, cr0, [r0], {-0}
     f4c:	02000000 	andeq	r0, r0, #0
     f50:	049f3000 	ldreq	r3, [pc], #0	; f58 <__dram_freq_start+0xf58>
     f54:	10000001 	andne	r0, r0, r1
     f58:	01000001 	tsteq	r0, r1
     f5c:	00005100 	andeq	r5, r0, r0, lsl #2
     f60:	00000000 	andeq	r0, r0, r0
     f64:	00880000 	addeq	r0, r8, r0
     f68:	00a80000 	adceq	r0, r8, r0
     f6c:	00020000 	andeq	r0, r2, r0
     f70:	00009f30 	andeq	r9, r0, r0, lsr pc
     f74:	00000000 	andeq	r0, r0, r0
     f78:	00880000 	addeq	r0, r8, r0
     f7c:	00c00000 	sbceq	r0, r0, r0
     f80:	00020000 	andeq	r0, r2, r0
     f84:	00c09f30 	sbceq	r9, r0, r0, lsr pc
     f88:	00f40000 	rscseq	r0, r4, r0
     f8c:	00010000 	andeq	r0, r1, r0
     f90:	00000051 	andeq	r0, r0, r1, asr r0
     f94:	00000000 	andeq	r0, r0, r0
     f98:	0000a400 	andeq	sl, r0, r0, lsl #8
     f9c:	0000c800 	andeq	ip, r0, r0, lsl #16
     fa0:	53000100 	movwpl	r0, #256	; 0x100
	...
     fac:	000000a8 	andeq	r0, r0, r8, lsr #1
     fb0:	000000b4 	strheq	r0, [r0], -r4
     fb4:	00520001 	subseq	r0, r2, r1
     fb8:	00000000 	andeq	r0, r0, r0
     fbc:	ac000000 	stcge	0, cr0, [r0], {-0}
     fc0:	bc000000 	stclt	0, cr0, [r0], {-0}
     fc4:	01000000 	mrseq	r0, (UNDEF: 0)
     fc8:	00005100 	andeq	r5, r0, r0, lsl #2
     fcc:	00000000 	andeq	r0, r0, r0
     fd0:	01240000 	teqeq	r4, r0
     fd4:	01280000 	teqeq	r8, r0
     fd8:	00020000 	andeq	r0, r2, r0
     fdc:	0128007d 	teqeq	r8, sp, ror r0
     fe0:	017c0000 	cmneq	ip, r0
     fe4:	00020000 	andeq	r0, r2, r0
     fe8:	0000107d 	andeq	r1, r0, sp, ror r0
     fec:	00000000 	andeq	r0, r0, r0
     ff0:	01240000 	teqeq	r4, r0
     ff4:	01340000 	teqeq	r4, r0
     ff8:	00010000 	andeq	r0, r1, r0
     ffc:	00013450 	andeq	r3, r1, r0, asr r4
    1000:	00015000 	andeq	r5, r1, r0
    1004:	55000100 	strpl	r0, [r0, #-256]	; 0x100
	...
    1010:	00000124 	andeq	r0, r0, r4, lsr #2
    1014:	00000144 	andeq	r0, r0, r4, asr #2
    1018:	9f300002 	svcls	0x00300002
    101c:	00000144 	andeq	r0, r0, r4, asr #2
    1020:	00000150 	andeq	r0, r0, r0, asr r1
    1024:	01700006 	cmneq	r0, r6
    1028:	9f1e0075 	svcls	0x001e0075
	...
    1034:	00000124 	andeq	r0, r0, r4, lsr #2
    1038:	00000148 	andeq	r0, r0, r8, asr #2
    103c:	9f300002 	svcls	0x00300002
    1040:	00000148 	andeq	r0, r0, r8, asr #2
    1044:	0000015c 	andeq	r0, r0, ip, asr r1
    1048:	68530001 	ldmdavs	r3, {r0}^
    104c:	6c000001 	stcvs	0, cr0, [r0], {1}
    1050:	01000001 	tsteq	r0, r1
    1054:	00005300 	andeq	r5, r0, r0, lsl #6
    1058:	00000000 	andeq	r0, r0, r0
    105c:	01240000 	teqeq	r4, r0
    1060:	01480000 	mrseq	r0, (UNDEF: 72)
    1064:	00020000 	andeq	r0, r2, r0
    1068:	01489f30 	cmpeq	r8, r0, lsr pc
    106c:	01500000 	cmpeq	r0, r0
    1070:	00100000 	andseq	r0, r0, r0
    1074:	00750170 	rsbseq	r0, r5, r0, ror r1
    1078:	0300731e 	movweq	r7, #798	; 0x31e
    107c:	f0002f9c 			; <UNDEFINED> instruction: 0xf0002f9c
    1080:	9f221c06 	svcls	0x00221c06
	...
    108c:	00000148 	andeq	r0, r0, r8, asr #2
    1090:	0000015c 	andeq	r0, r0, ip, asr r1
    1094:	00530001 	subseq	r0, r3, r1
    1098:	00000000 	andeq	r0, r0, r0
    109c:	68000000 	stmdavs	r0, {}	; <UNPREDICTABLE>
    10a0:	6c000001 	stcvs	0, cr0, [r0], {1}
    10a4:	01000001 	tsteq	r0, r1
    10a8:	00005300 	andeq	r5, r0, r0, lsl #6
    10ac:	00000000 	andeq	r0, r0, r0
    10b0:	017c0000 	cmneq	ip, r0
    10b4:	01840000 	orreq	r0, r4, r0
    10b8:	00010000 	andeq	r0, r1, r0
    10bc:	00000050 	andeq	r0, r0, r0, asr r0
    10c0:	00000000 	andeq	r0, r0, r0
    10c4:	00018800 	andeq	r8, r1, r0, lsl #16
    10c8:	00019000 	andeq	r9, r1, r0
    10cc:	50000100 	andpl	r0, r0, r0, lsl #2
	...
    10d8:	00000188 	andeq	r0, r0, r8, lsl #3
    10dc:	00000194 	muleq	r0, r4, r1
    10e0:	9f310002 	svcls	0x00310002
    10e4:	00000194 	muleq	r0, r4, r1
    10e8:	0000019c 	muleq	r0, ip, r1
    10ec:	9c500001 	mrrcls	0, 0, r0, r0, cr1	; <UNPREDICTABLE>
    10f0:	a0000001 	andge	r0, r0, r1
    10f4:	05000001 	streq	r0, [r0, #-1]
    10f8:	40007000 	andmi	r7, r0, r0
    10fc:	01a09f21 	lsreq	r9, r1, #30
    1100:	01a40000 			; <UNDEFINED> instruction: 0x01a40000
    1104:	00010000 	andeq	r0, r1, r0
    1108:	0001a450 	andeq	sl, r1, r0, asr r4
    110c:	0001b400 	andeq	fp, r1, r0, lsl #8
    1110:	9e000600 	cfmadd32ls	mvax0, mvfx0, mvfx0, mvfx0
    1114:	00000f04 	andeq	r0, r0, r4, lsl #30
    1118:	00000080 	andeq	r0, r0, r0, lsl #1
    111c:	00000000 	andeq	r0, r0, r0
    1120:	0001b400 	andeq	fp, r1, r0, lsl #8
    1124:	0001c400 	andeq	ip, r1, r0, lsl #8
    1128:	30000200 	andcc	r0, r0, r0, lsl #4
    112c:	0000009f 	muleq	r0, pc, r0	; <UNPREDICTABLE>
    1130:	00000000 	andeq	r0, r0, r0
    1134:	0001e000 	andeq	lr, r1, r0
    1138:	0001e400 	andeq	lr, r1, r0, lsl #8
    113c:	50000100 	andpl	r0, r0, r0, lsl #2
    1140:	000001fc 	strdeq	r0, [r0], -ip
    1144:	0000020c 	andeq	r0, r0, ip, lsl #4
    1148:	02700003 	rsbseq	r0, r0, #3
    114c:	0000009f 	muleq	r0, pc, r0	; <UNPREDICTABLE>
    1150:	00000000 	andeq	r0, r0, r0
    1154:	0001e000 	andeq	lr, r1, r0
    1158:	0001f400 	andeq	pc, r1, r0, lsl #8
    115c:	30000200 	andcc	r0, r0, r0, lsl #4
    1160:	0001f49f 	muleq	r1, pc, r4	; <UNPREDICTABLE>
    1164:	00020c00 	andeq	r0, r2, r0, lsl #24
    1168:	53000100 	movwpl	r0, #256	; 0x100
	...
    1174:	000001e0 	andeq	r0, r0, r0, ror #3
    1178:	000001fc 	strdeq	r0, [r0], -ip
    117c:	9f300002 	svcls	0x00300002
    1180:	000001fc 	strdeq	r0, [r0], -ip
    1184:	0000020c 	andeq	r0, r0, ip, lsl #4
    1188:	00500001 	subseq	r0, r0, r1
    118c:	00000000 	andeq	r0, r0, r0
    1190:	e0000000 	and	r0, r0, r0
    1194:	e4000001 	str	r0, [r0], #-1
    1198:	01000001 	tsteq	r0, r1
    119c:	01e45000 	mvneq	r5, r0
    11a0:	020c0000 	andeq	r0, ip, #0
    11a4:	00030000 	andeq	r0, r3, r0
    11a8:	009f0270 	addseq	r0, pc, r0, ror r2	; <UNPREDICTABLE>
	...
    11b4:	04000000 	streq	r0, [r0], #-0
    11b8:	02000000 	andeq	r0, r0, #0
    11bc:	04007d00 	streq	r7, [r0], #-3328	; 0xd00
    11c0:	08000000 	stmdaeq	r0, {}	; <UNPREDICTABLE>
    11c4:	02000000 	andeq	r0, r0, #0
    11c8:	08087d00 	stmdaeq	r8, {r8, sl, fp, ip, sp, lr}
    11cc:	74000000 	strvc	r0, [r0], #-0
    11d0:	02000000 	andeq	r0, r0, #0
    11d4:	00047b00 	andeq	r7, r4, r0, lsl #22
    11d8:	00000000 	andeq	r0, r0, r0
    11dc:	74000000 	strvc	r0, [r0], #-0
    11e0:	78000000 	stmdavc	r0, {}	; <UNPREDICTABLE>
    11e4:	02000000 	andeq	r0, r0, #0
    11e8:	78007d00 	stmdavc	r0, {r8, sl, fp, ip, sp, lr}
    11ec:	7c000000 	stcvc	0, cr0, [r0], {-0}
    11f0:	02000000 	andeq	r0, r0, #0
    11f4:	7c047d00 	stcvc	13, cr7, [r4], {-0}
    11f8:	e0000000 	and	r0, r0, r0
    11fc:	02000000 	andeq	r0, r0, #0
    1200:	00047b00 	andeq	r7, r4, r0, lsl #22
    1204:	00000000 	andeq	r0, r0, r0
    1208:	e0000000 	and	r0, r0, r0
    120c:	e4000000 	str	r0, [r0], #-0
    1210:	02000000 	andeq	r0, r0, #0
    1214:	e4007d00 	str	r7, [r0], #-3328	; 0xd00
    1218:	e8000000 	stmda	r0, {}	; <UNPREDICTABLE>
    121c:	02000000 	andeq	r0, r0, #0
    1220:	e8047d00 	stmda	r4, {r8, sl, fp, ip, sp, lr}
    1224:	38000000 	stmdacc	r0, {}	; <UNPREDICTABLE>
    1228:	02000001 	andeq	r0, r0, #1
    122c:	00047b00 	andeq	r7, r4, r0, lsl #22
    1230:	00000000 	andeq	r0, r0, r0
    1234:	38000000 	stmdacc	r0, {}	; <UNPREDICTABLE>
    1238:	3c000001 	stccc	0, cr0, [r0], {1}
    123c:	02000001 	andeq	r0, r0, #1
    1240:	3c007d00 	stccc	13, cr7, [r0], {-0}
    1244:	40000001 	andmi	r0, r0, r1
    1248:	02000001 	andeq	r0, r0, #1
    124c:	40047d00 	andmi	r7, r4, r0, lsl #26
    1250:	84000001 	strhi	r0, [r0], #-1
    1254:	02000001 	andeq	r0, r0, #1
    1258:	00047b00 	andeq	r7, r4, r0, lsl #22
    125c:	00000000 	andeq	r0, r0, r0
    1260:	84000000 	strhi	r0, [r0], #-0
    1264:	88000001 	stmdahi	r0, {r0}
    1268:	02000001 	andeq	r0, r0, #1
    126c:	88007d00 	stmdahi	r0, {r8, sl, fp, ip, sp, lr}
    1270:	8c000001 	stchi	0, cr0, [r0], {1}
    1274:	02000001 	andeq	r0, r0, #1
    1278:	8c087d00 	stchi	13, cr7, [r8], {-0}
    127c:	40000001 	andmi	r0, r0, r1
    1280:	02000002 	andeq	r0, r0, #2
    1284:	00047b00 	andeq	r7, r4, r0, lsl #22
    1288:	00000000 	andeq	r0, r0, r0
    128c:	40000000 	andmi	r0, r0, r0
    1290:	44000002 	strmi	r0, [r0], #-2
    1294:	02000002 	andeq	r0, r0, #2
    1298:	44007d00 	strmi	r7, [r0], #-3328	; 0xd00
    129c:	48000002 	stmdami	r0, {r1}
    12a0:	02000002 	andeq	r0, r0, #2
    12a4:	48087d00 	stmdami	r8, {r8, sl, fp, ip, sp, lr}
    12a8:	44000002 	strmi	r0, [r0], #-2
    12ac:	02000004 	andeq	r0, r0, #4
    12b0:	00047b00 	andeq	r7, r4, r0, lsl #22
    12b4:	00000000 	andeq	r0, r0, r0
    12b8:	44000000 	strmi	r0, [r0], #-0
    12bc:	48000004 	stmdami	r0, {r2}
    12c0:	02000004 	andeq	r0, r0, #4
    12c4:	48007d00 	stmdami	r0, {r8, sl, fp, ip, sp, lr}
    12c8:	4c000004 	stcmi	0, cr0, [r0], {4}
    12cc:	02000004 	andeq	r0, r0, #4
    12d0:	4c047d00 	stcmi	13, cr7, [r4], {-0}
    12d4:	74000004 	strvc	r0, [r0], #-4
    12d8:	02000005 	andeq	r0, r0, #5
    12dc:	00047b00 	andeq	r7, r4, r0, lsl #22
    12e0:	00000000 	andeq	r0, r0, r0
    12e4:	74000000 	strvc	r0, [r0], #-0
    12e8:	78000005 	stmdavc	r0, {r0, r2}
    12ec:	02000005 	andeq	r0, r0, #5
    12f0:	78007d00 	stmdavc	r0, {r8, sl, fp, ip, sp, lr}
    12f4:	7c000005 	stcvc	0, cr0, [r0], {5}
    12f8:	02000005 	andeq	r0, r0, #5
    12fc:	7c047d00 	stcvc	13, cr7, [r4], {-0}
    1300:	64000005 	strvs	r0, [r0], #-5
    1304:	02000006 	andeq	r0, r0, #6
    1308:	00047b00 	andeq	r7, r4, r0, lsl #22
    130c:	00000000 	andeq	r0, r0, r0
    1310:	64000000 	strvs	r0, [r0], #-0
    1314:	68000006 	stmdavs	r0, {r1, r2}
    1318:	02000006 	andeq	r0, r0, #6
    131c:	68007d00 	stmdavs	r0, {r8, sl, fp, ip, sp, lr}
    1320:	6c000006 	stcvs	0, cr0, [r0], {6}
    1324:	02000006 	andeq	r0, r0, #6
    1328:	6c087d00 	stcvs	13, cr7, [r8], {-0}
    132c:	80000006 	andhi	r0, r0, r6
    1330:	02000008 	andeq	r0, r0, #8
    1334:	00047b00 	andeq	r7, r4, r0, lsl #22
    1338:	00000000 	andeq	r0, r0, r0
    133c:	80000000 	andhi	r0, r0, r0
    1340:	84000008 	strhi	r0, [r0], #-8
    1344:	02000008 	andeq	r0, r0, #8
    1348:	84007d00 	strhi	r7, [r0], #-3328	; 0xd00
    134c:	88000008 	stmdahi	r0, {r3}
    1350:	02000008 	andeq	r0, r0, #8
    1354:	88087d00 	stmdahi	r8, {r8, sl, fp, ip, sp, lr}
    1358:	38000008 	stmdacc	r0, {r3}
    135c:	02000010 	andeq	r0, r0, #16
    1360:	00047b00 	andeq	r7, r4, r0, lsl #22
    1364:	00000000 	andeq	r0, r0, r0
    1368:	38000000 	stmdacc	r0, {}	; <UNPREDICTABLE>
    136c:	3c000010 	stccc	0, cr0, [r0], {16}
    1370:	02000010 	andeq	r0, r0, #16
    1374:	3c007d00 	stccc	13, cr7, [r0], {-0}
    1378:	40000010 	andmi	r0, r0, r0, lsl r0
    137c:	02000010 	andeq	r0, r0, #16
    1380:	40047d00 	andmi	r7, r4, r0, lsl #26
    1384:	f4000010 	vst4.8	{d0-d3}, [r0 :64], r0
    1388:	02000010 	andeq	r0, r0, #16
    138c:	00047b00 	andeq	r7, r4, r0, lsl #22
    1390:	00000000 	andeq	r0, r0, r0
    1394:	f4000000 	vst4.8	{d0-d3}, [r0], r0
    1398:	f8000010 			; <UNDEFINED> instruction: 0xf8000010
    139c:	02000010 	andeq	r0, r0, #16
    13a0:	f8007d00 			; <UNDEFINED> instruction: 0xf8007d00
    13a4:	fc000010 	stc2	0, cr0, [r0], {16}
    13a8:	02000010 	andeq	r0, r0, #16
    13ac:	fc047d00 	stc2	13, cr7, [r4], {-0}
    13b0:	58000010 	stmdapl	r0, {r4}
    13b4:	02000011 	andeq	r0, r0, #17
    13b8:	00047b00 	andeq	r7, r4, r0, lsl #22
    13bc:	00000000 	andeq	r0, r0, r0
    13c0:	58000000 	stmdapl	r0, {}	; <UNPREDICTABLE>
    13c4:	5c000011 	stcpl	0, cr0, [r0], {17}
    13c8:	02000011 	andeq	r0, r0, #17
    13cc:	5c007d00 	stcpl	13, cr7, [r0], {-0}
    13d0:	60000011 	andvs	r0, r0, r1, lsl r0
    13d4:	02000011 	andeq	r0, r0, #17
    13d8:	60047d00 	andvs	r7, r4, r0, lsl #26
    13dc:	d8000011 	stmdale	r0, {r0, r4}
    13e0:	02000011 	andeq	r0, r0, #17
    13e4:	00047b00 	andeq	r7, r4, r0, lsl #22
    13e8:	00000000 	andeq	r0, r0, r0
    13ec:	d8000000 	stmdale	r0, {}	; <UNPREDICTABLE>
    13f0:	dc000011 	stcle	0, cr0, [r0], {17}
    13f4:	02000011 	andeq	r0, r0, #17
    13f8:	dc007d00 	stcle	13, cr7, [r0], {-0}
    13fc:	e0000011 	and	r0, r0, r1, lsl r0
    1400:	02000011 	andeq	r0, r0, #17
    1404:	e0047d00 	and	r7, r4, r0, lsl #26
    1408:	f8000011 			; <UNDEFINED> instruction: 0xf8000011
    140c:	02000012 	andeq	r0, r0, #18
    1410:	00047b00 	andeq	r7, r4, r0, lsl #22
    1414:	00000000 	andeq	r0, r0, r0
    1418:	f8000000 			; <UNDEFINED> instruction: 0xf8000000
    141c:	fc000012 	stc2	0, cr0, [r0], {18}
    1420:	02000012 	andeq	r0, r0, #18
    1424:	fc007d00 	stc2	13, cr7, [r0], {-0}
    1428:	00000012 	andeq	r0, r0, r2, lsl r0
    142c:	02000013 	andeq	r0, r0, #19
    1430:	00047d00 	andeq	r7, r4, r0, lsl #26
    1434:	14000013 	strne	r0, [r0], #-19
    1438:	02000013 	andeq	r0, r0, #19
    143c:	00047b00 	andeq	r7, r4, r0, lsl #22
    1440:	00000000 	andeq	r0, r0, r0
    1444:	14000000 	strne	r0, [r0], #-0
    1448:	18000013 	stmdane	r0, {r0, r1, r4}
    144c:	02000013 	andeq	r0, r0, #19
    1450:	18007d00 	stmdane	r0, {r8, sl, fp, ip, sp, lr}
    1454:	1c000013 	stcne	0, cr0, [r0], {19}
    1458:	02000013 	andeq	r0, r0, #19
    145c:	1c047d00 	stcne	13, cr7, [r4], {-0}
    1460:	30000013 	andcc	r0, r0, r3, lsl r0
    1464:	02000013 	andeq	r0, r0, #19
    1468:	00047b00 	andeq	r7, r4, r0, lsl #22
    146c:	00000000 	andeq	r0, r0, r0
    1470:	30000000 	andcc	r0, r0, r0
    1474:	34000013 	strcc	r0, [r0], #-19
    1478:	02000013 	andeq	r0, r0, #19
    147c:	34007d00 	strcc	r7, [r0], #-3328	; 0xd00
    1480:	38000013 	stmdacc	r0, {r0, r1, r4}
    1484:	02000013 	andeq	r0, r0, #19
    1488:	38087d00 	stmdacc	r8, {r8, sl, fp, ip, sp, lr}
    148c:	c8000013 	stmdagt	r0, {r0, r1, r4}
    1490:	02000013 	andeq	r0, r0, #19
    1494:	00047b00 	andeq	r7, r4, r0, lsl #22
    1498:	00000000 	andeq	r0, r0, r0
    149c:	c8000000 	stmdagt	r0, {}	; <UNPREDICTABLE>
    14a0:	cc000013 	stcgt	0, cr0, [r0], {19}
    14a4:	02000013 	andeq	r0, r0, #19
    14a8:	cc007d00 	stcgt	13, cr7, [r0], {-0}
    14ac:	d0000013 	andle	r0, r0, r3, lsl r0
    14b0:	02000013 	andeq	r0, r0, #19
    14b4:	d0087d00 	andle	r7, r8, r0, lsl #26
    14b8:	18000013 	stmdane	r0, {r0, r1, r4}
    14bc:	02000015 	andeq	r0, r0, #21
    14c0:	00047b00 	andeq	r7, r4, r0, lsl #22
    14c4:	00000000 	andeq	r0, r0, r0
    14c8:	18000000 	stmdane	r0, {}	; <UNPREDICTABLE>
    14cc:	1c000015 	stcne	0, cr0, [r0], {21}
    14d0:	02000015 	andeq	r0, r0, #21
    14d4:	1c007d00 	stcne	13, cr7, [r0], {-0}
    14d8:	20000015 	andcs	r0, r0, r5, lsl r0
    14dc:	02000015 	andeq	r0, r0, #21
    14e0:	20087d00 	andcs	r7, r8, r0, lsl #26
    14e4:	f4000015 	vst4.8	{d0-d3}, [r0 :64], r5
    14e8:	02000018 	andeq	r0, r0, #24
    14ec:	00047b00 	andeq	r7, r4, r0, lsl #22
    14f0:	00000000 	andeq	r0, r0, r0
    14f4:	f4000000 	vst4.8	{d0-d3}, [r0], r0
    14f8:	f8000018 			; <UNDEFINED> instruction: 0xf8000018
    14fc:	02000018 	andeq	r0, r0, #24
    1500:	f8007d00 			; <UNDEFINED> instruction: 0xf8007d00
    1504:	fc000018 	stc2	0, cr0, [r0], {24}
    1508:	02000018 	andeq	r0, r0, #24
    150c:	fc087d00 	stc2	13, cr7, [r8], {-0}
    1510:	58000018 	stmdapl	r0, {r3, r4}
    1514:	02000019 	andeq	r0, r0, #25
    1518:	00047b00 	andeq	r7, r4, r0, lsl #22
    151c:	00000000 	andeq	r0, r0, r0
    1520:	58000000 	stmdapl	r0, {}	; <UNPREDICTABLE>
    1524:	5c000019 	stcpl	0, cr0, [r0], {25}
    1528:	02000019 	andeq	r0, r0, #25
    152c:	5c007d00 	stcpl	13, cr7, [r0], {-0}
    1530:	60000019 	andvs	r0, r0, r9, lsl r0
    1534:	02000019 	andeq	r0, r0, #25
    1538:	60047d00 	andvs	r7, r4, r0, lsl #26
    153c:	74000019 	strvc	r0, [r0], #-25
    1540:	02000019 	andeq	r0, r0, #25
    1544:	00047b00 	andeq	r7, r4, r0, lsl #22
    1548:	00000000 	andeq	r0, r0, r0
    154c:	74000000 	strvc	r0, [r0], #-0
    1550:	78000019 	stmdavc	r0, {r0, r3, r4}
    1554:	02000019 	andeq	r0, r0, #25
    1558:	78007d00 	stmdavc	r0, {r8, sl, fp, ip, sp, lr}
    155c:	7c000019 	stcvc	0, cr0, [r0], {25}
    1560:	02000019 	andeq	r0, r0, #25
    1564:	7c087d00 	stcvc	13, cr7, [r8], {-0}
    1568:	8c000019 	stchi	0, cr0, [r0], {25}
    156c:	02000019 	andeq	r0, r0, #25
    1570:	00047b00 	andeq	r7, r4, r0, lsl #22
    1574:	00000000 	andeq	r0, r0, r0
    1578:	8c000000 	stchi	0, cr0, [r0], {-0}
    157c:	90000019 	andls	r0, r0, r9, lsl r0
    1580:	02000019 	andeq	r0, r0, #25
    1584:	90007d00 	andls	r7, r0, r0, lsl #26
    1588:	94000019 	strls	r0, [r0], #-25
    158c:	02000019 	andeq	r0, r0, #25
    1590:	94087d00 	strls	r7, [r8], #-3328	; 0xd00
    1594:	b4000019 	strlt	r0, [r0], #-25
    1598:	02000019 	andeq	r0, r0, #25
    159c:	00047b00 	andeq	r7, r4, r0, lsl #22
    15a0:	00000000 	andeq	r0, r0, r0
    15a4:	b4000000 	strlt	r0, [r0], #-0
    15a8:	b8000019 	stmdalt	r0, {r0, r3, r4}
    15ac:	02000019 	andeq	r0, r0, #25
    15b0:	b8007d00 	stmdalt	r0, {r8, sl, fp, ip, sp, lr}
    15b4:	bc000019 	stclt	0, cr0, [r0], {25}
    15b8:	02000019 	andeq	r0, r0, #25
    15bc:	bc087d00 	stclt	13, cr7, [r8], {-0}
    15c0:	c4000019 	strgt	r0, [r0], #-25
    15c4:	02000019 	andeq	r0, r0, #25
    15c8:	00047b00 	andeq	r7, r4, r0, lsl #22
    15cc:	00000000 	andeq	r0, r0, r0
    15d0:	c4000000 	strgt	r0, [r0], #-0
    15d4:	c8000019 	stmdagt	r0, {r0, r3, r4}
    15d8:	02000019 	andeq	r0, r0, #25
    15dc:	c8007d00 	stmdagt	r0, {r8, sl, fp, ip, sp, lr}
    15e0:	cc000019 	stcgt	0, cr0, [r0], {25}
    15e4:	02000019 	andeq	r0, r0, #25
    15e8:	cc087d00 	stcgt	13, cr7, [r8], {-0}
    15ec:	e4000019 	str	r0, [r0], #-25
    15f0:	02000019 	andeq	r0, r0, #25
    15f4:	00047b00 	andeq	r7, r4, r0, lsl #22
    15f8:	00000000 	andeq	r0, r0, r0
    15fc:	e4000000 	str	r0, [r0], #-0
    1600:	e8000019 	stmda	r0, {r0, r3, r4}
    1604:	02000019 	andeq	r0, r0, #25
    1608:	e8007d00 	stmda	r0, {r8, sl, fp, ip, sp, lr}
    160c:	ec000019 	stc	0, cr0, [r0], {25}
    1610:	02000019 	andeq	r0, r0, #25
    1614:	ec087d00 	stc	13, cr7, [r8], {-0}
    1618:	fc000019 	stc2	0, cr0, [r0], {25}
    161c:	02000019 	andeq	r0, r0, #25
    1620:	00047b00 	andeq	r7, r4, r0, lsl #22
    1624:	00000000 	andeq	r0, r0, r0
    1628:	Address 0x00001628 is out of bounds.


Disassembly of section .debug_aranges:

00000000 <.debug_aranges>:
   0:	00000024 	andeq	r0, r0, r4, lsr #32
   4:	00000002 	andeq	r0, r0, r2
   8:	00040000 	andeq	r0, r4, r0
   c:	00000000 	andeq	r0, r0, r0
  10:	f00000c4 			; <UNDEFINED> instruction: 0xf00000c4
  14:	00000034 	andeq	r0, r0, r4, lsr r0
  18:	f0000000 			; <UNDEFINED> instruction: 0xf0000000
  1c:	000000c4 	andeq	r0, r0, r4, asr #1
	...
  28:	0000001c 	andeq	r0, r0, ip, lsl r0
  2c:	03630002 	cmneq	r3, #2
  30:	00040000 	andeq	r0, r4, r0
  34:	00000000 	andeq	r0, r0, r0
  38:	f00000f8 			; <UNDEFINED> instruction: 0xf00000f8
  3c:	00000198 	muleq	r0, r8, r1
	...
  48:	0000001c 	andeq	r0, r0, ip, lsl r0
  4c:	061e0002 	ldreq	r0, [lr], -r2
  50:	00040000 	andeq	r0, r4, r0
  54:	00000000 	andeq	r0, r0, r0
  58:	f0000290 			; <UNDEFINED> instruction: 0xf0000290
  5c:	00000980 	andeq	r0, r0, r0, lsl #19
	...
  68:	0000001c 	andeq	r0, r0, ip, lsl r0
  6c:	0fb20002 	svceq	0x00b20002
  70:	00040000 	andeq	r0, r4, r0
  74:	00000000 	andeq	r0, r0, r0
  78:	f0000c10 			; <UNDEFINED> instruction: 0xf0000c10
  7c:	00000058 	andeq	r0, r0, r8, asr r0
	...
  88:	0000001c 	andeq	r0, r0, ip, lsl r0
  8c:	109e0002 	addsne	r0, lr, r2
  90:	00040000 	andeq	r0, r4, r0
  94:	00000000 	andeq	r0, r0, r0
  98:	f0000c68 			; <UNDEFINED> instruction: 0xf0000c68
  9c:	000001a8 	andeq	r0, r0, r8, lsr #3
	...
  a8:	0000001c 	andeq	r0, r0, ip, lsl r0
  ac:	11210002 	teqne	r1, r2
  b0:	00040000 	andeq	r0, r4, r0
  b4:	00000000 	andeq	r0, r0, r0
  b8:	f0000e10 			; <UNDEFINED> instruction: 0xf0000e10
  bc:	00000028 	andeq	r0, r0, r8, lsr #32
	...
  c8:	0000001c 	andeq	r0, r0, ip, lsl r0
  cc:	11a30002 			; <UNDEFINED> instruction: 0x11a30002
  d0:	00040000 	andeq	r0, r4, r0
  d4:	00000000 	andeq	r0, r0, r0
  d8:	f0000e38 			; <UNDEFINED> instruction: 0xf0000e38
  dc:	0000020c 	andeq	r0, r0, ip, lsl #4
	...
  e8:	0000001c 	andeq	r0, r0, ip, lsl r0
  ec:	39370002 	ldmdbcc	r7!, {r1}
  f0:	00040000 	andeq	r0, r4, r0
  f4:	00000000 	andeq	r0, r0, r0
  f8:	f0001060 			; <UNDEFINED> instruction: 0xf0001060
  fc:	00000454 	andeq	r0, r0, r4, asr r4
	...
 108:	0000001c 	andeq	r0, r0, ip, lsl r0
 10c:	39be0002 	ldmibcc	lr!, {r1}
 110:	00040000 	andeq	r0, r4, r0
 114:	00000000 	andeq	r0, r0, r0
 118:	f00014c0 			; <UNDEFINED> instruction: 0xf00014c0
 11c:	000019fc 	strdeq	r1, [r0], -ip
	...

Disassembly of section .debug_ranges:

00000000 <.debug_ranges>:
   0:	f00000c4 			; <UNDEFINED> instruction: 0xf00000c4
   4:	f00000f8 			; <UNDEFINED> instruction: 0xf00000f8
   8:	f0000000 			; <UNDEFINED> instruction: 0xf0000000
   c:	f00000c4 			; <UNDEFINED> instruction: 0xf00000c4
	...
  18:	00000024 	andeq	r0, r0, r4, lsr #32
  1c:	00000028 	andeq	r0, r0, r8, lsr #32
  20:	0000002c 	andeq	r0, r0, ip, lsr #32
  24:	00000040 	andeq	r0, r0, r0, asr #32
	...
  30:	00000024 	andeq	r0, r0, r4, lsr #32
  34:	00000028 	andeq	r0, r0, r8, lsr #32
  38:	0000002c 	andeq	r0, r0, ip, lsr #32
  3c:	00000040 	andeq	r0, r0, r0, asr #32
	...
  48:	000000e4 	andeq	r0, r0, r4, ror #1
  4c:	000000e8 	andeq	r0, r0, r8, ror #1
  50:	000000ec 	andeq	r0, r0, ip, ror #1
  54:	000000f4 	strdeq	r0, [r0], -r4
  58:	00000130 	andeq	r0, r0, r0, lsr r1
  5c:	0000014c 	andeq	r0, r0, ip, asr #2
	...
  68:	00000154 	andeq	r0, r0, r4, asr r1
  6c:	00000158 	andeq	r0, r0, r8, asr r1
  70:	0000015c 	andeq	r0, r0, ip, asr r1
  74:	00000170 	andeq	r0, r0, r0, ror r1
	...
  80:	00000154 	andeq	r0, r0, r4, asr r1
  84:	00000158 	andeq	r0, r0, r8, asr r1
  88:	0000015c 	andeq	r0, r0, ip, asr r1
  8c:	00000170 	andeq	r0, r0, r0, ror r1
	...
  98:	00000410 	andeq	r0, r0, r0, lsl r4
  9c:	00000414 	andeq	r0, r0, r4, lsl r4
  a0:	000004d8 	ldrdeq	r0, [r0], -r8
  a4:	00000548 	andeq	r0, r0, r8, asr #10
  a8:	0000054c 	andeq	r0, r0, ip, asr #10
  ac:	00000550 	andeq	r0, r0, r0, asr r5
  b0:	00000600 	andeq	r0, r0, r0, lsl #12
  b4:	00000608 	andeq	r0, r0, r8, lsl #12
  b8:	0000069c 	muleq	r0, ip, r6
  bc:	000006ac 	andeq	r0, r0, ip, lsr #13
	...

Disassembly of section .debug_line:

00000000 <.debug_line>:
   0:	0000009b 	muleq	r0, fp, r0
   4:	00510002 	subseq	r0, r1, r2
   8:	01020000 	mrseq	r0, (UNDEF: 2)
   c:	000d0efb 	strdeq	r0, [sp], -fp
  10:	01010101 	tsteq	r1, r1, lsl #2
  14:	01000000 	mrseq	r0, (UNDEF: 0)
  18:	2e010000 	cdpcs	0, 0, cr0, cr1, cr0, {0}
  1c:	6400002e 	strvs	r0, [r0], #-46	; 0x2e
  20:	5f6d6172 	svcpl	0x006d6172
  24:	71657266 	cmnvc	r5, r6, ror #4
  28:	746e655f 	strbtvc	r6, [lr], #-1375	; 0x55f
  2c:	632e7972 	teqvs	lr, #1867776	; 0x1c8000
  30:	00000000 	andeq	r0, r0, r0
  34:	682e6d70 	stmdavs	lr!, {r4, r5, r6, r8, sl, fp, sp, lr}
  38:	00000100 	andeq	r0, r0, r0, lsl #2
  3c:	745f6d70 	ldrbvc	r6, [pc], #-3440	; 44 <__dram_freq_start+0x44>
  40:	73657079 	cmnvc	r5, #121	; 0x79
  44:	0100682e 	tsteq	r0, lr, lsr #16
  48:	656d0000 	strbvs	r0, [sp, #-0]!
  4c:	72705f6d 	rsbsvc	r5, r0, #436	; 0x1b4
  50:	6b746e69 	blvs	1d1b9fc <__dram_freq_start+0x1d1b9fc>
  54:	0100682e 	tsteq	r0, lr, lsr #16
  58:	00000000 	andeq	r0, r0, r0
  5c:	00c40205 	sbceq	r0, r4, r5, lsl #4
  60:	fd03f000 	stc2	0, cr15, [r3, #-0]
  64:	a3160100 	tstge	r6, #0
  68:	0602654b 	streq	r6, [r2], -fp, asr #10
  6c:	00010100 	andeq	r0, r1, r0, lsl #2
  70:	00000205 	andeq	r0, r0, r5, lsl #4
  74:	3603f000 	strcc	pc, [r3], -r0
  78:	2b311801 	blcs	c46084 <__dram_freq_start+0xc46084>
  7c:	2e2e7a03 	vmulcs.f32	s14, s28, s6
  80:	02003134 	andeq	r3, r0, #13
  84:	696b0104 	stmdbvs	fp!, {r2, r8}^
  88:	362f494b 	strtcc	r4, [pc], -fp, asr #18
  8c:	304e8569 	subcc	r8, lr, r9, ror #10
  90:	69886931 	stmibvs	r8, {r0, r4, r5, r8, fp, sp, lr}
  94:	034a5503 	movteq	r5, #42243	; 0xa503
  98:	0e022e2c 	cdpeq	14, 0, cr2, cr2, cr12, {1}
  9c:	bf010100 	svclt	0x00010100
  a0:	02000000 	andeq	r0, r0, #0
  a4:	00003600 	andeq	r3, r0, r0, lsl #12
  a8:	fb010200 	blx	408b2 <__dram_freq_start+0x408b2>
  ac:	01000d0e 	tsteq	r0, lr, lsl #26
  b0:	00010101 	andeq	r0, r1, r1, lsl #2
  b4:	00010000 	andeq	r0, r1, r0
  b8:	2f2e0100 	svccs	0x002e0100
  bc:	00002e2e 	andeq	r2, r0, lr, lsr #28
  c0:	5f6d656d 	svcpl	0x006d656d
  c4:	69726573 	ldmdbvs	r2!, {r0, r1, r4, r5, r6, r8, sl, sp, lr}^
  c8:	632e6c61 	teqvs	lr, #24832	; 0x6100
  cc:	00000100 	andeq	r0, r0, r0, lsl #2
  d0:	745f6d70 	ldrbvc	r6, [pc], #-3440	; d8 <__dram_freq_start+0xd8>
  d4:	73657079 	cmnvc	r5, #121	; 0x79
  d8:	0100682e 	tsteq	r0, lr, lsr #16
  dc:	00000000 	andeq	r0, r0, r0
  e0:	00f80205 	rscseq	r0, r8, r5, lsl #4
  e4:	1403f000 	strne	pc, [r3], #-0
  e8:	01240301 	teqeq	r4, r1, lsl #6
  ec:	2e300385 	cdpcs	3, 3, cr0, cr0, cr5, {4}
  f0:	03164e14 	tsteq	r6, #320	; 0x140
  f4:	24034a5c 	strcs	r4, [r3], #-2652	; 0xa5c
  f8:	2e5c032e 	cdpcs	3, 5, cr0, cr12, cr14, {1}
  fc:	2e230385 	cdpcs	3, 2, cr0, cr3, cr5, {4}
 100:	31c12a4c 	biccc	r2, r1, ip, asr #20
 104:	03010c03 	movweq	r0, #7171	; 0x1c03
 108:	77032e09 	strvc	r2, [r3, -r9, lsl #28]
 10c:	2e09032e 	cdpcs	3, 0, cr0, cr9, cr14, {1}
 110:	032e7703 	teqeq	lr, #786432	; 0xc0000
 114:	74032e0c 	strvc	r2, [r3], #-3596	; 0xe0c
 118:	2d6e4c2e 	stclcs	12, cr4, [lr, #-184]!	; 0xffffff48
 11c:	2b312f2f 	blcs	c4bde0 <__dram_freq_start+0xc4bde0>
 120:	2f2f2d30 	svccs	0x002f2d30
 124:	30312b32 	eorscc	r2, r1, r2, lsr fp
 128:	2e28034f 	cdpcs	3, 2, cr0, cr8, cr15, {2}
 12c:	665e0331 			; <UNDEFINED> instruction: 0x665e0331
 130:	032e1e03 	teqeq	lr, #48	; 0x30
 134:	03302e62 	teqeq	r0, #1568	; 0x620
 138:	03502e22 	cmpeq	r0, #544	; 0x220
 13c:	03a02e56 	moveq	r2, #1376	; 0x560
 140:	0c032e20 	stceq	14, cr2, [r3], {32}
 144:	66520366 	ldrbvs	r0, [r2], -r6, ror #6
 148:	4a3003a0 	bmi	c00fd0 <__dram_freq_start+0xc00fd0>
 14c:	4a560316 	bmi	1580dac <__dram_freq_start+0x1580dac>
 150:	032e2a03 	teqeq	lr, #12288	; 0x3000
 154:	03852e56 	orreq	r2, r5, #1376	; 0x560
 158:	2a4c2e29 	bcs	130ba04 <__dram_freq_start+0x130ba04>
 15c:	000202c1 	andeq	r0, r2, r1, asr #5
 160:	03950101 	orrseq	r0, r5, #1073741824	; 0x40000000
 164:	00020000 	andeq	r0, r2, r0
 168:	000000cf 	andeq	r0, r0, pc, asr #1
 16c:	0efb0102 	cdpeq	1, 15, cr0, cr11, cr2, {0}
 170:	0101000d 	tsteq	r1, sp
 174:	00000101 	andeq	r0, r0, r1, lsl #2
 178:	00000100 	andeq	r0, r0, r0, lsl #2
 17c:	2e2f2e01 	cdpcs	14, 2, cr2, cr15, cr1, {0}
 180:	682f002e 	stmdavs	pc!, {r1, r2, r3, r5}	; <UNPREDICTABLE>
 184:	2f656d6f 	svccs	0x00656d6f
 188:	696c787a 	stmdbvs	ip!, {r1, r3, r4, r5, r6, fp, ip, sp, lr}^
 18c:	2f78756e 	svccs	0x0078756e
 190:	2e303241 	cdpcs	2, 3, cr3, cr0, cr1, {2}
 194:	2e342e34 	mrccs	14, 1, r2, cr4, cr4, {1}
 198:	6c2f5741 	stcvs	7, cr5, [pc], #-260	; 9c <__dram_freq_start+0x9c>
 19c:	65686369 	strbvs	r6, [r8, #-873]!	; 0x369
 1a0:	756f2f65 	strbvc	r2, [pc, #-3941]!	; fffff243 <__bss_end+0xfffc10b>
 1a4:	6e612f74 	mcrvs	15, 3, r2, cr1, cr4, {3}
 1a8:	696f7264 	stmdbvs	pc!, {r2, r5, r6, r9, ip, sp, lr}^	; <UNPREDICTABLE>
 1ac:	6f632f64 	svcvs	0x00632f64
 1b0:	6e6f6d6d 	cdpvs	13, 6, cr6, cr15, cr13, {3}
 1b4:	6975622f 	ldmdbvs	r5!, {r0, r1, r2, r3, r5, r9, sp, lr}^
 1b8:	6f72646c 	svcvs	0x0072646c
 1bc:	652f746f 	strvs	r7, [pc, #-1135]!	; fffffd55 <__bss_end+0xfffcc1d>
 1c0:	72657478 	rsbvc	r7, r5, #2013265920	; 0x78000000
 1c4:	2d6c616e 	stfcse	f6, [ip, #-440]!	; 0xfffffe48
 1c8:	6c6f6f74 	stclvs	15, cr6, [pc], #-464	; 0 <__dram_freq_start>
 1cc:	69616863 	stmdbvs	r1!, {r0, r1, r5, r6, fp, sp, lr}^
 1d0:	69622f6e 	stmdbvs	r2!, {r1, r2, r3, r5, r6, r8, r9, sl, fp, sp}^
 1d4:	2e2e2f6e 	cdpcs	15, 2, cr2, cr14, cr14, {3}
 1d8:	62696c2f 	rsbvs	r6, r9, #12032	; 0x2f00
 1dc:	6363672f 	cmnvs	r3, #12320768	; 0xbc0000
 1e0:	6d72612f 	ldfvse	f6, [r2, #-188]!	; 0xffffff44
 1e4:	6e696c2d 	cdpvs	12, 6, cr6, cr9, cr13, {1}
 1e8:	672d7875 			; <UNDEFINED> instruction: 0x672d7875
 1ec:	6165756e 	cmnvs	r5, lr, ror #10
 1f0:	342f6962 	strtcc	r6, [pc], #-2402	; 1f8 <__dram_freq_start+0x1f8>
 1f4:	332e362e 	teqcc	lr, #48234496	; 0x2e00000
 1f8:	636e692f 	cmnvs	lr, #770048	; 0xbc000
 1fc:	6564756c 	strbvs	r7, [r4, #-1388]!	; 0x56c
 200:	656d0000 	strbvs	r0, [sp, #-0]!
 204:	72705f6d 	rsbsvc	r5, r0, #436	; 0x1b4
 208:	6b746e69 	blvs	1d1bbb4 <__dram_freq_start+0x1d1bbb4>
 20c:	0100632e 	tsteq	r0, lr, lsr #6
 210:	6d700000 	ldclvs	0, cr0, [r0, #-0]
 214:	7079745f 	rsbsvc	r7, r9, pc, asr r4
 218:	682e7365 	stmdavs	lr!, {r0, r2, r5, r6, r8, r9, ip, sp, lr}
 21c:	00000100 	andeq	r0, r0, r0, lsl #2
 220:	61647473 	smcvs	18243	; 0x4743
 224:	682e6772 	stmdavs	lr!, {r1, r4, r5, r6, r8, r9, sl, sp, lr}
 228:	00000200 	andeq	r0, r0, r0, lsl #4
 22c:	6975623c 	ldmdbvs	r5!, {r2, r3, r4, r5, r9, sp, lr}^
 230:	692d746c 	pushvs	{r2, r3, r5, r6, sl, ip, sp, lr}
 234:	00003e6e 	andeq	r3, r0, lr, ror #28
 238:	00000000 	andeq	r0, r0, r0
 23c:	02900205 	addseq	r0, r0, #1342177280	; 0x50000000
 240:	1f03f000 	svcne	0x0003f000
 244:	02001501 	andeq	r1, r0, #4194304	; 0x400000
 248:	82060204 	andhi	r0, r6, #1073741824	; 0x40000000
 24c:	366c0666 	strbtcc	r0, [ip], -r6, ror #12
 250:	02003211 	andeq	r3, r0, #268435457	; 0x10000001
 254:	2e060104 	adfcss	f0, f6, f4
 258:	15318806 	ldrne	r8, [r1, #-2054]!	; 0x806
 25c:	2a683446 	bcs	1a0d37c <__dram_freq_start+0x1a0d37c>
 260:	324a0a03 	subcc	r0, sl, #12288	; 0x3000
 264:	2a329a15 	bcs	ca6ac0 <__dram_freq_start+0xca6ac0>
 268:	04020032 	streq	r0, [r2], #-50	; 0x32
 26c:	02004601 	andeq	r4, r0, #1048576	; 0x100000
 270:	87360104 	ldrhi	r0, [r6, -r4, lsl #2]!
 274:	312b1532 	teqcc	fp, r2, lsr r5
 278:	01040200 	mrseq	r0, R12_usr
 27c:	06820630 			; <UNDEFINED> instruction: 0x06820630
 280:	342e7a03 	strtcc	r7, [lr], #-2563	; 0xa03
 284:	342e7a03 	strtcc	r7, [lr], #-2563	; 0xa03
 288:	01040200 	mrseq	r0, R12_usr
 28c:	034a7a03 	movteq	r7, #43523	; 0xaa03
 290:	02004a0a 	andeq	r4, r0, #40960	; 0xa000
 294:	2e060104 	adfcss	f0, f6, f4
 298:	344ca006 	strbcc	sl, [ip], #-6
 29c:	2f2f174d 	svccs	0x002f174d
 2a0:	032f4f4e 	teqeq	pc, #312	; 0x138
 2a4:	0c032e78 	stceq	14, cr2, [r3], {120}	; 0x78
 2a8:	09031582 	stmdbeq	r3, {r1, r7, r8, sl, ip}
 2ac:	2e77032e 	cdpcs	3, 7, cr0, cr7, cr14, {1}
 2b0:	4c2f2f2f 	stcmi	15, cr2, [pc], #-188	; 1fc <__dram_freq_start+0x1fc>
 2b4:	032e7703 	teqeq	lr, #786432	; 0xc0000
 2b8:	2f464a09 	svccs	0x00464a09
 2bc:	03454c2f 	movteq	r4, #23599	; 0x5c2f
 2c0:	87454a09 	strbhi	r4, [r5, -r9, lsl #20]
 2c4:	0d032d2f 	stceq	13, cr2, [r3, #-188]	; 0xffffff44
 2c8:	292c354a 	stmdbcs	ip!, {r1, r3, r6, r8, sl, ip, sp}
 2cc:	032f8787 	teqeq	pc, #35389440	; 0x21c0000
 2d0:	2b332e7a 	blcs	ccbcc0 <__dram_freq_start+0xccbcc0>
 2d4:	2d2e0c03 	stccs	12, cr0, [lr, #-12]!
 2d8:	032e7003 	teqeq	lr, #3
 2dc:	02002e14 	andeq	r2, r0, #320	; 0x140
 2e0:	00850204 	addeq	r0, r5, r4, lsl #4
 2e4:	83020402 	movwhi	r0, #9218	; 0x2402
 2e8:	02040200 	andeq	r0, r4, #0
 2ec:	0402002d 	streq	r0, [r2], #-45	; 0x2d
 2f0:	02004b02 	andeq	r4, r0, #2048	; 0x800
 2f4:	002d0204 	eoreq	r0, sp, r4, lsl #4
 2f8:	2f020402 	svccs	0x00020402
 2fc:	02040200 	andeq	r0, r4, #0
 300:	6609032a 	strvs	r0, [r9], -sl, lsr #6
 304:	032e7703 	teqeq	lr, #786432	; 0xc0000
 308:	5d032e0c 	stcpl	14, cr2, [r3, #-48]	; 0xffffffd0
 30c:	66250366 	strtvs	r0, [r5], -r6, ror #6
 310:	02040200 	andeq	r0, r4, #0
 314:	02002e06 	andeq	r2, r0, #96	; 0x60
 318:	30060204 	andcc	r0, r6, r4, lsl #4
 31c:	02040200 	andeq	r0, r4, #0
 320:	4a5b032c 	bmi	16c0fd8 <__dram_freq_start+0x16c0fd8>
 324:	692e2a03 	stmdbvs	lr!, {r0, r1, r9, fp, sp}
 328:	2a2c3485 	bcs	b0d544 <__dram_freq_start+0xb0d544>
 32c:	2fa32c88 	svccs	0x00a32c88
 330:	332e7a03 	teqcc	lr, #12288	; 0x3000
 334:	0200522b 	andeq	r5, r0, #-1342177278	; 0xb0000002
 338:	00310204 	eorseq	r0, r1, r4, lsl #4
 33c:	83020402 	movwhi	r0, #9218	; 0x2402
 340:	02040200 	andeq	r0, r4, #0
 344:	0402002d 	streq	r0, [r2], #-45	; 0x2d
 348:	02004b02 	andeq	r4, r0, #2048	; 0x800
 34c:	002d0204 	eoreq	r0, sp, r4, lsl #4
 350:	2f020402 	svccs	0x00020402
 354:	02040200 	andeq	r0, r4, #0
 358:	6671032a 	ldrbtvs	r0, [r1], -sl, lsr #6
 35c:	00661703 	rsbeq	r1, r6, r3, lsl #14
 360:	06020402 	streq	r0, [r2], -r2, lsl #8
 364:	0402002e 	streq	r0, [r2], #-46	; 0x2e
 368:	00300602 	eorseq	r0, r0, r2, lsl #12
 36c:	2c020402 	cfstrscs	mvf0, [r2], {2}
 370:	83036933 	movwhi	r6, #14643	; 0x3933
 374:	2d328201 	lfmcs	f0, 1, [r2, #-4]!
 378:	820b032b 	andhi	r0, fp, #-1409286144	; 0xac000000
 37c:	9f2e7803 	svcls	0x002e7803
 380:	8a03a331 	bhi	e904c <__dram_freq_start+0xe904c>
 384:	0a03827f 	beq	e0d88 <__dram_freq_start+0xe0d88>
 388:	2e76032e 	cdpcs	3, 7, cr0, cr6, cr14, {1}
 38c:	034a0a03 	movteq	r0, #43523	; 0xaa03
 390:	0a032e76 	beq	cbd70 <__dram_freq_start+0xcbd70>
 394:	032c302e 	teqeq	ip, #46	; 0x2e
 398:	032e00dc 	teqeq	lr, #220	; 0xdc
 39c:	2d827fab 	stccs	15, cr7, [r2, #684]	; 0x2ac
 3a0:	2c2f2d2f 	stccs	13, cr2, [pc], #-188	; 2ec <__dram_freq_start+0x2ec>
 3a4:	00c10330 	sbceq	r0, r1, r0, lsr r3
 3a8:	2e68032e 	cdpcs	3, 6, cr0, cr8, cr14, {1}
 3ac:	032e5703 	teqeq	lr, #786432	; 0xc0000
 3b0:	036600cb 	cmneq	r6, #203	; 0xcb
 3b4:	4c2e7fb5 	stcmi	15, cr7, [lr], #-724	; 0xfffffd2c
 3b8:	2e00c603 	cfmadd32cs	mvax0, mvfx12, mvfx0, mvfx3
 3bc:	2e7fba03 	vaddcs.f32	s23, s30, s6
 3c0:	292f6931 	stmdbcs	pc!, {r0, r4, r5, r8, fp, sp, lr}	; <UNPREDICTABLE>
 3c4:	2a2e0903 	bcs	b827d8 <__dram_freq_start+0xb827d8>
 3c8:	00c10334 	sbceq	r0, r1, r4, lsr r3
 3cc:	30013402 	andcc	r3, r1, r2, lsl #8
 3d0:	0330302c 	teqeq	r0, #44	; 0x2c
 3d4:	e1034a55 	tst	r3, r5, asr sl
 3d8:	a003d67d 	andge	sp, r3, sp, ror r6
 3dc:	e0036602 	and	r6, r3, r2, lsl #12
 3e0:	a1032e7d 	tstge	r3, sp, ror lr
 3e4:	f0038202 			; <UNDEFINED> instruction: 0xf0038202
 3e8:	9203d67d 	andls	sp, r3, #131072000	; 0x7d00000
 3ec:	032f8202 	teqeq	pc, #536870912	; 0x20000000
 3f0:	b5032e0b 	strlt	r2, [r3, #-3595]	; 0xe0b
 3f4:	cb032e7f 	blgt	cbdf8 <__dram_freq_start+0xcbdf8>
 3f8:	b5032e00 	strlt	r2, [r3, #-3584]	; 0xe00
 3fc:	ad03667f 	stcge	6, cr6, [r3, #-508]	; 0xfffffe04
 400:	6f032e7e 	svcvs	0x00032e7e
 404:	02b10382 	adcseq	r0, r1, #134217730	; 0x8000002
 408:	63032ff2 	movwvs	r2, #16370	; 0x3ff2
 40c:	7deb032e 	stclvc	3, cr0, [fp, #184]!	; 0xb8
 410:	029603d6 	addseq	r0, r6, #1476395011	; 0x58000003
 414:	7dea0366 	stclvc	3, cr0, [sl, #408]!	; 0x198
 418:	0297032e 	addseq	r0, r7, #-1207959552	; 0xb8000000
 41c:	7dfa0382 	ldclvc	3, cr0, [sl, #520]!	; 0x208
 420:	029203d6 	addseq	r0, r2, #1476395011	; 0x58000003
 424:	039f5082 	orrseq	r5, pc, #130	; 0x82
 428:	032f2e0d 	teqeq	pc, #208	; 0xd0
 42c:	f6038252 			; <UNDEFINED> instruction: 0xf6038252
 430:	8b03d67d 	blhi	f5e2c <__dram_freq_start+0xf5e2c>
 434:	f5036602 			; <UNDEFINED> instruction: 0xf5036602
 438:	8c032e7d 	stchi	14, cr2, [r3], {125}	; 0x7d
 43c:	85038202 	strhi	r8, [r3, #-514]	; 0x202
 440:	9203d67e 	andls	sp, r3, #132120576	; 0x7e00000
 444:	3b038202 	blcc	e0c54 <__dram_freq_start+0xe0c54>
 448:	660c0382 	strvs	r0, [ip], -r2, lsl #7
 44c:	032e7403 	teqeq	lr, #50331648	; 0x3000000
 450:	642f2e0c 	strtvs	r2, [pc], #-3596	; 458 <__dram_freq_start+0x458>
 454:	00c10330 	sbceq	r0, r1, r0, lsr r3
 458:	2e68032e 	cdpcs	3, 6, cr0, cr8, cr14, {1}
 45c:	032e5703 	teqeq	lr, #786432	; 0xc0000
 460:	036600cb 	cmneq	r6, #203	; 0xcb
 464:	4c2e7fb5 	stcmi	15, cr7, [lr], #-724	; 0xfffffd2c
 468:	2e00c603 	cfmadd32cs	mvax0, mvfx12, mvfx0, mvfx3
 46c:	2e7fba03 	vaddcs.f32	s23, s30, s6
 470:	292f6931 	stmdbcs	pc!, {r0, r4, r5, r8, fp, sp, lr}	; <UNPREDICTABLE>
 474:	2a2e0903 	bcs	b82888 <__dram_freq_start+0xb82888>
 478:	00c10334 	sbceq	r0, r1, r4, lsr r3
 47c:	30013402 	andcc	r3, r1, r2, lsl #8
 480:	0331302c 	teqeq	r1, #44	; 0x2c
 484:	ec039e54 	stc	14, cr9, [r3], {84}	; 0x54
 488:	9503d67c 	strls	sp, [r3, #-1660]	; 0x67c
 48c:	eb036603 	bl	d9ca0 <__dram_freq_start+0xd9ca0>
 490:	96032e7c 			; <UNDEFINED> instruction: 0x96032e7c
 494:	fb038203 	blx	e0caa <__dram_freq_start+0xe0caa>
 498:	8703d67c 	smlsdxhi	r3, ip, r6, sp
 49c:	032f8203 	teqeq	pc, #805306368	; 0x30000000
 4a0:	b9032e0b 	stmdblt	r3, {r0, r1, r3, r9, sl, fp, sp}
 4a4:	c7032e7f 	smlsdxgt	r3, pc, lr, r2	; <UNPREDICTABLE>
 4a8:	b9032e00 	stmdblt	r3, {r9, sl, fp, sp}
 4ac:	b403667f 	strlt	r6, [r3], #-1663	; 0x67f
 4b0:	6f032e7d 	svcvs	0x00032e7d
 4b4:	03a60382 			; <UNDEFINED> instruction: 0x03a60382
 4b8:	63032ff2 	movwvs	r2, #16370	; 0x3ff2
 4bc:	7cf6032e 	ldclvc	3, cr0, [r6], #184	; 0xb8
 4c0:	038b03d6 	orreq	r0, fp, #1476395011	; 0x58000003
 4c4:	7cf50366 	ldclvc	3, cr0, [r5], #408	; 0x198
 4c8:	038c032e 	orreq	r0, ip, #-1207959552	; 0xb8000000
 4cc:	7d850382 	stcvc	3, cr0, [r5, #520]	; 0x208
 4d0:	038703d6 	orreq	r0, r7, #1476395011	; 0x58000003
 4d4:	039f5082 	orrseq	r5, pc, #130	; 0x82
 4d8:	032f2e0d 	teqeq	pc, #208	; 0xd0
 4dc:	81038252 	tsthi	r3, r2, asr r2
 4e0:	8003d67d 	andhi	sp, r3, sp, ror r6
 4e4:	80036603 	andhi	r6, r3, r3, lsl #12
 4e8:	81032e7d 	tsthi	r3, sp, ror lr
 4ec:	90038203 	andls	r8, r3, r3, lsl #4
 4f0:	8703d67d 	smlsdxhi	r3, sp, r6, sp
 4f4:	06028203 	streq	r8, [r2], -r3, lsl #4
 4f8:	67010100 	strvs	r0, [r1, -r0, lsl #2]
 4fc:	02000000 	andeq	r0, r0, #0
 500:	00003700 	andeq	r3, r0, r0, lsl #14
 504:	fb010200 	blx	40d0e <__dram_freq_start+0x40d0e>
 508:	01000d0e 	tsteq	r0, lr, lsl #26
 50c:	00010101 	andeq	r0, r1, r1, lsl #2
 510:	00010000 	andeq	r0, r1, r0
 514:	2f2e0100 	svccs	0x002e0100
 518:	00002e2e 	andeq	r2, r0, lr, lsr #28
 51c:	5f6d656d 	svcpl	0x006d656d
 520:	6c766964 	ldclvs	9, cr6, [r6], #-400	; 0xfffffe70
 524:	2e636269 	cdpcs	2, 6, cr6, cr3, cr9, {3}
 528:	00010063 	andeq	r0, r1, r3, rrx
 52c:	5f6d7000 	svcpl	0x006d7000
 530:	65707974 	ldrbvs	r7, [r0, #-2420]!	; 0x974
 534:	00682e73 	rsbeq	r2, r8, r3, ror lr
 538:	00000001 	andeq	r0, r0, r1
 53c:	10020500 	andne	r0, r2, r0, lsl #10
 540:	17f0000c 	ldrbne	r0, [r0, ip]!
 544:	03114b13 	tsteq	r1, #19456	; 0x4c00
 548:	31172e09 	tstcc	r7, r9, lsl #28
 54c:	0402002b 	streq	r0, [r2], #-43	; 0x2b
 550:	4a063401 	bmi	18d55c <__dram_freq_start+0x18d55c>
 554:	032b3106 	teqeq	fp, #-2147483647	; 0x80000001
 558:	302b4a0b 	eorcc	r4, fp, fp, lsl #20
 55c:	30342a33 	eorscc	r2, r4, r3, lsr sl
 560:	0004024d 	andeq	r0, r4, sp, asr #4
 564:	007d0101 	rsbseq	r0, sp, r1, lsl #2
 568:	00020000 	andeq	r0, r2, r0
 56c:	00000028 	andeq	r0, r0, r8, lsr #32
 570:	0efb0102 	cdpeq	1, 15, cr0, cr11, cr2, {0}
 574:	0101000d 	tsteq	r1, sp
 578:	00000101 	andeq	r0, r0, r1, lsl #2
 57c:	00000100 	andeq	r0, r0, r0, lsl #2
 580:	2e2f2e01 	cdpcs	14, 2, cr2, cr15, cr1, {0}
 584:	6d00002e 	stcvs	0, cr0, [r0, #-184]	; 0xffffff48
 588:	645f6d65 	ldrbvs	r6, [pc], #-3429	; 590 <__dram_freq_start+0x590>
 58c:	696c7669 	stmdbvs	ip!, {r0, r3, r5, r6, r9, sl, ip, sp, lr}^
 590:	00532e62 	subseq	r2, r3, r2, ror #28
 594:	00000001 	andeq	r0, r0, r1
 598:	68020500 	stmdavs	r2, {r8, sl}
 59c:	03f0000c 	mvnseq	r0, #12
 5a0:	2f0100dc 	svccs	0x000100dc
 5a4:	2f332f2f 	svccs	0x00332f2f
 5a8:	2f2f2f2f 	svccs	0x002f2f2f
 5ac:	2e02302f 	cdpcs	0, 0, cr3, cr2, cr15, {1}
 5b0:	2f302f14 	svccs	0x00302f14
 5b4:	2f4c302f 	svccs	0x004c302f
 5b8:	2f2f2f34 	svccs	0x002f2f34
 5bc:	2f2f2f2f 	svccs	0x002f2f2f
 5c0:	2f2f2f2f 	svccs	0x002f2f2f
 5c4:	142e0230 	strtne	r0, [lr], #-560	; 0x230
 5c8:	2f302f2f 	svccs	0x00302f2f
 5cc:	2f2f302f 	svccs	0x002f302f
 5d0:	2f4c302f 	svccs	0x004c302f
 5d4:	2f332f2f 	svccs	0x00332f2f
 5d8:	2f2f2f2f 	svccs	0x002f2f2f
 5dc:	2f2f2f33 	svccs	0x002f2f33
 5e0:	02022f2f 	andeq	r2, r2, #188	; 0xbc
 5e4:	45010100 	strmi	r0, [r1, #-256]	; 0x100
 5e8:	02000000 	andeq	r0, r0, #0
 5ec:	00002700 	andeq	r2, r0, r0, lsl #14
 5f0:	fb010200 	blx	40dfa <__dram_freq_start+0x40dfa>
 5f4:	01000d0e 	tsteq	r0, lr, lsl #26
 5f8:	00010101 	andeq	r0, r1, r1, lsl #2
 5fc:	00010000 	andeq	r0, r1, r0
 600:	2f2e0100 	svccs	0x002e0100
 604:	00002e2e 	andeq	r2, r0, lr, lsr #28
 608:	5f6d656d 	svcpl	0x006d656d
 60c:	616c6564 	cmnvs	ip, r4, ror #10
 610:	00532e79 	subseq	r2, r3, r9, ror lr
 614:	00000001 	andeq	r0, r0, r1
 618:	10020500 	andne	r0, r2, r0, lsl #10
 61c:	03f0000e 	mvnseq	r0, #14
 620:	2f2f010d 	svccs	0x002f010d
 624:	2f2f2f30 	svccs	0x002f2f30
 628:	022f302f 	eoreq	r3, pc, #47	; 0x2f
 62c:	01010002 	tsteq	r1, r2
 630:	0000012b 	andeq	r0, r0, fp, lsr #2
 634:	00a00002 	adceq	r0, r0, r2
 638:	01020000 	mrseq	r0, (UNDEF: 2)
 63c:	000d0efb 	strdeq	r0, [sp], -fp
 640:	01010101 	tsteq	r1, r1, lsl #2
 644:	01000000 	mrseq	r0, (UNDEF: 0)
 648:	2e010000 	cdpcs	0, 0, cr0, cr1, cr0, {0}
 64c:	002e2e2f 	eoreq	r2, lr, pc, lsr #28
 650:	6d6f682f 	stclvs	8, cr6, [pc, #-188]!	; 59c <__dram_freq_start+0x59c>
 654:	787a2f65 	ldmdavc	sl!, {r0, r2, r5, r6, r8, r9, sl, fp, sp}^
 658:	756e696c 	strbvc	r6, [lr, #-2412]!	; 0x96c
 65c:	32412f78 	subcc	r2, r1, #480	; 0x1e0
 660:	2e342e30 	mrccs	14, 1, r2, cr4, cr0, {1}
 664:	57412e34 	smlaldxpl	r2, r1, r4, lr
 668:	63696c2f 	cmnvs	r9, #12032	; 0x2f00
 66c:	2f656568 	svccs	0x00656568
 670:	756e696c 	strbvc	r6, [lr, #-2412]!	; 0x96c
 674:	2e332d78 	mrccs	13, 1, r2, cr3, cr8, {3}
 678:	72612f34 	rsbvc	r2, r1, #208	; 0xd0
 67c:	612f6863 	teqvs	pc, r3, ror #16
 680:	6d2f6d72 	stcvs	13, cr6, [pc, #-456]!	; 4c0 <__dram_freq_start+0x4c0>
 684:	2d686361 	stclcs	3, cr6, [r8, #-388]!	; 0xfffffe7c
 688:	376e7573 			; <UNDEFINED> instruction: 0x376e7573
 68c:	6e692f69 	cdpvs	15, 6, cr2, cr9, cr9, {3}
 690:	64756c63 	ldrbtvs	r6, [r5], #-3171	; 0xc63
 694:	616d2f65 	cmnvs	sp, r5, ror #30
 698:	2e006863 	cdpcs	8, 0, cr6, cr0, cr3, {3}
 69c:	2f2e2e2f 	svccs	0x002e2e2f
 6a0:	6d00002e 	stcvs	0, cr0, [r0, #-184]	; 0xffffff48
 6a4:	745f6d65 	ldrbvc	r6, [pc], #-3429	; 6ac <__dram_freq_start+0x6ac>
 6a8:	6e696d69 	cdpvs	13, 6, cr6, cr9, cr9, {3}
 6ac:	00632e67 	rsbeq	r2, r3, r7, ror #28
 6b0:	70000001 	andvc	r0, r0, r1
 6b4:	79745f6d 	ldmdbvc	r4!, {r0, r2, r3, r5, r6, r8, r9, sl, fp, ip, lr}^
 6b8:	2e736570 	mrccs	5, 3, r6, cr3, cr0, {3}
 6bc:	00010068 	andeq	r0, r1, r8, rrx
 6c0:	6d636300 	stclvs	3, cr6, [r3, #-0]
 6c4:	00682e75 	rsbeq	r2, r8, r5, ror lr
 6c8:	70000002 	andvc	r0, r0, r2
 6cc:	65645f6d 	strbvs	r5, [r4, #-3949]!	; 0xf6d
 6d0:	2e677562 	cdpcs	5, 6, cr7, cr7, cr2, {3}
 6d4:	00030068 	andeq	r0, r3, r8, rrx
 6d8:	05000000 	streq	r0, [r0, #-0]
 6dc:	000e3802 	andeq	r3, lr, r2, lsl #16
 6e0:	010b03f0 	strdeq	r0, [fp, -r0]
 6e4:	66090314 			; <UNDEFINED> instruction: 0x66090314
 6e8:	3231302f 	eorscc	r3, r1, #47	; 0x2f
 6ec:	1431314d 	ldrtne	r3, [r1], #-333	; 0x14d
 6f0:	15314c85 	ldrne	r4, [r1, #-3205]!	; 0xc85
 6f4:	15318485 	ldrne	r8, [r1, #-1157]!	; 0x485
 6f8:	4e153130 	mrcmi	1, 0, r3, cr5, cr0, {1}
 6fc:	0b03314b 	bleq	ccc30 <__dram_freq_start+0xccc30>
 700:	82750301 	rsbshi	r0, r5, #67108864	; 0x4000000
 704:	032e0b03 	teqeq	lr, #3072	; 0xc00
 708:	23034a65 	movwcs	r4, #14949	; 0x3a65
 70c:	304b6a4a 	subcc	r6, fp, sl, asr #20
 710:	48303248 	ldmdami	r0!, {r3, r6, r9, ip, sp}
 714:	29364c31 	ldmdbcs	r6!, {r0, r4, r5, sl, fp, lr}
 718:	7a03352c 	bvc	cdbd0 <__dram_freq_start+0xcdbd0>
 71c:	312f4c2e 	teqcc	pc, lr, lsr #24
 720:	2eba0b03 	vmovcs.f64	d0, #163	; 0xa3
 724:	b4038335 	strlt	r8, [r3], #-821	; 0x335
 728:	d3034a7f 	movwle	r4, #14975	; 0x3a7f
 72c:	79032e00 	stmdbvc	r3, {r9, sl, fp, sp}
 730:	034d352e 	movteq	r3, #54574	; 0xd52e
 734:	03667faa 	cmneq	r6, #680	; 0x2a8
 738:	032e00d6 	teqeq	lr, #214	; 0xd6
 73c:	4d139e25 	ldcmi	14, cr9, [r3, #-148]	; 0xffffff6c
 740:	2e21030f 	cdpcs	3, 2, cr0, cr1, cr15, {0}
 744:	66090314 			; <UNDEFINED> instruction: 0x66090314
 748:	3231302f 	eorscc	r3, r1, #47	; 0x2f
 74c:	a431314d 	ldrtge	r3, [r1], #-333	; 0x14d
 750:	312f3031 	teqcc	pc, r1, lsr r0	; <UNPREDICTABLE>
 754:	3031a44e 	eorscc	sl, r1, lr, asr #8
 758:	0402312f 	streq	r3, [r2], #-303	; 0x12f
 75c:	5a010100 	bpl	40b64 <__dram_freq_start+0x40b64>
 760:	02000001 	andeq	r0, r0, #1
 764:	00002c00 	andeq	r2, r0, r0, lsl #24
 768:	fb010200 	blx	40f72 <__dram_freq_start+0x40f72>
 76c:	01000d0e 	tsteq	r0, lr, lsl #26
 770:	00010101 	andeq	r0, r1, r1, lsl #2
 774:	00010000 	andeq	r0, r1, r0
 778:	2f2e0100 	svccs	0x002e0100
 77c:	00002e2e 	andeq	r2, r0, lr, lsr #28
 780:	5f6d656d 	svcpl	0x006d656d
 784:	5f756d6d 	svcpl	0x00756d6d
 788:	615f6370 	cmpvs	pc, r0, ror r3	; <UNPREDICTABLE>
 78c:	532e6d73 	teqpl	lr, #7360	; 0x1cc0
 790:	00000100 	andeq	r0, r0, r0, lsl #2
 794:	02050000 	andeq	r0, r5, #0
 798:	f0001060 			; <UNDEFINED> instruction: 0xf0001060
 79c:	2f010e03 	svccs	0x00010e03
 7a0:	2f2f332f 	svccs	0x002f332f
 7a4:	2f332f33 	svccs	0x00332f33
 7a8:	2f661303 	svccs	0x00661303
 7ac:	2f2f2f2f 	svccs	0x002f2f2f
 7b0:	2f2f2f30 	svccs	0x002f2f30
 7b4:	2f2f2f2f 	svccs	0x002f2f2f
 7b8:	2f2f2f2f 	svccs	0x002f2f2f
 7bc:	302f2f2f 	eorcc	r2, pc, pc, lsr #30
 7c0:	2f2f2f30 	svccs	0x002f2f30
 7c4:	302f2f2f 	eorcc	r2, pc, pc, lsr #30
 7c8:	30302f2f 	eorscc	r2, r0, pc, lsr #30
 7cc:	33302f2f 	teqcc	r0, #188	; 0xbc
 7d0:	2f2f2f2f 	svccs	0x002f2f2f
 7d4:	2f2f332f 	svccs	0x002f332f
 7d8:	2f2f2f2f 	svccs	0x002f2f2f
 7dc:	2f2f2f30 	svccs	0x002f2f30
 7e0:	2f2f2f2f 	svccs	0x002f2f2f
 7e4:	2f2f2f2f 	svccs	0x002f2f2f
 7e8:	302f2f2f 	eorcc	r2, pc, pc, lsr #30
 7ec:	2f2f2f30 	svccs	0x002f2f30
 7f0:	302f2f2f 	eorcc	r2, pc, pc, lsr #30
 7f4:	30302f2f 	eorscc	r2, r0, pc, lsr #30
 7f8:	2f2f2f2f 	svccs	0x002f2f2f
 7fc:	2f2f2f34 	svccs	0x002f2f34
 800:	2f2f2f2f 	svccs	0x002f2f2f
 804:	2f2f332f 	svccs	0x002f332f
 808:	2f2f2f2f 	svccs	0x002f2f2f
 80c:	2f2f332f 	svccs	0x002f332f
 810:	2f2f2f2f 	svccs	0x002f2f2f
 814:	2f2f2f33 	svccs	0x002f2f33
 818:	342f2f2f 	strtcc	r2, [pc], #-3887	; 820 <__dram_freq_start+0x820>
 81c:	2f2f2f2f 	svccs	0x002f2f2f
 820:	2f332f2f 	svccs	0x00332f2f
 824:	2f2f2f2f 	svccs	0x002f2f2f
 828:	2f332f2f 	svccs	0x00332f2f
 82c:	2f2f2f2f 	svccs	0x002f2f2f
 830:	2e0a032f 	cdpcs	3, 0, cr0, cr10, cr15, {1}
 834:	2f2f2f2f 	svccs	0x002f2f2f
 838:	2f2f342f 	svccs	0x002f342f
 83c:	2f2f2f2f 	svccs	0x002f2f2f
 840:	2f2f2f33 	svccs	0x002f2f33
 844:	032f2f2f 	teqeq	pc, #188	; 0xbc
 848:	302f2e09 	eorcc	r2, pc, r9, lsl #28
 84c:	2f2f3030 	svccs	0x002f3030
 850:	30332f2f 	eorscc	r2, r3, pc, lsr #30
 854:	2f2f2f2f 	svccs	0x002f2f2f
 858:	312f2f2f 	teqcc	pc, pc, lsr #30
 85c:	2f2f2f2f 	svccs	0x002f2f2f
 860:	312f2f2f 	teqcc	pc, pc, lsr #30
 864:	2f2f2f2f 	svccs	0x002f2f2f
 868:	302f2f2f 	eorcc	r2, pc, pc, lsr #30
 86c:	2f2f2f2f 	svccs	0x002f2f2f
 870:	302f302f 	eorcc	r3, pc, pc, lsr #32
 874:	2e0a032f 	cdpcs	3, 0, cr0, cr10, cr15, {1}
 878:	502f2f2f 	eorpl	r2, pc, pc, lsr #30
 87c:	302f2f30 	eorcc	r2, pc, r0, lsr pc	; <UNPREDICTABLE>
 880:	2f2f2f34 	svccs	0x002f2f34
 884:	2f2f30f8 	svccs	0x002f30f8
 888:	2e0d0330 	mcrcs	3, 0, r0, cr13, cr0, {1}
 88c:	302f2f2f 	eorcc	r2, pc, pc, lsr #30
 890:	2f660c03 	svccs	0x00660c03
 894:	2f2f2f2f 	svccs	0x002f2f2f
 898:	6d2f502f 	stcvs	0, cr5, [pc, #-188]!	; 7e4 <__dram_freq_start+0x7e4>
 89c:	d4032f30 	strle	r2, [r3], #-3888	; 0xf30
 8a0:	03352e7c 	teqeq	r5, #1984	; 0x7c0
 8a4:	03312e31 	teqeq	r1, #784	; 0x310
 8a8:	302e01e8 	eorcc	r0, lr, r8, ror #3
 8ac:	30303230 	eorscc	r3, r0, r0, lsr r2
 8b0:	30303230 	eorscc	r3, r0, r0, lsr r2
 8b4:	30303130 	eorscc	r3, r0, r0, lsr r1
 8b8:	01000202 	tsteq	r0, r2, lsl #4
 8bc:	00031101 	andeq	r1, r3, r1, lsl #2
 8c0:	5b000200 	blpl	10c8 <__dram_freq_start+0x10c8>
 8c4:	02000000 	andeq	r0, r0, #0
 8c8:	0d0efb01 	vstreq	d15, [lr, #-4]
 8cc:	01010100 	mrseq	r0, (UNDEF: 17)
 8d0:	00000001 	andeq	r0, r0, r1
 8d4:	01000001 	tsteq	r0, r1
 8d8:	2e2e2f2e 	cdpcs	15, 2, cr2, cr14, cr14, {1}
 8dc:	6174732f 	cmnvs	r4, pc, lsr #6
 8e0:	7962646e 	stmdbvc	r2!, {r1, r2, r3, r5, r6, sl, sp, lr}^
 8e4:	6172642f 	cmnvs	r2, pc, lsr #8
 8e8:	2f2e006d 	svccs	0x002e006d
 8ec:	00002e2e 	andeq	r2, r0, lr, lsr #28
 8f0:	6d617264 	sfmvs	f7, 2, [r1, #-400]!	; 0xfffffe70
 8f4:	696e695f 	stmdbvs	lr!, {r0, r1, r2, r3, r4, r6, r8, fp, sp, lr}^
 8f8:	00632e74 	rsbeq	r2, r3, r4, ror lr
 8fc:	70000001 	andvc	r0, r0, r1
 900:	79745f6d 	ldmdbvc	r4!, {r0, r2, r3, r5, r6, r8, r9, sl, fp, ip, lr}^
 904:	2e736570 	mrccs	5, 3, r6, cr3, cr0, {3}
 908:	00020068 	andeq	r0, r2, r8, rrx
 90c:	2e6d7000 	cdpcs	0, 6, cr7, cr13, cr0, {0}
 910:	00020068 	andeq	r0, r2, r8, rrx
 914:	61726400 	cmnvs	r2, r0, lsl #8
 918:	2e695f6d 	cdpcs	15, 6, cr5, cr9, cr13, {3}
 91c:	00010068 	andeq	r0, r1, r8, rrx
 920:	05000000 	streq	r0, [r0, #-0]
 924:	0014c002 	andseq	ip, r4, r2
 928:	00e303f0 	strdeq	r0, [r3], #48	; 0x30	; <UNPREDICTABLE>
 92c:	67836901 	strvs	r6, [r3, r1, lsl #18]
 930:	67834b83 	strvs	r4, [r3, r3, lsl #23]
 934:	83694d83 	cmnhi	r9, #8384	; 0x20c0
 938:	68678367 	stmdavs	r7!, {r0, r1, r2, r5, r6, r8, r9, pc}^
 93c:	4c676983 	stclmi	9, cr6, [r7], #-524	; 0xfffffdf4
 940:	83676783 	cmnhi	r7, #34340864	; 0x20c0000
 944:	834c6769 	movthi	r6, #51049	; 0xc769
 948:	83698367 	cmnhi	r9, #-1677721599	; 0x9c000001
 94c:	4cf57508 	cfldr64mi	mvdx7, [r5], #32
 950:	4bf44cd9 	blmi	ffd13cbc <__bss_end+0xfd10b84>
 954:	4c4d834d 	mcrrmi	3, 4, r8, sp, cr13
 958:	67676783 	strbvs	r6, [r7, -r3, lsl #15]!
 95c:	02004c68 	andeq	r4, r0, #26624	; 0x6800
 960:	00680204 	rsbeq	r0, r8, r4, lsl #4
 964:	02020402 	andeq	r0, r2, #33554432	; 0x2000000
 968:	02001324 	andeq	r1, r0, #-1879048192	; 0x90000000
 96c:	c9080204 	stmdbgt	r8, {r2, r9}
 970:	02040200 	andeq	r0, r4, #0
 974:	04020062 	streq	r0, [r2], #-98	; 0x62
 978:	06660601 	strbteq	r0, [r6], -r1, lsl #12
 97c:	02004c8a 	andeq	r4, r0, #35328	; 0x8a00
 980:	00680204 	rsbeq	r0, r8, r4, lsl #4
 984:	08020402 	stmdaeq	r2, {r1, sl}
 988:	040200aa 	streq	r0, [r2], #-170	; 0xaa
 98c:	06660601 	strbteq	r0, [r6], -r1, lsl #12
 990:	02004c88 	andeq	r4, r0, #34816	; 0x8800
 994:	00680204 	rsbeq	r0, r8, r4, lsl #4
 998:	08020402 	stmdaeq	r2, {r1, sl}
 99c:	040200c6 	streq	r0, [r2], #-198	; 0xc6
 9a0:	06660601 	strbteq	r0, [r6], -r1, lsl #12
 9a4:	694d4b87 	stmdbvs	sp, {r0, r1, r2, r7, r8, r9, fp, lr}^
 9a8:	84676783 	strbthi	r6, [r7], #-1923	; 0x783
 9ac:	84676783 	strbthi	r6, [r7], #-1923	; 0x783
 9b0:	84676783 	strbthi	r6, [r7], #-1923	; 0x783
 9b4:	84676783 	strbthi	r6, [r7], #-1923	; 0x783
 9b8:	83676783 	cmnhi	r7, #34340864	; 0x20c0000
 9bc:	69660d03 	stmdbvs	r6!, {r0, r1, r8, sl, fp}^
 9c0:	02040200 	andeq	r0, r4, #0
 9c4:	04020068 	streq	r0, [r2], #-104	; 0x68
 9c8:	00560802 	subseq	r0, r6, r2, lsl #16
 9cc:	06010402 	streq	r0, [r1], -r2, lsl #8
 9d0:	006b0666 	rsbeq	r0, fp, r6, ror #12
 9d4:	68020402 	stmdavs	r2, {r1, sl}
 9d8:	02040200 	andeq	r0, r4, #0
 9dc:	02005608 	andeq	r5, r0, #8388608	; 0x800000
 9e0:	66060104 	strvs	r0, [r6], -r4, lsl #2
 9e4:	d7d76b06 	ldrble	r6, [r7, r6, lsl #22]
 9e8:	4c69a16a 	stfmip	f2, [r9], #-424	; 0xfffffe58
 9ec:	83678383 	cmnhi	r7, #201326594	; 0xc000002
 9f0:	8586a267 	strhi	sl, [r6, #615]	; 0x267
 9f4:	674d8367 	strbvs	r8, [sp, -r7, ror #6]
 9f8:	67676767 	strbvs	r6, [r7, -r7, ror #14]!
 9fc:	67673d08 	strbvs	r3, [r7, -r8, lsl #26]!
 a00:	4b846767 	blmi	fe11a7a4 <__bss_end+0xe11766c>
 a04:	67856783 	strvs	r6, [r5, r3, lsl #15]
 a08:	83678386 	cmnhi	r7, #402653186	; 0x18000002
 a0c:	4c83674c 	stcmi	7, cr6, [r3], {76}	; 0x4c
 a10:	694f844d 	stmdbvs	pc, {r0, r2, r3, r6, sl, pc}^	; <UNPREDICTABLE>
 a14:	8367834e 	cmnhi	r7, #939524097	; 0x38000001
 a18:	a1bc9f4e 			; <UNDEFINED> instruction: 0xa1bc9f4e
 a1c:	83304d31 	teqhi	r0, #3136	; 0xc40
 a20:	834b31a0 	movthi	r3, #45472	; 0xb1a0
 a24:	8384d867 	orrhi	sp, r4, #6750208	; 0x670000
 a28:	83838383 	orrhi	r8, r3, #201326594	; 0xc000002
 a2c:	83838383 	orrhi	r8, r3, #201326594	; 0xc000002
 a30:	03827603 	orreq	r7, r2, #3145728	; 0x300000
 a34:	d7f32e0d 	ldrble	r2, [r3, sp, lsl #28]!
 a38:	83856767 	orrhi	r6, r5, #27000832	; 0x19c0000
 a3c:	8584a083 	strhi	sl, [r4, #131]	; 0x83
 a40:	bb69834c 	bllt	1a61778 <__dram_freq_start+0x1a61778>
 a44:	8467bbd7 	strbthi	fp, [r7], #-3031	; 0xbd7
 a48:	01040200 	mrseq	r0, R12_usr
 a4c:	a2062e06 	andge	r2, r6, #96	; 0x60
 a50:	69888383 	stmibvs	r8, {r0, r1, r7, r8, r9, pc}
 a54:	8567834f 	strbhi	r8, [r7, #-847]!	; 0x34f
 a58:	0402004b 	streq	r0, [r2], #-75	; 0x4b
 a5c:	062e0601 	strteq	r0, [lr], -r1, lsl #12
 a60:	858a83a0 	strhi	r8, [sl, #928]	; 0x3a0
 a64:	84a19f9f 	strthi	r9, [r1], #3999	; 0xf9f
 a68:	8484d74b 	strhi	sp, [r4], #1867	; 0x74b
 a6c:	8468bb4b 	strbthi	fp, [r8], #-2891	; 0xb4b
 a70:	83a19f9f 			; <UNDEFINED> instruction: 0x83a19f9f
 a74:	68bc6867 	ldmvs	ip!, {r0, r1, r2, r5, r6, fp, sp, lr}
 a78:	84678385 	strbthi	r8, [r7], #-901	; 0x385
 a7c:	01040200 	mrseq	r0, R12_usr
 a80:	a4062e06 	strge	r2, [r6], #-3590	; 0xe06
 a84:	8567836c 	strbhi	r8, [r7, #-876]!	; 0x36c
 a88:	d7848383 	strle	r8, [r4, r3, lsl #7]
 a8c:	67678385 	strbvs	r8, [r7, -r5, lsl #7]!
 a90:	04020083 	streq	r0, [r2], #-131	; 0x83
 a94:	062e0601 	strteq	r0, [lr], -r1, lsl #12
 a98:	00a04da0 	adceq	r4, r0, r0, lsr #27
 a9c:	06010402 	streq	r0, [r1], -r2, lsl #8
 aa0:	83d9062e 	bicshi	r0, r9, #48234496	; 0x2e00000
 aa4:	00856767 	addeq	r6, r5, r7, ror #14
 aa8:	06010402 	streq	r0, [r1], -r2, lsl #8
 aac:	83a0062e 	movhi	r0, #48234496	; 0x2e00000
 ab0:	0e038467 	cdpeq	4, 0, cr8, cr3, cr7, {3}
 ab4:	4c68304a 	stclmi	0, cr3, [r8], #-296	; 0xfffffed8
 ab8:	84835068 	strhi	r5, [r3], #104	; 0x68
 abc:	4b308983 	blmi	c230d0 <__dram_freq_start+0xc230d0>
 ac0:	67836a6b 	strvs	r6, [r3, fp, ror #20]
 ac4:	85678385 	strbhi	r8, [r7, #-901]!	; 0x385
 ac8:	01040200 	mrseq	r0, R12_usr
 acc:	bd062e06 	stclt	14, cr2, [r6, #-24]	; 0xffffffe8
 ad0:	2f4d8483 	svccs	0x004d8483
 ad4:	85821f03 	strhi	r1, [r2, #3843]	; 0xf03
 ad8:	68846784 	stmvs	r4, {r2, r7, r8, r9, sl, sp, lr}
 adc:	660d0383 	strvs	r0, [sp], -r3, lsl #7
 ae0:	4b820f03 	blmi	fe0846f4 <__bss_end+0xe0815bc>
 ae4:	679fbb9f 			; <UNDEFINED> instruction: 0x679fbb9f
 ae8:	66120388 	ldrvs	r0, [r2], -r8, lsl #7
 aec:	6783836b 	strvs	r8, [r3, fp, ror #6]
 af0:	67676767 	strbvs	r6, [r7, -r7, ror #14]!
 af4:	67676767 	strbvs	r6, [r7, -r7, ror #14]!
 af8:	679f4c68 	ldrvs	r4, [pc, r8, ror #24]
 afc:	689f679f 	ldmvs	pc, {r0, r1, r2, r3, r4, r7, r8, r9, sl, sp, lr}	; <UNPREDICTABLE>
 b00:	2f4c862f 	svccs	0x004c862f
 b04:	0c038586 	cfstr32eq	mvfx8, [r3], {134}	; 0x86
 b08:	67836a66 	strvs	r6, [r3, r6, ror #20]
 b0c:	67678384 	strbvs	r8, [r7, -r4, lsl #7]!
 b10:	04020085 	streq	r0, [r2], #-133	; 0x85
 b14:	062e0601 	strteq	r0, [lr], -r1, lsl #12
 b18:	864e4b9f 			; <UNDEFINED> instruction: 0x864e4b9f
 b1c:	4b836783 	blmi	fe0da930 <__bss_end+0xe0d77f8>
 b20:	674c8367 	strbvs	r8, [ip, -r7, ror #6]
 b24:	67676767 	strbvs	r6, [r7, -r7, ror #14]!
 b28:	67673d08 	strbvs	r3, [r7, -r8, lsl #26]!
 b2c:	4b846767 	blmi	fe11a8d0 <__bss_end+0xe117798>
 b30:	4c836783 	stcmi	7, cr6, [r3], {131}	; 0x83
 b34:	9f50bb50 	svcls	0x0050bb50
 b38:	6b4a1803 	blvs	1286b4c <__dram_freq_start+0x1286b4c>
 b3c:	4b4c2f30 	blmi	130c804 <__dram_freq_start+0x130c804>
 b40:	4c832f4b 	stcmi	15, cr2, [r3], {75}	; 0x4b
 b44:	844c4d4b 	strbhi	r4, [ip], #-3403	; 0xd4b
 b48:	8567834d 	strbhi	r8, [r7, #-845]!	; 0x34d
 b4c:	83676783 	cmnhi	r7, #34340864	; 0x20c0000
 b50:	01040200 	mrseq	r0, R12_usr
 b54:	a0062e06 	andge	r2, r6, r6, lsl #28
 b58:	6767834d 	strbvs	r8, [r7, -sp, asr #6]!
 b5c:	04020085 	streq	r0, [r2], #-133	; 0x85
 b60:	062e0601 	strteq	r0, [lr], -r1, lsl #12
 b64:	839e0903 	orrshi	r0, lr, #49152	; 0xc000
 b68:	d7308467 	ldrle	r8, [r0, -r7, ror #8]!
 b6c:	30686ad8 	ldrdcc	r6, [r8], #-168	; 0xffffff58	; <UNPREDICTABLE>
 b70:	4b834c2f 	blmi	fe0d3c34 <__bss_end+0xe0d0afc>
 b74:	4b4d832f 	blmi	1361838 <__dram_freq_start+0x1361838>
 b78:	4d84844d 	cfstrsmi	mvf8, [r4, #308]	; 0x134
 b7c:	83856783 	orrhi	r6, r5, #34340864	; 0x20c0000
 b80:	00836767 	addeq	r6, r3, r7, ror #14
 b84:	06010402 	streq	r0, [r1], -r2, lsl #8
 b88:	4da0062e 	stcmi	6, cr0, [r0, #184]!	; 0xb8
 b8c:	85676783 	strbhi	r6, [r7, #-1923]!	; 0x783
 b90:	01040200 	mrseq	r0, R12_usr
 b94:	03062e06 	movweq	r2, #28166	; 0x6e06
 b98:	67839e09 	strvs	r9, [r3, r9, lsl #28]
 b9c:	84833084 	strhi	r3, [r3], #132	; 0x84
 ba0:	11038483 	smlabbne	r3, r3, r4, r8
 ba4:	0a036a4a 	beq	db4d4 <__dram_freq_start+0xdb4d4>
 ba8:	304b4b82 	subcc	r4, fp, r2, lsl #23
 bac:	04020067 	streq	r0, [r2], #-103	; 0x67
 bb0:	02006301 	andeq	r6, r0, #67108864	; 0x4000000
 bb4:	66060204 	strvs	r0, [r6], -r4, lsl #4
 bb8:	6a2f6b06 	bvs	bdb7d8 <__dram_freq_start+0xbdb7d8>
 bbc:	4b852f4b 	blmi	fe14c8f0 <__bss_end+0xe1497b8>
 bc0:	83834d4b 	orrhi	r4, r3, #4800	; 0x12c0
 bc4:	312f4b4d 	teqcc	pc, sp, asr #22
 bc8:	4b4d4b83 	blmi	13539dc <__dram_freq_start+0x13539dc>
 bcc:	0004024b 	andeq	r0, r4, fp, asr #4
 bd0:	Address 0x00000bd0 is out of bounds.


Disassembly of section .debug_str:

00000000 <.debug_str>:
       0:	6d617264 	sfmvs	f7, 2, [r1, #-400]!	; 0xfffffe70
       4:	00717a5f 	rsbseq	r7, r1, pc, asr sl
       8:	6d617264 	sfmvs	f7, 2, [r1, #-400]!	; 0xfffffe70
       c:	6968635f 	stmdbvs	r8!, {r0, r1, r2, r3, r4, r6, r8, r9, sp, lr}^
      10:	65645f70 	strbvs	r5, [r4, #-3952]!	; 0xf70
      14:	7469736e 	strbtvc	r7, [r9], #-878	; 0x36e
      18:	74730079 	ldrbtvc	r0, [r3], #-121	; 0x79
      1c:	79646e61 	stmdbvc	r4!, {r0, r5, r6, r9, sl, fp, sp, lr}^
      20:	6172645f 	cmnvs	r2, pc, asr r4
      24:	61705f6d 	cmnvs	r0, sp, ror #30
      28:	745f6172 	ldrbvc	r6, [pc], #-370	; 30 <__dram_freq_start+0x30>
      2c:	755f5f00 	ldrbvc	r5, [pc, #-3840]	; fffff134 <__bss_end+0xfffbffc>
      30:	74003233 	strvc	r3, [r0], #-563	; 0x233
      34:	705f706d 	subsvc	r7, pc, sp, rrx
      38:	00617261 	rsbeq	r7, r1, r1, ror #4
      3c:	6d617264 	sfmvs	f7, 2, [r1, #-400]!	; 0xfffffe70
      40:	7375625f 	cmnvc	r5, #-268435451	; 0xf0000005
      44:	6469775f 	strbtvs	r7, [r9], #-1887	; 0x75f
      48:	74006874 	strvc	r6, [r0], #-2164	; 0x874
      4c:	7450706d 	ldrbvc	r7, [r0], #-109	; 0x6d
      50:	6d740072 	ldclvs	0, cr0, [r4, #-456]!	; 0xfffffe38
      54:	72735f70 	rsbsvc	r5, r3, #448	; 0x1c0
      58:	72640063 	rsbvc	r0, r4, #99	; 0x63
      5c:	745f6d61 	ldrbvc	r6, [pc], #-3425	; 64 <__dram_freq_start+0x64>
      60:	00317270 	eorseq	r7, r1, r0, ror r2
      64:	6d617264 	sfmvs	f7, 2, [r1, #-400]!	; 0xfffffe70
      68:	7270745f 	rsbsvc	r7, r0, #1593835520	; 0x5f000000
      6c:	72640032 	rsbvc	r0, r4, #50	; 0x32
      70:	6f5f6d61 	svcvs	0x005f6d61
      74:	655f7464 	ldrbvs	r7, [pc, #-1124]	; fffffc18 <__bss_end+0xfffcae0>
      78:	7264006e 	rsbvc	r0, r4, #110	; 0x6e
      7c:	745f6d61 	ldrbvc	r6, [pc], #-3425	; 84 <__dram_freq_start+0x84>
      80:	00347270 	eorseq	r7, r4, r0, ror r2
      84:	6d617264 	sfmvs	f7, 2, [r1, #-400]!	; 0xfffffe70
      88:	7270745f 	rsbsvc	r7, r0, #1593835520	; 0x5f000000
      8c:	72640035 	rsbvc	r0, r4, #53	; 0x35
      90:	635f6d61 	cmpvs	pc, #6208	; 0x1840
      94:	47006b6c 	strmi	r6, [r0, -ip, ror #22]
      98:	4320554e 	teqmi	r0, #327155712	; 0x13800000
      9c:	362e3420 	strtcc	r3, [lr], -r0, lsr #8
      a0:	3220332e 	eorcc	r3, r0, #-1207959552	; 0xb8000000
      a4:	30323130 	eorscc	r3, r2, r0, lsr r1
      a8:	20313032 	eorscs	r3, r1, r2, lsr r0
      ac:	65727028 	ldrbvs	r7, [r2, #-40]!	; 0x28
      b0:	656c6572 	strbvs	r6, [ip, #-1394]!	; 0x572
      b4:	29657361 	stmdbcs	r5!, {r0, r5, r6, r8, r9, ip, sp, lr}^
      b8:	736e7500 	cmnvc	lr, #0
      bc:	656e6769 	strbvs	r6, [lr, #-1897]!	; 0x769
      c0:	68632064 	stmdavs	r3!, {r2, r5, r6, sp}^
      c4:	64007261 	strvs	r7, [r0], #-609	; 0x261
      c8:	5f6d6172 	svcpl	0x006d6172
      cc:	71657266 	cmnvc	r5, r6, ror #4
      d0:	746e655f 	strbtvc	r6, [lr], #-1375	; 0x55f
      d4:	632e7972 	teqvs	lr, #1867776	; 0x1c8000
      d8:	6f687300 	svcvs	0x00687300
      dc:	75207472 	strvc	r7, [r0, #-1138]!	; 0x472
      e0:	6769736e 	strbvs	r7, [r9, -lr, ror #6]!
      e4:	2064656e 	rsbcs	r6, r4, lr, ror #10
      e8:	00746e69 	rsbseq	r6, r4, r9, ror #28
      ec:	6d617264 	sfmvs	f7, 2, [r1, #-400]!	; 0xfffffe70
      f0:	6572665f 	ldrbvs	r6, [r2, #-1631]!	; 0x65f
      f4:	756a5f71 	strbvc	r5, [sl, #-3953]!	; 0xf71
      f8:	6470006d 	ldrbtvs	r0, [r0], #-109	; 0x6d
      fc:	5f6d6172 	svcpl	0x006d6172
     100:	61726170 	cmnvs	r2, r0, ror r1
     104:	6f625f00 	svcvs	0x00625f00
     108:	645f746f 	ldrbvs	r7, [pc], #-1135	; 110 <__dram_freq_start+0x110>
     10c:	5f6d6172 	svcpl	0x006d6172
     110:	61726170 	cmnvs	r2, r0, ror r1
     114:	6400745f 	strvs	r7, [r0], #-1119	; 0x45f
     118:	5f6d6172 	svcpl	0x006d6172
     11c:	6b6e6172 	blvs	1b986ec <__dram_freq_start+0x1b986ec>
     120:	6d756e5f 	ldclvs	14, cr6, [r5, #-380]!	; 0xfffffe84
     124:	6e657000 	cdpvs	0, 6, cr7, cr5, cr0, {0}
     128:	5f726574 	svcpl	0x00726574
     12c:	72646461 	rsbvc	r6, r4, #1627389952	; 0x61000000
     130:	61726400 	cmnvs	r2, r0, lsl #8
     134:	61635f6d 	cmnvs	r3, sp, ror #30
     138:	70730073 	rsbsvc	r0, r3, r3, ror r0
     13c:	6d61725f 	sfmvs	f7, 2, [r1, #-380]!	; 0xfffffe84
     140:	61726400 	cmnvs	r2, r0, lsl #8
     144:	72665f6d 	rsbvc	r5, r6, #436	; 0x1b4
     148:	6d5f7165 	ldfvse	f7, [pc, #-404]	; ffffffbc <__bss_end+0xfffce84>
     14c:	006e6961 	rsbeq	r6, lr, r1, ror #18
     150:	6d617264 	sfmvs	f7, 2, [r1, #-400]!	; 0xfffffe70
     154:	7361625f 	cmnvc	r1, #-268435451	; 0xf0000005
     158:	64646165 	strbtvs	r6, [r4], #-357	; 0x165
     15c:	5f5f0072 	svcpl	0x005f0072
     160:	5f737362 	svcpl	0x00737362
     164:	72617473 	rsbvc	r7, r1, #1929379840	; 0x73000000
     168:	6f6c0074 	svcvs	0x006c0074
     16c:	6c20676e 	stcvs	7, cr6, [r0], #-440	; 0xfffffe48
     170:	20676e6f 	rsbcs	r6, r7, pc, ror #28
     174:	69736e75 	ldmdbvs	r3!, {r0, r2, r4, r5, r6, r9, sl, fp, sp, lr}^
     178:	64656e67 	strbtvs	r6, [r5], #-3687	; 0xe67
     17c:	746e6920 	strbtvc	r6, [lr], #-2336	; 0x920
     180:	65726600 	ldrbvs	r6, [r2, #-1536]!	; 0x600
     184:	6f705f71 	svcvs	0x00705f71
     188:	00746e69 	rsbseq	r6, r4, r9, ror #28
     18c:	5f706d74 	svcpl	0x00706d74
     190:	00747364 	rsbseq	r7, r4, r4, ror #6
     194:	6e617473 	mcrvs	4, 3, r7, cr1, cr3, {3}
     198:	5f796264 	svcpl	0x00796264
     19c:	636d656d 	cmnvs	sp, #457179136	; 0x1b400000
     1a0:	64007970 	strvs	r7, [r0], #-2416	; 0x970
     1a4:	5f6d6172 	svcpl	0x006d6172
     1a8:	65707974 	ldrbvs	r7, [r0, #-2420]!	; 0x974
     1ac:	625f5f00 	subsvs	r5, pc, #0
     1b0:	655f7373 	ldrbvs	r7, [pc, #-883]	; fffffe45 <__bss_end+0xfffcd0d>
     1b4:	6400646e 	strvs	r6, [r0], #-1134	; 0x46e
     1b8:	5f6d6172 	svcpl	0x006d6172
     1bc:	775f6f69 	ldrbvc	r6, [pc, -r9, ror #30]
     1c0:	68746469 	ldmdavs	r4!, {r0, r3, r5, r6, sl, sp, lr}^
     1c4:	61726400 	cmnvs	r2, r0, lsl #8
     1c8:	75735f6d 	ldrbvc	r5, [r3, #-3949]!	; 0xf6d
     1cc:	6e657073 	mcrvs	0, 3, r7, cr5, cr3, {3}
     1d0:	6c665f64 	stclvs	15, cr5, [r6], #-400	; 0xfffffe70
     1d4:	67006761 	strvs	r6, [r0, -r1, ror #14]
     1d8:	6172645f 	cmnvs	r2, pc, asr r4
     1dc:	61705f6d 	cmnvs	r0, sp, ror #30
     1e0:	6c006172 	stfvss	f6, [r0], {114}	; 0x72
     1e4:	20676e6f 	rsbcs	r6, r7, pc, ror #28
     1e8:	676e6f6c 	strbvs	r6, [lr, -ip, ror #30]!
     1ec:	746e6920 	strbtvc	r6, [lr], #-2336	; 0x920
     1f0:	6f687300 	svcvs	0x00687300
     1f4:	69207472 	stmdbvs	r0!, {r1, r4, r5, r6, sl, ip, sp, lr}
     1f8:	6400746e 	strvs	r7, [r0], #-1134	; 0x46e
     1fc:	5f6d6172 	svcpl	0x006d6172
     200:	30727074 	rsbscc	r7, r2, r4, ror r0
     204:	61726400 	cmnvs	r2, r0, lsl #8
     208:	70745f6d 	rsbsvc	r5, r4, sp, ror #30
     20c:	2f003372 	svccs	0x00003372
     210:	656d6f68 	strbvs	r6, [sp, #-3944]!	; 0xf68
     214:	6c787a2f 	ldclvs	10, cr7, [r8], #-188	; 0xffffff44
     218:	78756e69 	ldmdavc	r5!, {r0, r3, r5, r6, r9, sl, fp, sp, lr}^
     21c:	3032412f 	eorscc	r4, r2, pc, lsr #2
     220:	342e342e 	strtcc	r3, [lr], #-1070	; 0x42e
     224:	2f57412e 	svccs	0x0057412e
     228:	6863696c 	stmdavs	r3!, {r2, r3, r5, r6, r8, fp, sp, lr}^
     22c:	6c2f6565 	cfstr32vs	mvfx6, [pc], #-404	; a0 <__dram_freq_start+0xa0>
     230:	78756e69 	ldmdavc	r5!, {r0, r3, r5, r6, r9, sl, fp, sp, lr}^
     234:	342e332d 	strtcc	r3, [lr], #-813	; 0x32d
     238:	6372612f 	cmnvs	r2, #-1073741813	; 0xc000000b
     23c:	72612f68 	rsbvc	r2, r1, #416	; 0x1a0
     240:	616d2f6d 	cmnvs	sp, sp, ror #30
     244:	732d6863 	teqvc	sp, #6488064	; 0x630000
     248:	69376e75 	ldmdbvs	r7!, {r0, r2, r4, r5, r6, r9, sl, fp, sp, lr}
     24c:	2f6d702f 	svccs	0x006d702f
     250:	6d617264 	sfmvs	f7, 2, [r1, #-400]!	; 0xfffffe70
     254:	6572662d 	ldrbvs	r6, [r2, #-1581]!	; 0x62d
     258:	72640071 	rsbvc	r0, r4, #113	; 0x71
     25c:	745f6d61 	ldrbvc	r6, [pc], #-3425	; 264 <__dram_freq_start+0x264>
     260:	696e6172 	stmdbvs	lr!, {r1, r4, r5, r6, r8, sp, lr}^
     264:	625f676e 	subsvs	r6, pc, #28835840	; 0x1b80000
     268:	006b6361 	rsbeq	r6, fp, r1, ror #6
     26c:	6d617264 	sfmvs	f7, 2, [r1, #-400]!	; 0xfffffe70
     270:	726d655f 	rsbvc	r6, sp, #398458880	; 0x17c00000
     274:	72640031 	rsbvc	r0, r4, #49	; 0x31
     278:	655f6d61 	ldrbvs	r6, [pc, #-3425]	; fffff51f <__bss_end+0xfffc3e7>
     27c:	0032726d 	eorseq	r7, r2, sp, ror #4
     280:	6d617264 	sfmvs	f7, 2, [r1, #-400]!	; 0xfffffe70
     284:	726d655f 	rsbvc	r6, sp, #398458880	; 0x17c00000
     288:	70730033 	rsbsvc	r0, r3, r3, lsr r0
     28c:	6361625f 	cmnvs	r1, #-268435451	; 0xf0000005
     290:	0070756b 	rsbseq	r7, r0, fp, ror #10
     294:	69726573 	ldmdbvs	r2!, {r0, r1, r4, r5, r6, r8, sl, sp, lr}^
     298:	705f6c61 	subsvc	r6, pc, r1, ror #24
     29c:	635f7475 	cmpvs	pc, #1962934272	; 0x75000000
     2a0:	00726168 	rsbseq	r6, r2, r8, ror #2
     2a4:	2e2e2f2e 	cdpcs	15, 2, cr2, cr14, cr14, {1}
     2a8:	6d656d2f 	stclvs	13, cr6, [r5, #-188]!	; 0xffffff44
     2ac:	7265735f 	rsbvc	r7, r5, #2080374785	; 0x7c000001
     2b0:	2e6c6169 	powcsez	f6, f4, #1.0
     2b4:	65730063 	ldrbvs	r0, [r3, #-99]!	; 0x63
     2b8:	6c616972 	stclvs	9, cr6, [r1], #-456	; 0xfffffe38
     2bc:	696e695f 	stmdbvs	lr!, {r0, r1, r2, r3, r4, r6, r8, fp, sp, lr}^
     2c0:	6f6e5f74 	svcvs	0x006e5f74
     2c4:	00756d6d 	rsbseq	r6, r5, sp, ror #26
     2c8:	69726573 	ldmdbvs	r2!, {r0, r1, r4, r5, r6, r8, sl, sp, lr}^
     2cc:	675f6c61 	ldrbvs	r6, [pc, -r1, ror #24]
     2d0:	635f7465 	cmpvs	pc, #1694498816	; 0x65000000
     2d4:	00726168 	rsbseq	r6, r2, r8, ror #2
     2d8:	69726573 	ldmdbvs	r2!, {r0, r1, r4, r5, r6, r8, sl, sp, lr}^
     2dc:	705f6c61 	subsvc	r6, pc, r1, ror #24
     2e0:	00737475 	rsbseq	r7, r3, r5, ror r4
     2e4:	33735f5f 	cmncc	r3, #380	; 0x17c
     2e8:	69740032 	ldmdbvs	r4!, {r1, r4, r5}^
     2ec:	7300656d 	movwvc	r6, #1389	; 0x56d
     2f0:	61697265 	cmnvs	r9, r5, ror #4
     2f4:	6e695f6c 	cdpvs	15, 6, cr5, cr9, cr12, {3}
     2f8:	73007469 	movwvc	r7, #1129	; 0x469
     2fc:	61697265 	cmnvs	r9, r5, ror #4
     300:	75705f6c 	ldrbvc	r5, [r0, #-3948]!	; 0xf6c
     304:	6e5f7374 	mrcvs	3, 2, r7, cr15, cr4, {3}
     308:	756d6d6f 	strbvc	r6, [sp, #-3439]!	; 0xd6f
     30c:	72657300 	rsbvc	r7, r5, #0
     310:	5f6c6169 	svcpl	0x006c6169
     314:	73746567 	cmnvc	r4, #432013312	; 0x19c00000
     318:	6d6f6e5f 	stclvs	14, cr6, [pc, #-380]!	; 1a4 <__dram_freq_start+0x1a4>
     31c:	7300756d 	movwvc	r7, #1389	; 0x56d
     320:	61697265 	cmnvs	r9, r5, ror #4
     324:	65675f6c 	strbvs	r5, [r7, #-3948]!	; 0xf6c
     328:	68635f74 	stmdavs	r3!, {r2, r4, r5, r6, r8, r9, sl, fp, ip, lr}^
     32c:	6e5f7261 	cdpvs	2, 5, cr7, cr15, cr1, {3}
     330:	756d6d6f 	strbvc	r6, [sp, #-3439]!	; 0xd6f
     334:	72657300 	rsbvc	r7, r5, #0
     338:	5f6c6169 	svcpl	0x006c6169
     33c:	73746567 	cmnvc	r4, #432013312	; 0x19c00000
     340:	63327000 	teqvs	r2, #0
     344:	70006b6c 	andvc	r6, r0, ip, ror #22
     348:	00637273 	rsbeq	r7, r3, r3, ror r2
     34c:	657a6973 	ldrbvs	r6, [sl, #-2419]!	; 0x973
     350:	6100745f 	tstvs	r0, pc, asr r4
     354:	00736772 	rsbseq	r6, r3, r2, ror r7
     358:	69676964 	stmdbvs	r7!, {r2, r5, r6, r8, fp, sp, lr}^
     35c:	74735f74 	ldrbtvc	r5, [r3], #-3956	; 0xf74
     360:	676e6972 			; <UNDEFINED> instruction: 0x676e6972
     364:	61747300 	cmnvs	r4, r0, lsl #6
     368:	64006b63 	strvs	r6, [r0], #-2915	; 0xb63
     36c:	67756265 	ldrbvs	r6, [r5, -r5, ror #4]!
     370:	5f726567 	svcpl	0x00726567
     374:	66667562 	strbtvs	r7, [r6], -r2, ror #10
     378:	5f007265 	svcpl	0x00007265
     37c:	756e675f 	strbvc	r6, [lr, #-1887]!	; 0x75f
     380:	61765f63 	cmnvs	r6, r3, ror #30
     384:	73696c5f 	cmnvc	r9, #24320	; 0x5f00
     388:	5f5f0074 	svcpl	0x005f0074
     38c:	6c5f6176 	ldfvse	f6, [pc], {118}	; 0x76
     390:	00747369 	rsbseq	r7, r4, r9, ror #6
     394:	6e697270 	mcrvs	2, 3, r7, cr9, cr0, {3}
     398:	6c615f74 	stclvs	15, cr5, [r1], #-464	; 0xfffffe30
     39c:	006e6769 	rsbeq	r6, lr, r9, ror #14
     3a0:	63727473 	cmnvs	r2, #1929379840	; 0x73000000
     3a4:	69007970 	stmdbvs	r0, {r4, r5, r6, r8, fp, ip, sp, lr}
     3a8:	00616f74 	rsbeq	r6, r1, r4, ror pc
     3ac:	63727473 	cmnvs	r2, #1929379840	; 0x73000000
     3b0:	73007461 	movwvc	r7, #1121	; 0x461
     3b4:	636e7274 	cmnvs	lr, #1073741831	; 0x40000007
     3b8:	70007970 	andvc	r7, r0, r0, ror r9
     3bc:	74736564 	ldrbtvc	r6, [r3], #-1380	; 0x564
     3c0:	72747300 	rsbsvc	r7, r4, #0
     3c4:	7461636e 	strbtvc	r6, [r1], #-878	; 0x36e
     3c8:	726f6600 	rsbvc	r6, pc, #0
     3cc:	0074616d 	rsbseq	r6, r4, sp, ror #2
     3d0:	6c727473 	cfldrdvs	mvd7, [r2], #-460	; 0xfffffe34
     3d4:	5f006e65 	svcpl	0x00006e65
     3d8:	0070615f 	rsbseq	r6, r0, pc, asr r1
     3dc:	6c6c6966 	stclvs	9, cr6, [ip], #-408	; 0xfffffe68
     3e0:	0068635f 	rsbeq	r6, r8, pc, asr r3
     3e4:	63727473 	cmnvs	r2, #1929379840	; 0x73000000
     3e8:	7500706d 	strvc	r7, [r0, #-109]	; 0x6d
     3ec:	00616f74 	rsbeq	r6, r1, r4, ror pc
     3f0:	6e727473 	mrcvs	4, 3, r7, cr2, cr3, {3}
     3f4:	00706d63 	rsbseq	r6, r0, r3, ror #26
     3f8:	6e697270 	mcrvs	2, 3, r7, cr9, cr0, {3}
     3fc:	72006b74 	andvc	r6, r0, #118784	; 0x1d000
     400:	78696461 	stmdavc	r9!, {r0, r5, r6, sl, sp, lr}^
     404:	2e2f2e00 	cdpcs	14, 2, cr2, cr15, cr0, {0}
     408:	656d2f2e 	strbvs	r2, [sp, #-3886]!	; 0xf2e
     40c:	72705f6d 	rsbsvc	r5, r0, #436	; 0x1b4
     410:	6b746e69 	blvs	1d1bdbc <__dram_freq_start+0x1d1bdbc>
     414:	7000632e 	andvc	r6, r0, lr, lsr #6
     418:	746e6972 	strbtvc	r6, [lr], #-2418	; 0x972
     41c:	6f6e5f6b 	svcvs	0x006e5f6b
     420:	00756d6d 	rsbseq	r6, r5, sp, ror #26
     424:	6167656e 	cmnvs	r7, lr, ror #10
     428:	65766974 	ldrbvs	r6, [r6, #-2420]!	; 0x974
     42c:	645f5f00 	ldrbvs	r5, [pc], #-3840	; 434 <__dram_freq_start+0x434>
     430:	00307669 	eorseq	r7, r0, r9, ror #12
     434:	51706d74 	cmnpl	r0, r4, ror sp
     438:	00746f75 	rsbseq	r6, r4, r5, ror pc
     43c:	69766964 	ldmdbvs	r6!, {r2, r5, r6, r8, fp, sp, lr}^
     440:	726f6973 	rsbvc	r6, pc, #1884160	; 0x1cc000
     444:	2e2f2e00 	cdpcs	14, 2, cr2, cr15, cr0, {0}
     448:	656d2f2e 	strbvs	r2, [sp, #-3886]!	; 0xf2e
     44c:	69645f6d 	stmdbvs	r4!, {r0, r2, r3, r5, r6, r8, r9, sl, fp, ip, lr}^
     450:	62696c76 	rsbvs	r6, r9, #30208	; 0x7600
     454:	00632e63 	rsbeq	r2, r3, r3, ror #28
     458:	69766964 	ldmdbvs	r6!, {r2, r5, r6, r8, fp, sp, lr}^
     45c:	646e6564 	strbtvs	r6, [lr], #-1380	; 0x564
     460:	77617200 	strbvc	r7, [r1, -r0, lsl #4]!
     464:	62696c5f 	rsbvs	r6, r9, #24320	; 0x5f00
     468:	6964755f 	stmdbvs	r4!, {r0, r1, r2, r3, r4, r6, r8, sl, ip, sp, lr}^
     46c:	6d740076 	ldclvs	0, cr0, [r4, #-472]!	; 0xfffffe28
     470:	76694470 			; <UNDEFINED> instruction: 0x76694470
     474:	69687300 	stmdbvs	r8!, {r8, r9, ip, sp, lr}^
     478:	49007466 	stmdbmi	r0, {r1, r2, r5, r6, sl, ip, sp, lr}
     47c:	4341435f 	movtmi	r4, #4959	; 0x135f
     480:	4d5f4548 	cfldr64mi	mvdx4, [pc, #-288]	; 368 <__dram_freq_start+0x368>
     484:	00535349 	subseq	r5, r3, r9, asr #6
     488:	65736552 	ldrbvs	r6, [r3, #-1362]!	; 0x552
     48c:	5f5f0074 	svcpl	0x005f0074
     490:	756d6363 	strbvc	r6, [sp, #-867]!	; 0x363
     494:	6268615f 	rsbvs	r6, r8, #-1073741801	; 0xc0000017
     498:	5f6b6c63 	svcpl	0x006b6c63
     49c:	65746167 	ldrbvs	r6, [r4, #-359]!	; 0x167
     4a0:	65725f30 	ldrbvs	r5, [r2, #-3888]!	; 0xf30
     4a4:	36303067 	ldrtcc	r3, [r0], -r7, rrx
     4a8:	00745f30 	rsbseq	r5, r4, r0, lsr pc
     4ac:	32733249 	rsbscc	r3, r3, #-1879048188	; 0x90000004
     4b0:	006b6c43 	rsbeq	r6, fp, r3, asr #24
     4b4:	63635f5f 	cmnvs	r3, #380	; 0x17c
     4b8:	705f756d 	subsvc	r7, pc, sp, ror #10
     4bc:	5f386c6c 	svcpl	0x00386c6c
     4c0:	5f757067 	svcpl	0x00757067
     4c4:	30676572 	rsbcc	r6, r7, r2, ror r5
     4c8:	5f303430 	svcpl	0x00303430
     4cc:	65560074 	ldrbvs	r0, [r6, #-116]	; 0x74
     4d0:	006b6c43 	rsbeq	r6, fp, r3, asr #24
     4d4:	63635f5f 	cmnvs	r3, #380	; 0x17c
     4d8:	685f756d 	ldmdavs	pc, {r0, r2, r3, r5, r6, r8, sl, ip, sp, lr}^	; <UNPREDICTABLE>
     4dc:	5f696d64 	svcpl	0x00696d64
     4e0:	5f6b6c63 	svcpl	0x006b6c63
     4e4:	30676572 	rsbcc	r6, r7, r2, ror r5
     4e8:	5f303531 	svcpl	0x00303531
     4ec:	5f5f0074 	svcpl	0x005f0074
     4f0:	554d4343 	strbpl	r4, [sp, #-835]	; 0x343
     4f4:	4248415f 	submi	r4, r8, #-1073741801	; 0xc0000017
     4f8:	5f4b4c43 	svcpl	0x004b4c43
     4fc:	45544147 	ldrbmi	r4, [r4, #-327]	; 0x147
     500:	45525f30 	ldrbmi	r5, [r2, #-3888]	; 0xf30
     504:	36303047 	ldrtcc	r3, [r0], -r7, asr #32
     508:	78540030 	ldmdavc	r4, {r4, r5}^
     50c:	536b6c43 	cmnpl	fp, #17152	; 0x4300
     510:	5f006372 	svcpl	0x00006372
     514:	4d43435f 	stclmi	3, cr4, [r3, #-380]	; 0xfffffe84
     518:	4c435f55 	mcrrmi	15, 5, r5, r3, cr5
     51c:	54554f4b 	ldrbpl	r4, [r5], #-3915	; 0xf4b
     520:	69705300 	ldmdbvs	r0!, {r8, r9, ip, lr}^
     524:	74614733 	strbtvc	r4, [r1], #-1843	; 0x733
     528:	70530065 	subsvc	r0, r3, r5, rrx
     52c:	6c433169 	stfvse	f3, [r3], {105}	; 0x69
     530:	7654006b 	ldrbvc	r0, [r4], -fp, rrx
     534:	61473165 	cmpvs	r7, r5, ror #2
     538:	53006574 	movwpl	r6, #1396	; 0x574
     53c:	636d6d64 	cmnvs	sp, #6400	; 0x1900
     540:	74614733 	strbtvc	r4, [r1], #-1843	; 0x733
     544:	5f5f0065 	svcpl	0x005f0065
     548:	554d4343 	strbpl	r4, [sp, #-835]	; 0x343
     54c:	4445465f 	strbmi	r4, [r5], #-1631	; 0x65f
     550:	5f504d45 	svcpl	0x00504d45
     554:	004b4c43 	subeq	r4, fp, r3, asr #24
     558:	6c437852 	mcrrvs	8, 5, r7, r3, cr2
     55c:	766e496b 	strbtvc	r4, [lr], -fp, ror #18
     560:	435f5f00 	cmpmi	pc, #0
     564:	5f554d43 	svcpl	0x00554d43
     568:	4d415244 	sfmmi	f5, 2, [r1, #-272]	; 0xfffffef0
     56c:	5441475f 	strbpl	r4, [r1], #-1887	; 0x75f
     570:	45525f45 	ldrbmi	r5, [r2, #-3909]	; 0xf45
     574:	30313047 	eorscc	r3, r1, r7, asr #32
     578:	76540030 			; <UNDEFINED> instruction: 0x76540030
     57c:	74614764 	strbtvc	r4, [r1], #-1892	; 0x764
     580:	5f5f0065 	svcpl	0x005f0065
     584:	756d6363 	strbvc	r6, [sp, #-867]!	; 0x363
     588:	6464615f 	strbtvs	r6, [r4], #-351	; 0x15f
     58c:	6c635f61 	stclvs	15, cr5, [r3], #-388	; 0xfffffe7c
     590:	65725f6b 	ldrbvs	r5, [r2, #-3947]!	; 0xf6b
     594:	34313067 	ldrtcc	r3, [r1], #-103	; 0x67
     598:	00745f30 	rsbseq	r5, r4, r0, lsr pc
     59c:	63635f5f 	cmnvs	r3, #380	; 0x17c
     5a0:	645f756d 	ldrbvs	r7, [pc], #-1389	; 5a8 <__dram_freq_start+0x5a8>
     5a4:	5f6d6172 	svcpl	0x006d6172
     5a8:	65746167 	ldrbvs	r6, [r4, #-359]!	; 0x167
     5ac:	6765725f 			; <UNDEFINED> instruction: 0x6765725f
     5b0:	30303130 	eorscc	r3, r0, r0, lsr r1
     5b4:	4400745f 	strmi	r7, [r0], #-1119	; 0x45f
     5b8:	43704d65 	cmnmi	r0, #6464	; 0x1940
     5bc:	50006b6c 	andpl	r6, r0, ip, ror #22
     5c0:	4474736f 	ldrbtmi	r7, [r4], #-879	; 0x36f
     5c4:	53007669 	movwpl	r7, #1641	; 0x669
     5c8:	47306970 			; <UNDEFINED> instruction: 0x47306970
     5cc:	00657461 	rsbeq	r7, r5, r1, ror #8
     5d0:	6d4d6453 	cfstrdvs	mvd6, [sp, #-332]	; 0xfffffeb4
     5d4:	6c433063 	mcrrvs	0, 6, r3, r3, cr3
     5d8:	6c43006b 	mcrrvs	0, 6, r0, r3, cr11
     5dc:	6572506b 	ldrbvs	r5, [r2, #-107]!	; 0x6b
     5e0:	00766944 	rsbseq	r6, r6, r4, asr #18
     5e4:	63616d47 	cmnvs	r1, #4544	; 0x11c0
     5e8:	006b6c43 	rsbeq	r6, fp, r3, asr #24
     5ec:	474f4356 	smlsldmi	r4, pc, r6, r3	; <UNPREDICTABLE>
     5f0:	456e6961 	strbmi	r6, [lr, #-2401]!	; 0x961
     5f4:	6863006e 	stmdavs	r3!, {r1, r2, r3, r5, r6}^
     5f8:	65676e61 	strbvs	r6, [r7, #-3681]!	; 0xe61
     5fc:	6e75725f 	mrcvs	2, 3, r7, cr5, cr15, {2}
     600:	656d6974 	strbvs	r6, [sp, #-2420]!	; 0x974
     604:	766e655f 			; <UNDEFINED> instruction: 0x766e655f
     608:	4c4c5000 	marmi	acc0, r5, ip
     60c:	6f506e49 	svcvs	0x00506e49
     610:	00726577 	rsbseq	r6, r2, r7, ror r5
     614:	704d6544 	subvc	r6, sp, r4, asr #10
     618:	65746147 	ldrbvs	r6, [r4, #-327]!	; 0x147
     61c:	435f5f00 	cmpmi	pc, #0
     620:	5f554d43 	svcpl	0x00554d43
     624:	5344564c 	movtpl	r5, #17996	; 0x464c
     628:	4b4c435f 	blmi	13113ac <__dram_freq_start+0x13113ac>
     62c:	4745525f 	smlsldmi	r5, r5, pc, r2	; <UNPREDICTABLE>
     630:	43343130 	teqmi	r4, #12
     634:	6f695000 	svcvs	0x00695000
     638:	65746147 	ldrbvs	r6, [r4, #-327]!	; 0x147
     63c:	6c6c5000 	stclvs	0, cr5, [ip], #-0
     640:	6c744334 	ldclvs	3, cr4, [r4], #-208	; 0xffffff30
     644:	435f5f00 	cmpmi	pc, #0
     648:	5f554d43 	svcpl	0x00554d43
     64c:	55444f4d 	strbpl	r4, [r4, #-3917]	; 0xf4d
     650:	5f31454c 	svcpl	0x0031454c
     654:	004b4c43 	subeq	r4, fp, r3, asr #24
     658:	454f444c 	strbmi	r4, [pc, #-1100]	; 214 <__dram_freq_start+0x214>
     65c:	6448006e 	strbvs	r0, [r8], #-110	; 0x6e
     660:	5231696d 	eorspl	r6, r1, #1785856	; 0x1b4000
     664:	6c437470 	cfstrdvs	mvd7, [r3], {112}	; 0x70
     668:	5f5f006b 	svcpl	0x005f006b
     66c:	756d6363 	strbvc	r6, [sp, #-867]!	; 0x363
     670:	6c6c705f 	stclvs	0, cr7, [ip], #-380	; 0xfffffe84
     674:	61735f36 	cmnvs	r3, r6, lsr pc
     678:	725f6174 	subsvc	r6, pc, #29
     67c:	30306765 	eorscc	r6, r0, r5, ror #14
     680:	745f3832 	ldrbvc	r3, [pc], #-2098	; 688 <__dram_freq_start+0x688>
     684:	6e614200 	cdpvs	2, 6, cr4, cr1, cr0, {0}
     688:	64695764 	strbtvs	r5, [r9], #-1892	; 0x764
     68c:	53006874 	movwpl	r6, #2164	; 0x874
     690:	61477263 	cmpvs	r7, r3, ror #4
     694:	53006574 	movwpl	r6, #1396	; 0x574
     698:	6b6c4373 	blvs	1b1146c <__dram_freq_start+0x1b1146c>
     69c:	62735500 	rsbsvs	r5, r3, #0
     6a0:	006b6c43 	rsbeq	r6, fp, r3, asr #24
     6a4:	32334341 	eorscc	r4, r3, #67108865	; 0x4000001
     6a8:	6b6c4337 	blvs	1b1138c <__dram_freq_start+0x1b1138c>
     6ac:	00637253 	rsbeq	r7, r3, r3, asr r2
     6b0:	53465644 	movtpl	r5, #26180	; 0x6644
     6b4:	72617453 	rsbvc	r7, r1, #1392508928	; 0x53000000
     6b8:	78520074 	ldmdavc	r2, {r2, r4, r5, r6}^
     6bc:	43796c44 	cmnmi	r9, #17408	; 0x4400
     6c0:	6e696168 	powvsez	f6, f1, #0.0
     6c4:	635f5f00 	cmpvs	pc, #0
     6c8:	5f756d63 	svcpl	0x00756d63
     6cc:	6364636c 	cmnvs	r4, #-1342177279	; 0xb0000001
     6d0:	635f3068 	cmpvs	pc, #104	; 0x68
     6d4:	745f6b6c 	ldrbvc	r6, [pc], #-2924	; 6dc <__dram_freq_start+0x6dc>
     6d8:	64634c00 	strbtvs	r4, [r3], #-3072	; 0xc00
     6dc:	31684330 	cmncc	r8, r0, lsr r3
     6e0:	006b6c43 	rsbeq	r6, fp, r3, asr #24
     6e4:	61746150 	cmnvs	r4, r0, asr r1
     6e8:	006b6c43 	rsbeq	r6, fp, r3, asr #24
     6ec:	43435f5f 	movtmi	r5, #16223	; 0x3f5f
     6f0:	435f554d 	cmpmi	pc, #322961408	; 0x13400000
     6f4:	53494953 	movtpl	r4, #39251	; 0x9953
     6f8:	4c435f50 	mcrrmi	15, 5, r5, r3, cr0
     6fc:	45525f4b 	ldrbmi	r5, [r2, #-3915]	; 0xf4b
     700:	32313047 	eorscc	r3, r1, #71	; 0x47
     704:	5f5f0030 	svcpl	0x005f0030
     708:	756d6363 	strbvc	r6, [sp, #-867]!	; 0x363
     70c:	75626d5f 	strbvc	r6, [r2, #-3423]!	; 0xd5f
     710:	6c635f73 	stclvs	15, cr5, [r3], #-460	; 0xfffffe34
     714:	65725f6b 	ldrbvs	r5, [r2, #-3947]!	; 0xf6b
     718:	35313067 	ldrcc	r3, [r1, #-103]!	; 0x67
     71c:	00745f63 	rsbseq	r5, r4, r3, ror #30
     720:	6b636162 	blvs	18d8cb0 <__dram_freq_start+0x18d8cb0>
     724:	705f7075 	subsvc	r7, pc, r5, ror r0	; <UNPREDICTABLE>
     728:	63667265 	cmnvs	r6, #1342177286	; 0x50000006
     72c:	746e756f 	strbtvc	r7, [lr], #-1391	; 0x56f
     730:	5f007265 	svcpl	0x00007265
     734:	4d43435f 	stclmi	3, cr4, [r3, #-380]	; 0xfffffe84
     738:	44485f55 	strbmi	r5, [r8], #-3925	; 0xf55
     73c:	435f494d 	cmpmi	pc, #1261568	; 0x134000
     740:	525f4b4c 	subspl	r4, pc, #77824	; 0x13000
     744:	31304745 	teqcc	r0, r5, asr #14
     748:	69003035 	stmdbvs	r0, {r0, r2, r4, r5, ip, sp}
     74c:	5f74696e 	svcpl	0x0074696e
     750:	66726570 			; <UNDEFINED> instruction: 0x66726570
     754:	6e756f63 	cdpvs	15, 7, cr6, cr5, cr3, {3}
     758:	73726574 	cmnvc	r2, #486539264	; 0x1d000000
     75c:	73797300 	cmnvc	r9, #0
     760:	00747372 	rsbseq	r7, r4, r2, ror r3
     764:	30627041 	rsbcc	r7, r2, r1, asr #32
     768:	65746147 	ldrbvs	r6, [r4, #-327]!	; 0x147
     76c:	73657200 	cmnvc	r5, #0
     770:	65767265 	ldrbvs	r7, [r6, #-613]!	; 0x265
     774:	53003864 	movwpl	r3, #2148	; 0x864
     778:	43636570 	cmnmi	r3, #469762048	; 0x1c000000
     77c:	53316b6c 	teqpl	r1, #110592	; 0x1b000
     780:	48006372 	stmdami	r0, {r1, r4, r5, r6, r8, r9, sp, lr}
     784:	31696d64 	cmncc	r9, r4, ror #26
     788:	00747352 	rsbseq	r7, r4, r2, asr r3
     78c:	74726155 	ldrbtvc	r6, [r2], #-341	; 0x155
     790:	74614735 	strbtvc	r4, [r1], #-1845	; 0x735
     794:	64480065 	strbvs	r0, [r8], #-101	; 0x65
     798:	5331696d 	teqpl	r1, #1785856	; 0x1b4000
     79c:	6c437768 	mcrrvs	7, 6, r7, r3, cr8
     7a0:	5f5f006b 	svcpl	0x005f006b
     7a4:	554d4343 	strbpl	r4, [sp, #-835]	; 0x343
     7a8:	4c4c505f 	mcrrmi	0, 5, r5, ip, cr15
     7ac:	44445f35 	strbmi	r5, [r4], #-3893	; 0xf35
     7b0:	45525f52 	ldrbmi	r5, [r2, #-3922]	; 0xf52
     7b4:	32303047 	eorscc	r3, r0, #71	; 0x47
     7b8:	6f480030 	svcvs	0x00480030
     7bc:	74436373 	strbvc	r6, [r3], #-883	; 0x373
     7c0:	5f5f006c 	svcpl	0x005f006c
     7c4:	554d4343 	strbpl	r4, [sp, #-835]	; 0x343
     7c8:	4c4c505f 	mcrrmi	0, 5, r5, ip, cr15
     7cc:	45565f34 	ldrbmi	r5, [r6, #-3892]	; 0xf34
     7d0:	4745525f 	smlsldmi	r5, r5, pc, r2	; <UNPREDICTABLE>
     7d4:	38313030 	ldmdacc	r1!, {r4, r5, ip, sp}
     7d8:	63616600 	cmnvs	r1, #0
     7dc:	5f726f74 	svcpl	0x00726f74
     7e0:	484f0070 	stmdami	pc, {r4, r5, r6}^	; <UNPREDICTABLE>
     7e4:	53314943 	teqpl	r1, #1097728	; 0x10c000
     7e8:	43636570 	cmnmi	r3, #469762048	; 0x1c000000
     7ec:	61476b6c 	cmpvs	r7, ip, ror #22
     7f0:	53006574 	movwpl	r6, #1396	; 0x574
     7f4:	43336970 	teqmi	r3, #1835008	; 0x1c0000
     7f8:	5f006b6c 	svcpl	0x00006b6c
     7fc:	6d63635f 	stclvs	3, cr6, [r3, #-380]!	; 0xfffffe84
     800:	70615f75 	rsbvc	r5, r1, r5, ror pc
     804:	6c633162 	stfvse	f3, [r3], #-392	; 0xfffffe78
     808:	61725f6b 	cmnvs	r2, fp, ror #30
     80c:	5f6f6974 	svcpl	0x006f6974
     810:	30676572 	rsbcc	r6, r7, r2, ror r5
     814:	5f383530 	svcpl	0x00383530
     818:	5f5f0074 	svcpl	0x005f0074
     81c:	756d6363 	strbvc	r6, [sp, #-867]!	; 0x363
     820:	6d64685f 	stclvs	8, cr6, [r4, #-380]!	; 0xfffffe84
     824:	725f3169 	subsvc	r3, pc, #1073741850	; 0x4000001a
     828:	635f7470 	cmpvs	pc, #1879048192	; 0x70000000
     82c:	725f6b6c 	subsvc	r6, pc, #110592	; 0x1b000
     830:	31306765 	teqcc	r0, r5, ror #14
     834:	745f6337 	ldrbvc	r6, [pc], #-823	; 83c <__dram_freq_start+0x83c>
     838:	79685000 	stmdbvc	r8!, {ip, lr}^
     83c:	63657053 	cmnvs	r5, #83	; 0x53
     840:	476b6c43 	strbmi	r6, [fp, -r3, asr #24]!
     844:	00657461 	rsbeq	r7, r5, r1, ror #8
     848:	31736949 	cmncc	r3, r9, asr #18
     84c:	65746147 	ldrbvs	r6, [r4, #-327]!	; 0x147
     850:	635f5f00 	cmpvs	pc, #0
     854:	5f756d63 	svcpl	0x00756d63
     858:	5f627375 	svcpl	0x00627375
     85c:	5f6b6c63 	svcpl	0x006b6c63
     860:	30676572 	rsbcc	r6, r7, r2, ror r5
     864:	5f636330 	svcpl	0x00636330
     868:	5f5f0074 	svcpl	0x005f0074
     86c:	554d4343 	strbpl	r4, [sp, #-835]	; 0x343
     870:	4d44485f 	stclmi	8, cr4, [r4, #-380]	; 0xfffffe84
     874:	525f3149 	subspl	r3, pc, #1073741842	; 0x40000012
     878:	435f5450 	cmpmi	pc, #1342177280	; 0x50000000
     87c:	525f4b4c 	subspl	r4, pc, #77824	; 0x13000
     880:	31304745 	teqcc	r0, r5, asr #14
     884:	46004337 			; <UNDEFINED> instruction: 0x46004337
     888:	6f746361 	svcvs	0x00746361
     88c:	46004b72 			; <UNDEFINED> instruction: 0x46004b72
     890:	6f746361 	svcvs	0x00746361
     894:	46004d72 			; <UNDEFINED> instruction: 0x46004d72
     898:	6f746361 	svcvs	0x00746361
     89c:	46004e72 			; <UNDEFINED> instruction: 0x46004e72
     8a0:	6f746361 	svcvs	0x00746361
     8a4:	5f005072 	svcpl	0x00005072
     8a8:	4d43435f 	stclmi	3, cr4, [r3, #-380]	; 0xfffffe84
     8ac:	4c505f55 	mrrcmi	15, 5, r5, r0, cr5
     8b0:	535f364c 	cmppl	pc, #79691776	; 0x4c00000
     8b4:	5f415441 	svcpl	0x00415441
     8b8:	30474552 	subcc	r4, r7, r2, asr r5
     8bc:	00383230 	eorseq	r3, r8, r0, lsr r2
     8c0:	74726155 	ldrbtvc	r6, [r2], #-341	; 0x155
     8c4:	74614732 	strbtvc	r4, [r1], #-1842	; 0x732
     8c8:	734d0065 	movtvc	r0, #53349	; 0xd065
     8cc:	006b6c43 	rsbeq	r6, fp, r3, asr #24
     8d0:	63635f5f 	cmnvs	r3, #380	; 0x17c
     8d4:	6d5f756d 	cfldr64vs	mvdx7, [pc, #-436]	; 728 <__dram_freq_start+0x728>
     8d8:	6c75646f 	cfldrdvs	mvd6, [r5], #-444	; 0xfffffe44
     8dc:	635f3165 	cmpvs	pc, #1073741849	; 0x40000019
     8e0:	745f6b6c 	ldrbvc	r6, [pc], #-2924	; 8e8 <__dram_freq_start+0x8e8>
     8e4:	39634100 	stmdbcc	r3!, {r8, lr}^
     8e8:	74614737 	strbtvc	r4, [r1], #-1847	; 0x737
     8ec:	65440065 	strbvs	r0, [r4, #-101]	; 0x65
     8f0:	43316542 	teqmi	r1, #276824064	; 0x10800000
     8f4:	5f006b6c 	svcpl	0x00006b6c
     8f8:	6d63635f 	stclvs	3, cr6, [r3, #-380]!	; 0xfffffe84
     8fc:	736f5f75 	cmnvc	pc, #468	; 0x1d4
     900:	6d343263 	lfmvs	f3, 4, [r4, #-396]!	; 0xfffffe74
     904:	6765725f 			; <UNDEFINED> instruction: 0x6765725f
     908:	30353030 	eorscc	r3, r5, r0, lsr r0
     90c:	5300745f 	movwpl	r7, #1119	; 0x45f
     910:	636d4d64 	cmnvs	sp, #6400	; 0x1900
     914:	6b6c4332 	blvs	1b115e4 <__dram_freq_start+0x1b115e4>
     918:	74615300 	strbtvc	r5, [r1], #-768	; 0x300
     91c:	74614761 	strbtvc	r4, [r1], #-1889	; 0x761
     920:	5f440065 	svcpl	0x00440065
     924:	48434143 	stmdami	r3, {r0, r1, r6, r8, lr}^
     928:	494d5f45 	stmdbmi	sp, {r0, r2, r6, r8, r9, sl, fp, ip, lr}^
     92c:	4c005353 	stcmi	3, cr5, [r0], {83}	; 0x53
     930:	47306463 	ldrmi	r6, [r0, -r3, ror #8]!
     934:	00657461 	rsbeq	r7, r5, r1, ror #8
     938:	6e756f63 	cdpvs	15, 7, cr6, cr5, cr3, {3}
     93c:	5f726574 	svcpl	0x00726574
     940:	65707974 	ldrbvs	r7, [r0, #-2420]!	; 0x974
     944:	5400655f 	strpl	r6, [r0], #-1375	; 0x55f
     948:	47336977 			; <UNDEFINED> instruction: 0x47336977
     94c:	00657461 	rsbeq	r7, r5, r1, ror #8
     950:	366c6c50 			; <UNDEFINED> instruction: 0x366c6c50
     954:	006c7443 	rsbeq	r7, ip, r3, asr #8
     958:	6b636162 	blvs	18d8ee8 <__dram_freq_start+0x18d8ee8>
     95c:	705f7075 	subsvc	r7, pc, r5, ror r0	; <UNPREDICTABLE>
     960:	5f667265 	svcpl	0x00667265
     964:	6e756f63 	cdpvs	15, 7, cr6, cr5, cr3, {3}
     968:	5f726574 	svcpl	0x00726574
     96c:	62616e65 	rsbvs	r6, r1, #1616	; 0x650
     970:	725f656c 	subsvc	r6, pc, #452984832	; 0x1b000000
     974:	55006765 	strpl	r6, [r0, #-1893]	; 0x765
     978:	47306273 			; <UNDEFINED> instruction: 0x47306273
     97c:	00657461 	rsbeq	r7, r5, r1, ror #8
     980:	74736572 	ldrbtvc	r6, [r3], #-1394	; 0x572
     984:	5f65726f 	svcpl	0x0065726f
     988:	66726570 			; <UNDEFINED> instruction: 0x66726570
     98c:	6e756f63 	cdpvs	15, 7, cr6, cr5, cr3, {3}
     990:	00726574 	rsbseq	r6, r2, r4, ror r5
     994:	63635f5f 	cmnvs	r3, #380	; 0x17c
     998:	705f756d 	subsvc	r7, pc, sp, ror #10
     99c:	5f356c6c 	svcpl	0x00356c6c
     9a0:	5f726464 	svcpl	0x00726464
     9a4:	30676572 	rsbcc	r6, r7, r2, ror r5
     9a8:	5f303230 	svcpl	0x00303230
     9ac:	65440074 	strbvs	r0, [r4, #-116]	; 0x74
     9b0:	47316542 	ldrmi	r6, [r1, -r2, asr #10]!
     9b4:	00657461 	rsbeq	r7, r5, r1, ror #8
     9b8:	4c545f44 	mrrcmi	15, 4, r5, r4, cr4
     9bc:	494d5f42 	stmdbmi	sp, {r1, r6, r8, r9, sl, fp, ip, lr}^
     9c0:	48005353 	stmdami	r0, {r0, r1, r4, r6, r8, r9, ip, lr}
     9c4:	31696d64 	cmncc	r9, r4, ror #26
     9c8:	006c7443 	rsbeq	r7, ip, r3, asr #8
     9cc:	63635f5f 	cmnvs	r3, #380	; 0x17c
     9d0:	705f756d 	subsvc	r7, pc, sp, ror #10
     9d4:	5f326c6c 	svcpl	0x00326c6c
     9d8:	69647561 	stmdbvs	r4!, {r0, r5, r6, r8, sl, ip, sp, lr}^
     9dc:	65725f6f 	ldrbvs	r5, [r2, #-3951]!	; 0xf6f
     9e0:	30303067 	eorscc	r3, r0, r7, rrx
     9e4:	00745f38 	rsbseq	r5, r4, r8, lsr pc
     9e8:	43435f5f 	movtmi	r5, #16223	; 0x3f5f
     9ec:	415f554d 	cmpmi	pc, sp, asr #10
     9f0:	435f5356 	cmpmi	pc, #1476395009	; 0x58000001
     9f4:	525f4b4c 	subspl	r4, pc, #77824	; 0x13000
     9f8:	31304745 	teqcc	r0, r5, asr #14
     9fc:	4c003434 	cfstrsmi	mvf3, [r0], {52}	; 0x34
     a00:	43736476 	cmnmi	r3, #1979711488	; 0x76000000
     a04:	50006b6c 	andpl	r6, r0, ip, ror #22
     a08:	69444c4c 	stmdbvs	r4, {r2, r3, r6, sl, fp, lr}^
     a0c:	5f005076 	svcpl	0x00005076
     a10:	6d63635f 	stclvs	3, cr6, [r3, #-380]!	; 0xfffffe84
     a14:	64685f75 	strbtvs	r5, [r8], #-3957	; 0xf75
     a18:	5f31696d 	svcpl	0x0031696d
     a1c:	5f776873 	svcpl	0x00776873
     a20:	5f6b6c63 	svcpl	0x006b6c63
     a24:	30676572 	rsbcc	r6, r7, r2, ror r5
     a28:	5f383731 	svcpl	0x00383731
     a2c:	77540074 			; <UNDEFINED> instruction: 0x77540074
     a30:	61473069 	cmpvs	r7, r9, rrx
     a34:	41006574 	tstmi	r0, r4, ror r5
     a38:	43373963 	teqmi	r7, #1622016	; 0x18c000
     a3c:	4f006b6c 	svcmi	0x00006b6c
     a40:	31696368 	cmncc	r9, r8, ror #6
     a44:	65746147 	ldrbvs	r6, [r4, #-327]!	; 0x147
     a48:	31724900 	cmncc	r2, r0, lsl #18
     a4c:	65746147 	ldrbvs	r6, [r4, #-327]!	; 0x147
     a50:	635f5f00 	cmpvs	pc, #0
     a54:	5f756d63 	svcpl	0x00756d63
     a58:	69697363 	stmdbvs	r9!, {r0, r1, r5, r6, r8, r9, ip, sp, lr}^
     a5c:	635f7073 	cmpvs	pc, #115	; 0x73
     a60:	725f6b6c 	subsvc	r6, pc, #110592	; 0x1b000
     a64:	31306765 	teqcc	r0, r5, ror #14
     a68:	745f3032 	ldrbvc	r3, [pc], #-50	; a70 <__dram_freq_start+0xa70>
     a6c:	435f5f00 	cmpmi	pc, #0
     a70:	5f554d43 	svcpl	0x00554d43
     a74:	43424841 	movtmi	r4, #10305	; 0x2841
     a78:	475f4b4c 	ldrbmi	r4, [pc, -ip, asr #22]
     a7c:	31455441 	cmpcc	r5, r1, asr #8
     a80:	4745525f 	smlsldmi	r5, r5, pc, r2	; <UNPREDICTABLE>
     a84:	34363030 	ldrtcc	r3, [r6], #-48	; 0x30
     a88:	69705300 	ldmdbvs	r0!, {r8, r9, ip, lr}^
     a8c:	74614731 	strbtvc	r4, [r1], #-1841	; 0x731
     a90:	61740065 	cmnvs	r4, r5, rrx
     a94:	74656772 	strbtvc	r6, [r5], #-1906	; 0x772
     a98:	635f5f00 	cmpvs	pc, #0
     a9c:	5f756d63 	svcpl	0x00756d63
     aa0:	61746173 	cmnvs	r4, r3, ror r1
     aa4:	6b6c635f 	blvs	1b19828 <__dram_freq_start+0x1b19828>
     aa8:	6765725f 			; <UNDEFINED> instruction: 0x6765725f
     aac:	38633030 	stmdacc	r3!, {r4, r5, ip, sp}^
     ab0:	5000745f 	andpl	r7, r0, pc, asr r4
     ab4:	47303273 			; <UNDEFINED> instruction: 0x47303273
     ab8:	00657461 	rsbeq	r7, r5, r1, ror #8
     abc:	74736942 	ldrbtvc	r6, [r3], #-2370	; 0x942
     ac0:	65746147 	ldrbvs	r6, [r4, #-327]!	; 0x147
     ac4:	6e614300 	cdpvs	3, 6, cr4, cr1, cr0, {0}
     ac8:	65746147 	ldrbvs	r6, [r4, #-327]!	; 0x147
     acc:	635f5f00 	cmpvs	pc, #0
     ad0:	5f756d63 	svcpl	0x00756d63
     ad4:	5f697363 	svcpl	0x00697363
     ad8:	5f6b6c63 	svcpl	0x006b6c63
     adc:	48410074 	stmdami	r1, {r2, r4, r5, r6}^
     ae0:	6b6c4342 	blvs	1b117f0 <__dram_freq_start+0x1b117f0>
     ae4:	00766944 	rsbseq	r6, r6, r4, asr #18
     ae8:	6d6d6453 	cfstrdvs	mvd6, [sp, #-332]!	; 0xfffffeb4
     aec:	61473063 	cmpvs	r7, r3, rrx
     af0:	43006574 	movwmi	r6, #1396	; 0x574
     af4:	754f6b6c 	strbvc	r6, [pc, #-2924]	; ffffff90 <__bss_end+0xfffce58>
     af8:	74757074 	ldrbtvc	r7, [r5], #-116	; 0x74
     afc:	5f006e45 	svcpl	0x00006e45
     b00:	6d63635f 	stclvs	3, cr6, [r3, #-380]!	; 0xfffffe84
     b04:	68615f75 	stmdavs	r1!, {r0, r2, r4, r5, r6, r8, r9, sl, fp, ip, lr}^
     b08:	6b6c6362 	blvs	1b19898 <__dram_freq_start+0x1b19898>
     b0c:	7461675f 	strbtvc	r6, [r1], #-1887	; 0x75f
     b10:	725f3165 	subsvc	r3, pc, #1073741849	; 0x40000019
     b14:	30306765 	eorscc	r6, r0, r5, ror #14
     b18:	745f3436 	ldrbvc	r3, [pc], #-1078	; b20 <__dram_freq_start+0xb20>
     b1c:	635f5f00 	cmpvs	pc, #0
     b20:	5f756d63 	svcpl	0x00756d63
     b24:	696c616d 	stmdbvs	ip!, {r0, r2, r3, r5, r6, r8, sp, lr}^
     b28:	5f303034 	svcpl	0x00303034
     b2c:	5f6b6c63 	svcpl	0x006b6c63
     b30:	30676572 	rsbcc	r6, r7, r2, ror r5
     b34:	5f343531 	svcpl	0x00343531
     b38:	73430074 	movtvc	r0, #12404	; 0x3074
     b3c:	6c433069 	mcrrvs	0, 6, r3, r3, cr9
     b40:	7249006b 	subvc	r0, r9, #107	; 0x6b
     b44:	6b6c4331 	blvs	1b11810 <__dram_freq_start+0x1b11810>
     b48:	67657200 	strbvs	r7, [r5, -r0, lsl #4]!
     b4c:	6c61765f 	stclvs	6, cr7, [r1], #-380	; 0xfffffe84
     b50:	62684100 	rsbvs	r4, r8, #0
     b54:	65746147 	ldrbvs	r6, [r4, #-327]!	; 0x147
     b58:	68410030 	stmdavs	r1, {r4, r5}^
     b5c:	74614762 	strbtvc	r4, [r1], #-1890	; 0x762
     b60:	41003165 	tstmi	r0, r5, ror #2
     b64:	6f696475 	svcvs	0x00696475
     b68:	52616d44 	rsbpl	r6, r1, #4352	; 0x1100
     b6c:	5f007473 	svcpl	0x00007473
     b70:	4d43435f 	stclmi	3, cr4, [r3, #-380]	; 0xfffffe84
     b74:	53435f55 	movtpl	r5, #16213	; 0x3f55
     b78:	4c435f49 	mcrrmi	15, 4, r5, r3, cr9
     b7c:	6564004b 	strbvs	r0, [r4, #-75]!	; 0x4b
     b80:	5f79616c 	svcpl	0x0079616c
     b84:	5f00736d 	svcpl	0x0000736d
     b88:	6d63635f 	stclvs	3, cr6, [r3, #-380]!	; 0xfffffe84
     b8c:	656b5f75 	strbvs	r5, [fp, #-3957]!	; 0xf75
     b90:	64617079 	strbtvs	r7, [r1], #-121	; 0x79
     b94:	6b6c635f 	blvs	1b19918 <__dram_freq_start+0x1b19918>
     b98:	6765725f 			; <UNDEFINED> instruction: 0x6765725f
     b9c:	34633030 	strbtcc	r3, [r3], #-48	; 0x30
     ba0:	5f00745f 	svcpl	0x0000745f
     ba4:	4d43435f 	stclmi	3, cr4, [r3, #-380]	; 0xfffffe84
     ba8:	424d5f55 	submi	r5, sp, #340	; 0x154
     bac:	435f5355 	cmpmi	pc, #1409286145	; 0x54000001
     bb0:	525f4b4c 	subspl	r4, pc, #77824	; 0x13000
     bb4:	31304745 	teqcc	r0, r5, asr #14
     bb8:	63004335 	movwvs	r4, #821	; 0x335
     bbc:	665f7570 			; <UNDEFINED> instruction: 0x665f7570
     bc0:	00716572 	rsbseq	r6, r1, r2, ror r5
     bc4:	706d6144 	rsbvc	r6, sp, r4, asr #2
     bc8:	74636146 	strbtvc	r6, [r3], #-326	; 0x146
     bcc:	4b00726f 	blmi	1d590 <__dram_freq_start+0x1d590>
     bd0:	61707965 	cmnvs	r0, r5, ror #18
     bd4:	74614764 	strbtvc	r4, [r1], #-1892	; 0x764
     bd8:	70530065 	subsvc	r0, r3, r5, rrx
     bdc:	61473269 	cmpvs	r7, r9, ror #4
     be0:	65006574 	strvs	r6, [r0, #-1396]	; 0x574
     be4:	6c62616e 	stfvse	f6, [r2], #-440	; 0xfffffe48
     be8:	69645f65 	stmdbvs	r4!, {r0, r2, r5, r6, r8, r9, sl, fp, ip, lr}^
     bec:	65646976 	strbvs	r6, [r4, #-2422]!	; 0x976
     bf0:	65440072 	strbvs	r0, [r4, #-114]	; 0x72
     bf4:	43306546 	teqmi	r0, #293601280	; 0x11800000
     bf8:	75006b6c 	strvc	r6, [r0, #-2924]	; 0xb6c
     bfc:	6e635f73 	mcrvs	15, 3, r5, cr3, cr3, {3}
     c00:	76540074 			; <UNDEFINED> instruction: 0x76540074
     c04:	61473065 	cmpvs	r7, r5, rrx
     c08:	54006574 	strpl	r6, [r0], #-1396	; 0x574
     c0c:	6b6c4378 	blvs	1b119f4 <__dram_freq_start+0x1b119f4>
     c10:	00766e49 	rsbseq	r6, r6, r9, asr #28
     c14:	63635f5f 	cmnvs	r3, #380	; 0x17c
     c18:	705f756d 	subsvc	r7, pc, sp, ror #10
     c1c:	5f316c6c 	svcpl	0x00316c6c
     c20:	65726f63 	ldrbvs	r6, [r2, #-3939]!	; 0xf63
     c24:	6765725f 			; <UNDEFINED> instruction: 0x6765725f
     c28:	30303030 	eorscc	r3, r0, r0, lsr r0
     c2c:	5300745f 	movwpl	r7, #1119	; 0x45f
     c30:	43636570 	cmnmi	r3, #469762048	; 0x1c000000
     c34:	47326b6c 	ldrmi	r6, [r2, -ip, ror #22]!
     c38:	00657461 	rsbeq	r7, r5, r1, ror #8
     c3c:	43307249 	teqmi	r0, #-1879048188	; 0x90000004
     c40:	41006b6c 	tstmi	r0, ip, ror #22
     c44:	43316270 	teqmi	r1, #7
     c48:	69446b6c 	stmdbvs	r4, {r2, r3, r5, r6, r8, r9, fp, sp, lr}^
     c4c:	5f5f0076 	svcpl	0x005f0076
     c50:	554d4343 	strbpl	r4, [sp, #-835]	; 0x343
     c54:	4d44485f 	stclmi	8, cr4, [r4, #-380]	; 0xfffffe84
     c58:	525f3149 	subspl	r3, pc, #1073741842	; 0x40000012
     c5c:	525f5453 	subspl	r5, pc, #1392508928	; 0x53000000
     c60:	31304745 	teqcc	r0, r5, asr #14
     c64:	41003037 	tstmi	r0, r7, lsr r0
     c68:	6c436563 	cfstr64vs	mvdx6, [r3], {99}	; 0x63
     c6c:	5f5f006b 	svcpl	0x005f006b
     c70:	554d4343 	strbpl	r4, [sp, #-835]	; 0x343
     c74:	4c414d5f 	mcrrmi	13, 5, r4, r1, cr15
     c78:	30303449 	eorscc	r3, r0, r9, asr #8
     c7c:	4b4c435f 	blmi	1311a00 <__dram_freq_start+0x1311a00>
     c80:	4745525f 	smlsldmi	r5, r5, pc, r2	; <UNPREDICTABLE>
     c84:	34353130 	ldrtcc	r3, [r5], #-304	; 0x130
     c88:	73657200 	cmnvc	r5, #0
     c8c:	65767265 	ldrbvs	r7, [r6, #-613]!	; 0x265
     c90:	00303164 	eorseq	r3, r0, r4, ror #2
     c94:	65736572 	ldrbvs	r6, [r3, #-1394]!	; 0x572
     c98:	64657672 	strbtvs	r7, [r5], #-1650	; 0x672
     c9c:	72003131 	andvc	r3, r0, #1073741836	; 0x4000000c
     ca0:	72657365 	rsbvc	r7, r5, #-1811939327	; 0x94000001
     ca4:	31646576 	smccc	18006	; 0x4656
     ca8:	6d470032 	stclvs	0, cr0, [r7, #-200]	; 0xffffff38
     cac:	61476361 	cmpvs	r7, r1, ror #6
     cb0:	5f006574 	svcpl	0x00006574
     cb4:	4d43435f 	stclmi	3, cr4, [r3, #-380]	; 0xfffffe84
     cb8:	53555f55 	cmppl	r5, #340	; 0x154
     cbc:	4c435f42 	mcrrmi	15, 4, r5, r3, cr2
     cc0:	45525f4b 	ldrbmi	r5, [r2, #-3915]	; 0xf4b
     cc4:	43303047 	teqmi	r0, #71	; 0x47
     cc8:	65720043 	ldrbvs	r0, [r2, #-67]!	; 0x43
     ccc:	76726573 			; <UNDEFINED> instruction: 0x76726573
     cd0:	35316465 	ldrcc	r6, [r1, #-1125]!	; 0x465
     cd4:	6c6c5000 	stclvs	0, cr5, [ip], #-0
     cd8:	6c744331 	ldclvs	3, cr4, [r4], #-196	; 0xffffff3c
     cdc:	63616200 	cmnvs	r1, #0
     ce0:	5f70756b 	svcpl	0x0070756b
     ce4:	66726570 			; <UNDEFINED> instruction: 0x66726570
     ce8:	756f635f 	strbvc	r6, [pc, #-863]!	; 991 <__dram_freq_start+0x991>
     cec:	7265746e 	rsbvc	r7, r5, #1845493760	; 0x6e000000
     cf0:	7274635f 	rsbsvc	r6, r4, #2080374785	; 0x7c000001
     cf4:	65725f6c 	ldrbvs	r5, [r2, #-3948]!	; 0xf6c
     cf8:	32490067 	subcc	r0, r9, #103	; 0x67
     cfc:	6c433173 	stfvse	f3, [r3], {115}	; 0x73
     d00:	6953006b 	ldmdbvs	r3, {r0, r1, r3, r5, r6}^
     d04:	45616d67 	strbmi	r6, [r1, #-3431]!	; 0xd67
     d08:	5f5f006e 	svcpl	0x005f006e
     d0c:	554d4343 	strbpl	r4, [sp, #-835]	; 0x343
     d10:	5441535f 	strbpl	r5, [r1], #-863	; 0x35f
     d14:	4c435f41 	mcrrmi	15, 4, r5, r3, cr1
     d18:	45525f4b 	ldrbmi	r5, [r2, #-3915]	; 0xf4b
     d1c:	43303047 	teqmi	r0, #71	; 0x47
     d20:	70530038 	subsvc	r0, r3, r8, lsr r0
     d24:	47666964 	strbmi	r6, [r6, -r4, ror #18]!
     d28:	00657461 	rsbeq	r7, r5, r1, ror #8
     d2c:	69636845 	stmdbvs	r3!, {r0, r2, r6, fp, sp, lr}^
     d30:	74614731 	strbtvc	r4, [r1], #-1841	; 0x731
     d34:	72680065 	rsbvc	r0, r8, #101	; 0x65
     d38:	48007473 	stmdami	r0, {r0, r1, r4, r5, r6, sl, ip, sp, lr}
     d3c:	31696d64 	cmncc	r9, r4, ror #26
     d40:	65746147 	ldrbvs	r6, [r4, #-327]!	; 0x147
     d44:	47735400 	ldrbmi	r5, [r3, -r0, lsl #8]!
     d48:	00657461 	rsbeq	r7, r5, r1, ror #8
     d4c:	50627355 	rsbpl	r7, r2, r5, asr r3
     d50:	52327968 	eorspl	r7, r2, #1703936	; 0x1a0000
     d54:	5f007473 	svcpl	0x00007473
     d58:	6d63635f 	stclvs	3, cr6, [r3, #-380]!	; 0xfffffe84
     d5c:	64685f75 	strbtvs	r5, [r8], #-3957	; 0xf75
     d60:	5f31696d 	svcpl	0x0031696d
     d64:	5f6c7463 	svcpl	0x006c7463
     d68:	30676572 	rsbcc	r6, r7, r2, ror r5
     d6c:	5f343731 	svcpl	0x00343731
     d70:	70530074 	subsvc	r0, r3, r4, ror r0
     d74:	6c433069 	mcrrvs	0, 6, r3, r3, cr9
     d78:	766f006b 	strbtvc	r0, [pc], -fp, rrx
     d7c:	65687265 	strbvs	r7, [r8, #-613]!	; 0x265
     d80:	5f006461 	svcpl	0x00006461
     d84:	4d43435f 	stclmi	3, cr4, [r3, #-380]	; 0xfffffe84
     d88:	4f4d5f55 	svcmi	0x004d5f55
     d8c:	454c5544 	strbmi	r5, [ip, #-1348]	; 0x544
     d90:	4c435f30 	mcrrmi	15, 3, r5, r3, cr0
     d94:	6544004b 	strbvs	r0, [r4, #-75]	; 0x4b
     d98:	43316546 	teqmi	r1, #293601280	; 0x11800000
     d9c:	55006b6c 	strpl	r6, [r0, #-2924]	; 0xb6c
     da0:	37747261 	ldrbcc	r7, [r4, -r1, ror #4]!
     da4:	65746147 	ldrbvs	r6, [r4, #-327]!	; 0x147
     da8:	6c6c7000 	stclvs	0, cr7, [ip], #-0
     dac:	72744331 	rsbsvc	r4, r4, #-1006632960	; 0xc4000000
     db0:	6c43006c 	mcrrvs	0, 6, r0, r3, cr12
     db4:	6944316b 	stmdbvs	r4, {r0, r1, r3, r5, r6, r8, ip, sp}^
     db8:	65560076 	ldrbvs	r0, [r6, #-118]	; 0x76
     dbc:	65746147 	ldrbvs	r6, [r4, #-327]!	; 0x147
     dc0:	6d644800 	stclvs	8, cr4, [r4, #-0]
     dc4:	6b6c4369 	blvs	1b11b70 <__dram_freq_start+0x1b11b70>
     dc8:	73657200 	cmnvc	r5, #0
     dcc:	65767265 	ldrbvs	r7, [r6, #-613]!	; 0x265
     dd0:	00333164 	eorseq	r3, r3, r4, ror #2
     dd4:	424c4c50 	submi	r4, ip, #20480	; 0x5000
     dd8:	73617079 	cmnvc	r1, #121	; 0x79
     ddc:	634c0073 	movtvs	r0, #49267	; 0xc073
     de0:	68433064 	stmdavs	r3, {r2, r5, r6, ip, sp}^
     de4:	6b6c4330 	blvs	1b11aac <__dram_freq_start+0x1b11aac>
     de8:	63784500 	cmnvs	r8, #0
     dec:	676e6168 	strbvs	r6, [lr, -r8, ror #2]!
     df0:	006e4565 	rsbeq	r4, lr, r5, ror #10
     df4:	63617246 	cmnvs	r1, #1610612740	; 0x60000004
     df8:	00746553 	rsbseq	r6, r4, r3, asr r5
     dfc:	63635f5f 	cmnvs	r3, #380	; 0x17c
     e00:	615f756d 	cmpvs	pc, sp, ror #10
     e04:	63316270 	teqvs	r1, #7
     e08:	675f6b6c 	ldrbvs	r6, [pc, -ip, ror #22]
     e0c:	5f657461 	svcpl	0x00657461
     e10:	30676572 	rsbcc	r6, r7, r2, ror r5
     e14:	5f633630 	svcpl	0x00633630
     e18:	65670074 	strbvs	r0, [r7, #-116]!	; 0x74
     e1c:	79635f74 	stmdbvc	r3!, {r2, r4, r5, r6, r8, r9, sl, fp, ip, lr}^
     e20:	63656c63 	cmnvs	r5, #25344	; 0x6300
     e24:	746e756f 	strbtvc	r7, [lr], #-1391	; 0x56f
     e28:	635f5f00 	cmpvs	pc, #0
     e2c:	5f756d63 	svcpl	0x00756d63
     e30:	696d6468 	stmdbvs	sp!, {r3, r5, r6, sl, sp, lr}^
     e34:	73725f31 	cmnvc	r2, #196	; 0xc4
     e38:	65725f74 	ldrbvs	r5, [r2, #-3956]!	; 0xf74
     e3c:	37313067 	ldrcc	r3, [r1, -r7, rrx]!
     e40:	00745f30 	rsbseq	r5, r4, r0, lsr pc
     e44:	4c545f49 	mrrcmi	15, 4, r5, r4, cr9
     e48:	494d5f42 	stmdbmi	sp, {r1, r6, r8, r9, sl, fp, ip, lr}^
     e4c:	43005353 	movwmi	r5, #851	; 0x353
     e50:	43316973 	teqmi	r1, #1884160	; 0x1cc000
     e54:	4c006b6c 	stcmi	11, cr6, [r0], {108}	; 0x6c
     e58:	43316463 	teqmi	r1, #1660944384	; 0x63000000
     e5c:	6c433068 	mcrrvs	0, 6, r3, r3, cr8
     e60:	4356006b 	cmpmi	r6, #107	; 0x6b
     e64:	7473524f 	ldrbtvc	r5, [r3], #-591	; 0x24f
     e68:	55006e49 	strpl	r6, [r0, #-3657]	; 0xe49
     e6c:	34747261 	ldrbtcc	r7, [r4], #-609	; 0x261
     e70:	65746147 	ldrbvs	r6, [r4, #-327]!	; 0x147
     e74:	6c6c5000 	stclvs	0, cr5, [ip], #-0
     e78:	6c744333 	ldclvs	3, cr4, [r4], #-204	; 0xffffff34
     e7c:	73795300 	cmnvc	r9, #0
     e80:	446b6c43 	strbtmi	r6, [fp], #-3139	; 0xc43
     e84:	44007669 	strmi	r7, [r0], #-1641	; 0x669
     e88:	31654665 	cmncc	r5, r5, ror #12
     e8c:	65746147 	ldrbvs	r6, [r4, #-327]!	; 0x147
     e90:	6c6c5000 	stclvs	0, cr5, [ip], #-0
     e94:	6c744338 	ldclvs	3, cr4, [r4], #-224	; 0xffffff20
     e98:	4c4c5000 	marmi	acc0, r5, ip
     e9c:	73616942 	cmnvc	r1, #1081344	; 0x108000
     ea0:	5f006e45 	svcpl	0x00006e45
     ea4:	4d43435f 	stclmi	3, cr4, [r3, #-380]	; 0xfffffe84
     ea8:	4c505f55 	mrrcmi	15, 5, r5, r0, cr5
     eac:	415f324c 	cmpmi	pc, ip, asr #4
     eb0:	4f494455 	svcmi	0x00494455
     eb4:	4745525f 	smlsldmi	r5, r5, pc, r2	; <UNPREDICTABLE>
     eb8:	38303030 	ldmdacc	r0!, {r4, r5, ip, sp}
     ebc:	435f5f00 	cmpmi	pc, #0
     ec0:	5f554d43 	svcpl	0x00554d43
     ec4:	4344434c 	movtmi	r4, #17228	; 0x434c
     ec8:	435f3148 	cmpmi	pc, #18
     ecc:	49004b4c 	stmdbmi	r0, {r2, r3, r6, r8, r9, fp, lr}
     ed0:	47307369 	ldrmi	r7, [r0, -r9, ror #6]!
     ed4:	00657461 	rsbeq	r7, r5, r1, ror #8
     ed8:	63635f5f 	cmnvs	r3, #380	; 0x17c
     edc:	635f756d 	cmpvs	pc, #457179136	; 0x1b400000
     ee0:	756f6b6c 	strbvc	r6, [pc, #-2924]!	; 37c <__dram_freq_start+0x37c>
     ee4:	00745f74 	rsbseq	r5, r4, r4, ror pc
     ee8:	435f5f5f 	cmpmi	pc, #380	; 0x17c
     eec:	5f554d43 	svcpl	0x00554d43
     ef0:	314c4c50 	cmpcc	ip, r0, asr ip
     ef4:	524f435f 	subpl	r4, pc, #2080374785	; 0x7c000001
     ef8:	45525f45 	ldrbmi	r5, [r2, #-3909]	; 0xf45
     efc:	30303047 	eorscc	r3, r0, r7, asr #32
     f00:	61550030 	cmpvs	r5, r0, lsr r0
     f04:	47317472 			; <UNDEFINED> instruction: 0x47317472
     f08:	00657461 	rsbeq	r7, r5, r1, ror #8
     f0c:	43435f5f 	movtmi	r5, #16223	; 0x3f5f
     f10:	415f554d 	cmpmi	pc, sp, asr #10
     f14:	5f414444 	svcpl	0x00414444
     f18:	5f4b4c43 	svcpl	0x004b4c43
     f1c:	30474552 	subcc	r4, r7, r2, asr r5
     f20:	00303431 	eorseq	r3, r0, r1, lsr r4
     f24:	69647053 	stmdbvs	r4!, {r0, r1, r4, r6, ip, sp, lr}^
     f28:	6b6c4366 	blvs	1b11cc8 <__dram_freq_start+0x1b11cc8>
     f2c:	74657300 	strbtvc	r7, [r5], #-768	; 0x300
     f30:	6576655f 	ldrbvs	r6, [r6, #-1375]!	; 0x55f
     f34:	635f746e 	cmpvs	pc, #1845493760	; 0x6e000000
     f38:	746e756f 	strbtvc	r7, [lr], #-1391	; 0x56f
     f3c:	41007265 	tstmi	r0, r5, ror #4
     f40:	43304250 	teqmi	r0, #5
     f44:	69446b6c 	stmdbvs	r4, {r2, r3, r5, r6, r8, r9, fp, sp, lr}^
     f48:	65720076 	ldrbvs	r0, [r2, #-118]!	; 0x76
     f4c:	76726573 			; <UNDEFINED> instruction: 0x76726573
     f50:	34316465 	ldrtcc	r6, [r1], #-1125	; 0x465
     f54:	74616d00 	strbtvc	r6, [r1], #-3328	; 0xd00
     f58:	655f6863 	ldrbvs	r6, [pc, #-2147]	; 6fd <__dram_freq_start+0x6fd>
     f5c:	746e6576 	strbtvc	r6, [lr], #-1398	; 0x576
     f60:	756f635f 	strbvc	r6, [pc, #-863]!	; c09 <__dram_freq_start+0xc09>
     f64:	7265746e 	rsbvc	r7, r5, #1845493760	; 0x6e000000
     f68:	6b6c4300 	blvs	1b11b70 <__dram_freq_start+0x1b11b70>
     f6c:	4174754f 	cmnmi	r4, pc, asr #10
     f70:	6b6c4300 	blvs	1b11b78 <__dram_freq_start+0x1b11b78>
     f74:	4274754f 	rsbsmi	r7, r4, #331350016	; 0x13c00000
     f78:	635f5f00 	cmpvs	pc, #0
     f7c:	5f756d63 	svcpl	0x00756d63
     f80:	336c6c70 	cmncc	ip, #28672	; 0x7000
     f84:	6469765f 	strbtvs	r7, [r9], #-1631	; 0x65f
     f88:	725f6f65 	subsvc	r6, pc, #404	; 0x194
     f8c:	30306765 	eorscc	r6, r0, r5, ror #14
     f90:	745f3031 	ldrbvc	r3, [pc], #-49	; f98 <__dram_freq_start+0xf98>
     f94:	73657200 	cmnvc	r5, #0
     f98:	65767265 	ldrbvs	r7, [r6, #-613]!	; 0x265
     f9c:	00363164 	eorseq	r3, r6, r4, ror #2
     fa0:	61726453 	cmnvs	r2, r3, asr r4
     fa4:	7461476d 	strbtvc	r4, [r1], #-1901	; 0x76d
     fa8:	77540065 	ldrbvc	r0, [r4, -r5, rrx]
     fac:	61473269 	cmpvs	r7, r9, ror #4
     fb0:	5f006574 	svcpl	0x00006574
     fb4:	6d63635f 	stclvs	3, cr6, [r3, #-380]!	; 0xfffffe84
     fb8:	70615f75 	rsbvc	r5, r1, r5, ror pc
     fbc:	6c633062 	stclvs	0, cr3, [r3], #-392	; 0xfffffe78
     fc0:	61675f6b 	cmnvs	r7, fp, ror #30
     fc4:	725f6574 	subsvc	r6, pc, #486539264	; 0x1d000000
     fc8:	30306765 	eorscc	r6, r0, r5, ror #14
     fcc:	745f3836 	ldrbvc	r3, [pc], #-2102	; fd4 <__dram_freq_start+0xfd4>
     fd0:	69705300 	ldmdbvs	r0!, {r8, r9, ip, lr}^
     fd4:	6b6c4332 	blvs	1b11ca4 <__dram_freq_start+0x1b11ca4>
     fd8:	65634100 	strbvs	r4, [r3, #-256]!	; 0x100
     fdc:	65746147 	ldrbvs	r6, [r4, #-327]!	; 0x147
     fe0:	635f5f00 	cmpvs	pc, #0
     fe4:	5f756d63 	svcpl	0x00756d63
     fe8:	63616d67 	cmnvs	r1, #6592	; 0x19c0
     fec:	6b6c635f 	blvs	1b19d70 <__dram_freq_start+0x1b19d70>
     ff0:	6765725f 			; <UNDEFINED> instruction: 0x6765725f
     ff4:	34363130 	ldrtcc	r3, [r6], #-304	; 0x130
     ff8:	4f00745f 	svcmi	0x0000745f
     ffc:	34324353 	ldrtcc	r4, [r2], #-851	; 0x353
    1000:	6d73474d 	ldclvs	7, cr4, [r3, #-308]!	; 0xfffffecc
    1004:	61724400 	cmnvs	r2, r0, lsl #8
    1008:	7461476d 	strbtvc	r4, [r1], #-1901	; 0x76d
    100c:	73550065 	cmpvc	r5, #101	; 0x65
    1010:	79685062 	stmdbvc	r8!, {r1, r5, r6, ip, lr}^
    1014:	74735230 	ldrbtvc	r5, [r3], #-560	; 0x230
    1018:	6d645300 	stclvs	3, cr5, [r4, #-0]
    101c:	4732636d 	ldrmi	r6, [r2, -sp, ror #6]!
    1020:	00657461 	rsbeq	r7, r5, r1, ror #8
    1024:	63635f5f 	cmnvs	r3, #380	; 0x17c
    1028:	705f756d 	subsvc	r7, pc, sp, ror #10
    102c:	5f376c6c 	svcpl	0x00376c6c
    1030:	65646976 	strbvs	r6, [r4, #-2422]!	; 0x976
    1034:	725f316f 	subsvc	r3, pc, #-1073741797	; 0xc000001b
    1038:	30306765 	eorscc	r6, r0, r5, ror #14
    103c:	745f3033 	ldrbvc	r3, [pc], #-51	; 1044 <__dram_freq_start+0x1044>
    1040:	42654400 	rsbmi	r4, r5, #0
    1044:	6c433065 	mcrrvs	0, 6, r3, r3, cr5
    1048:	6f4d006b 	svcvs	0x004d006b
    104c:	65536564 	ldrbvs	r6, [r3, #-1380]	; 0x564
    1050:	7047006c 	subvc	r0, r7, ip, rrx
    1054:	47443375 	smlsldxmi	r3, r4, r5, r3
    1058:	00657461 	rsbeq	r7, r5, r1, ror #8
    105c:	3164634c 	cmncc	r4, ip, asr #6
    1060:	43316843 	teqmi	r1, #4390912	; 0x430000
    1064:	4d006b6c 	vstrmi	d6, [r0, #-432]	; 0xfffffe50
    1068:	43737542 	cmnmi	r3, #276824064	; 0x10800000
    106c:	5f006b6c 	svcpl	0x00006b6c
    1070:	4d43435f 	stclmi	3, cr4, [r3, #-380]	; 0xfffffe84
    1074:	4c505f55 	mrrcmi	15, 5, r5, r0, cr5
    1078:	565f374c 	ldrbpl	r3, [pc], -ip, asr #14
    107c:	4f454449 	svcmi	0x00454449
    1080:	45525f31 	ldrbmi	r5, [r2, #-3889]	; 0xf31
    1084:	33303047 	teqcc	r0, #71	; 0x47
    1088:	5f5f0030 	svcpl	0x005f0030
    108c:	554d4343 	strbpl	r4, [sp, #-835]	; 0x343
    1090:	4456545f 	ldrbmi	r5, [r6], #-1119	; 0x45f
    1094:	4b4c435f 	blmi	1311e18 <__dram_freq_start+0x1311e18>
    1098:	4745525f 	smlsldmi	r5, r5, pc, r2	; <UNPREDICTABLE>
    109c:	38323130 	ldmdacc	r2!, {r4, r5, r8, ip, sp}
    10a0:	63616600 	cmnvs	r1, #0
    10a4:	5f726f74 	svcpl	0x00726f74
    10a8:	6e63006d 	cdpvs	0, 6, cr0, cr3, cr13, {3}
    10ac:	00726574 	rsbseq	r6, r2, r4, ror r5
    10b0:	6963684f 	stmdbvs	r3!, {r0, r1, r2, r3, r6, fp, sp, lr}^
    10b4:	74614730 	strbtvc	r4, [r1], #-1840	; 0x730
    10b8:	72490065 	subvc	r0, r9, #101	; 0x65
    10bc:	74614730 	strbtvc	r4, [r1], #-1840	; 0x730
    10c0:	64530065 	ldrbvs	r0, [r3], #-101	; 0x65
    10c4:	31636d4d 	cmncc	r3, sp, asr #26
    10c8:	006b6c43 	rsbeq	r6, fp, r3, asr #24
    10cc:	63635f5f 	cmnvs	r3, #380	; 0x17c
    10d0:	615f756d 	cmpvs	pc, sp, ror #10
    10d4:	635f6563 	cmpvs	pc, #415236096	; 0x18c00000
    10d8:	725f6b6c 	subsvc	r6, pc, #110592	; 0x1b000
    10dc:	31306765 	teqcc	r0, r5, ror #14
    10e0:	745f3834 	ldrbvc	r3, [pc], #-2100	; 10e8 <__dram_freq_start+0x10e8>
    10e4:	635f5f00 	cmpvs	pc, #0
    10e8:	5f756d63 	svcpl	0x00756d63
    10ec:	75646f6d 	strbvc	r6, [r4, #-3949]!	; 0xf6d
    10f0:	5f30656c 	svcpl	0x0030656c
    10f4:	5f6b6c63 	svcpl	0x006b6c63
    10f8:	5f5f0074 	svcpl	0x005f0074
    10fc:	554d4343 	strbpl	r4, [sp, #-835]	; 0x343
    1100:	43534f5f 	cmpmi	r3, #380	; 0x17c
    1104:	5f4d3432 	svcpl	0x004d3432
    1108:	30474552 	subcc	r4, r7, r2, asr r5
    110c:	00303530 	eorseq	r3, r0, r0, lsr r5
    1110:	726d7453 	rsbvc	r7, sp, #1392508928	; 0x53000000
    1114:	65746147 	ldrbvs	r6, [r4, #-327]!	; 0x147
    1118:	616d4500 	cmnvs	sp, r0, lsl #10
    111c:	74614763 	strbtvc	r4, [r1], #-1891	; 0x763
    1120:	654b0065 	strbvs	r0, [fp, #-101]	; 0x65
    1124:	65694679 	strbvs	r4, [r9, #-1657]!	; 0x679
    1128:	6d00646c 	cfstrsvs	mvf6, [r0, #-432]	; 0xfffffe50
    112c:	665f756d 	ldrbvs	r7, [pc], -sp, ror #10
    1130:	0067616c 	rsbeq	r6, r7, ip, ror #2
    1134:	5f756d63 	svcpl	0x00756d63
    1138:	00676572 	rsbeq	r6, r7, r2, ror r5
    113c:	63635f5f 	cmnvs	r3, #380	; 0x17c
    1140:	6c5f756d 	cfldr64vs	mvdx7, [pc], {109}	; 0x6d
    1144:	5f736476 	svcpl	0x00736476
    1148:	5f6b6c63 	svcpl	0x006b6c63
    114c:	30676572 	rsbcc	r6, r7, r2, ror r5
    1150:	5f633431 	svcpl	0x00633431
    1154:	6c500074 	mrrcvs	0, 7, r0, r0, cr4	; <UNPREDICTABLE>
    1158:	7443356c 	strbvc	r3, [r3], #-1388	; 0x56c
    115c:	5f5f006c 	svcpl	0x005f006c
    1160:	756d6363 	strbvc	r6, [sp, #-867]!	; 0x363
    1164:	5f65765f 	svcpl	0x0065765f
    1168:	5f6b6c63 	svcpl	0x006b6c63
    116c:	30676572 	rsbcc	r6, r7, r2, ror r5
    1170:	5f633331 	svcpl	0x00633331
    1174:	5f5f0074 	svcpl	0x005f0074
    1178:	554d4343 	strbpl	r4, [sp, #-835]	; 0x343
    117c:	4543415f 	strbmi	r4, [r3, #-351]	; 0x15f
    1180:	4b4c435f 	blmi	1311f04 <__dram_freq_start+0x1311f04>
    1184:	4745525f 	smlsldmi	r5, r5, pc, r2	; <UNPREDICTABLE>
    1188:	38343130 	ldmdacc	r4!, {r4, r5, r8, ip, sp}
    118c:	67695300 	strbvs	r5, [r9, -r0, lsl #6]!
    1190:	6e49616d 	dvfvsez	f6, f1, #5.0
    1194:	47734d00 	ldrbmi	r4, [r3, -r0, lsl #26]!
    1198:	00657461 	rsbeq	r7, r5, r1, ror #8
    119c:	43435f5f 	movtmi	r5, #16223	; 0x3f5f
    11a0:	505f554d 	subspl	r5, pc, sp, asr #10
    11a4:	5f334c4c 	svcpl	0x00334c4c
    11a8:	45444956 	strbmi	r4, [r4, #-2390]	; 0x956
    11ac:	45525f4f 	ldrbmi	r5, [r2, #-3919]	; 0xf4f
    11b0:	31303047 	teqcc	r0, r7, asr #32
    11b4:	64410030 	strbvs	r0, [r1], #-48	; 0x30
    11b8:	61476164 	cmpvs	r7, r4, ror #2
    11bc:	56006574 			; <UNDEFINED> instruction: 0x56006574
    11c0:	69424f43 	stmdbvs	r2, {r0, r1, r6, r8, r9, sl, fp, lr}^
    11c4:	5f007361 	svcpl	0x00007361
    11c8:	6d63635f 	stclvs	3, cr6, [r3, #-380]!	; 0xfffffe84
    11cc:	636c5f75 	cmnvs	ip, #468	; 0x1d4
    11d0:	31686364 	cmncc	r8, r4, ror #6
    11d4:	6b6c635f 	blvs	1b19f58 <__dram_freq_start+0x1b19f58>
    11d8:	5400745f 	strpl	r7, [r0], #-1119	; 0x45f
    11dc:	6c436476 	cfstrdvs	mvd6, [r3], {118}	; 0x76
    11e0:	6544006b 	strbvs	r0, [r4, #-107]	; 0x6b
    11e4:	47306542 	ldrmi	r6, [r0, -r2, asr #10]!
    11e8:	00657461 	rsbeq	r7, r5, r1, ror #8
    11ec:	41627441 	cmnmi	r2, r1, asr #8
    11f0:	6c436270 	sfmvs	f6, 2, [r3], {112}	; 0x70
    11f4:	7669446b 	strbtvc	r4, [r9], -fp, ror #8
    11f8:	435f5f00 	cmpmi	pc, #0
    11fc:	5f554d43 	svcpl	0x00554d43
    1200:	31425041 	cmpcc	r2, r1, asr #32
    1204:	5f4b4c43 	svcpl	0x004b4c43
    1208:	49544152 	ldmdbmi	r4, {r1, r4, r6, r8, lr}^
    120c:	45525f4f 	ldrbmi	r5, [r2, #-3919]	; 0xf4f
    1210:	35303047 	ldrcc	r3, [r0, #-71]!	; 0x47
    1214:	61530038 	cmpvs	r3, r8, lsr r0
    1218:	6c436174 	stfvse	f6, [r3], {116}	; 0x74
    121c:	3249006b 	subcc	r0, r9, #107	; 0x6b
    1220:	6c433073 	mcrrvs	0, 7, r3, r3, cr3
    1224:	6572006b 	ldrbvs	r0, [r2, #-107]!	; 0x6b
    1228:	76726573 			; <UNDEFINED> instruction: 0x76726573
    122c:	00306465 	eorseq	r6, r0, r5, ror #8
    1230:	65736572 	ldrbvs	r6, [r3, #-1394]!	; 0x572
    1234:	64657672 	strbtvs	r7, [r5], #-1650	; 0x672
    1238:	65720031 	ldrbvs	r0, [r2, #-49]!	; 0x31
    123c:	76726573 			; <UNDEFINED> instruction: 0x76726573
    1240:	00326465 	eorseq	r6, r2, r5, ror #8
    1244:	65736572 	ldrbvs	r6, [r3, #-1394]!	; 0x572
    1248:	64657672 	strbtvs	r7, [r5], #-1650	; 0x672
    124c:	65720033 	ldrbvs	r0, [r2, #-51]!	; 0x33
    1250:	76726573 			; <UNDEFINED> instruction: 0x76726573
    1254:	00346465 	eorseq	r6, r4, r5, ror #8
    1258:	65736572 	ldrbvs	r6, [r3, #-1394]!	; 0x572
    125c:	64657672 	strbtvs	r7, [r5], #-1650	; 0x672
    1260:	65720035 	ldrbvs	r0, [r2, #-53]!	; 0x35
    1264:	76726573 			; <UNDEFINED> instruction: 0x76726573
    1268:	00366465 	eorseq	r6, r6, r5, ror #8
    126c:	65736572 	ldrbvs	r6, [r3, #-1394]!	; 0x572
    1270:	64657672 	strbtvs	r7, [r5], #-1650	; 0x672
    1274:	70530037 	subsvc	r0, r3, r7, lsr r0
    1278:	6c436365 	mcrrvs	3, 6, r6, r3, cr5
    127c:	6147316b 	cmpvs	r7, fp, ror #2
    1280:	72006574 	andvc	r6, r0, #486539264	; 0x1d000000
    1284:	72657365 	rsbvc	r7, r5, #-1811939327	; 0x94000001
    1288:	39646576 	stmdbcc	r4!, {r1, r2, r4, r5, r6, r8, sl, sp, lr}^
    128c:	74754f00 	ldrbtvc	r4, [r5], #-3840	; 0xf00
    1290:	506b6c43 	rsbpl	r6, fp, r3, asr #24
    1294:	65736168 	ldrbvs	r6, [r3, #-360]!	; 0x168
    1298:	65705300 	ldrbvs	r5, [r0, #-768]!	; 0x300
    129c:	6b6c4363 	blvs	1b12030 <__dram_freq_start+0x1b12030>
    12a0:	63725332 	cmnvs	r2, #-939524096	; 0xc8000000
    12a4:	435f5f00 	cmpmi	pc, #0
    12a8:	5f554d43 	svcpl	0x00554d43
    12ac:	494d4448 	stmdbmi	sp, {r3, r6, sl, lr}^
    12b0:	48535f31 	ldmdami	r3, {r0, r4, r5, r8, r9, sl, fp, ip, lr}^
    12b4:	4c435f57 	mcrrmi	15, 5, r5, r3, cr7
    12b8:	45525f4b 	ldrbmi	r5, [r2, #-3915]	; 0xf4b
    12bc:	37313047 	ldrcc	r3, [r1, -r7, asr #32]!
    12c0:	6c430038 	mcrrvs	0, 3, r0, r3, cr8
    12c4:	6944326b 	stmdbvs	r4, {r0, r1, r3, r5, r6, r9, ip, sp}^
    12c8:	534f0076 	movtpl	r0, #61558	; 0xf076
    12cc:	4d343243 	lfmmi	f3, 4, [r4, #-268]!	; 0xfffffef4
    12d0:	64006e45 	strvs	r6, [r0], #-3653	; 0xe45
    12d4:	65725f6f 	ldrbvs	r5, [r2, #-3951]!	; 0xf6f
    12d8:	00746573 	rsbseq	r6, r4, r3, ror r5
    12dc:	47616d44 	strbmi	r6, [r1, -r4, asr #26]!
    12e0:	00657461 	rsbeq	r7, r5, r1, ror #8
    12e4:	454c4c50 	strbmi	r4, [ip, #-3152]	; 0xc50
    12e8:	5f5f006e 	svcpl	0x005f006e
    12ec:	554d4343 	strbpl	r4, [sp, #-835]	; 0x343
    12f0:	59454b5f 	stmdbpl	r5, {r0, r1, r2, r3, r4, r6, r8, r9, fp, lr}^
    12f4:	5f444150 	svcpl	0x00444150
    12f8:	5f4b4c43 	svcpl	0x004b4c43
    12fc:	30474552 	subcc	r4, r7, r2, asr r5
    1300:	00344330 	eorseq	r4, r4, r0, lsr r3
    1304:	6e657665 	cdpvs	6, 6, cr7, cr5, cr5, {3}
    1308:	6e635f74 	mcrvs	15, 3, r5, cr3, cr4, {3}
    130c:	6c430074 	mcrrvs	0, 7, r0, r3, cr4
    1310:	7669446b 	strbtvc	r4, [r9], -fp, ror #8
    1314:	6572004e 	ldrbvs	r0, [r2, #-78]!	; 0x4e
    1318:	5f746573 	svcpl	0x00746573
    131c:	6e756f63 	cdpvs	15, 7, cr6, cr5, cr3, {3}
    1320:	00726574 	rsbseq	r6, r2, r4, ror r5
    1324:	43435f5f 	movtmi	r5, #16223	; 0x3f5f
    1328:	535f554d 	cmppl	pc, #322961408	; 0x13400000
    132c:	4c435359 	mcrrmi	3, 5, r5, r3, cr9
    1330:	41525f4b 	cmpmi	r2, fp, asr #30
    1334:	5f4f4954 	svcpl	0x004f4954
    1338:	30474552 	subcc	r4, r7, r2, asr r5
    133c:	00343530 	eorseq	r3, r4, r0, lsr r5
    1340:	61646441 	cmnvs	r4, r1, asr #8
    1344:	006b6c43 	rsbeq	r6, fp, r3, asr #24
    1348:	6c437354 	mcrrvs	3, 5, r7, r3, cr4
    134c:	7343006b 	movtvc	r0, #12395	; 0x306b
    1350:	70734969 	rsbsvc	r4, r3, r9, ror #18
    1354:	006b6c43 	rsbeq	r6, fp, r3, asr #24
    1358:	69636845 	stmdbvs	r3!, {r0, r2, r6, fp, sp, lr}^
    135c:	74614730 	strbtvc	r4, [r1], #-1840	; 0x730
    1360:	654b0065 	strbvs	r0, [fp, #-101]	; 0x65
    1364:	64615079 	strbtvs	r5, [r1], #-121	; 0x79
    1368:	006b6c43 	rsbeq	r6, fp, r3, asr #24
    136c:	424c4c50 	submi	r4, ip, #20480	; 0x5000
    1370:	00736169 	rsbseq	r6, r3, r9, ror #2
    1374:	706d6153 	rsbvc	r6, sp, r3, asr r1
    1378:	6c43656c 	cfstr64vs	mvdx6, [r3], {108}	; 0x6c
    137c:	6168506b 	cmnvs	r8, fp, rrx
    1380:	4e006573 	cfrshl64mi	mvdx0, mvdx3, r6
    1384:	47646e61 	strbmi	r6, [r4, -r1, ror #28]!
    1388:	00657461 	rsbeq	r7, r5, r1, ror #8
    138c:	61477353 	cmpvs	r7, r3, asr r3
    1390:	5f006574 	svcpl	0x00006574
    1394:	6d63635f 	stclvs	3, cr6, [r3, #-380]!	; 0xfffffe84
    1398:	65665f75 	strbvs	r5, [r6, #-3957]!	; 0xf75
    139c:	706d6564 	rsbvc	r6, sp, r4, ror #10
    13a0:	6b6c635f 	blvs	1b1a124 <__dram_freq_start+0x1b1a124>
    13a4:	5300745f 	movwpl	r7, #1119	; 0x45f
    13a8:	636d4d64 	cmnvs	sp, #6400	; 0x1900
    13ac:	6b6c4333 	blvs	1b12080 <__dram_freq_start+0x1b12080>
    13b0:	6d644800 	stclvs	8, cr4, [r4, #-0]
    13b4:	61474469 	cmpvs	r7, r9, ror #8
    13b8:	41006574 	tstmi	r0, r4, ror r5
    13bc:	6c434248 	sfmvs	f4, 2, [r3], {72}	; 0x48
    13c0:	6372536b 	cmnvs	r2, #-1409286143	; 0xac000001
    13c4:	4f444c00 	svcmi	0x00444c00
    13c8:	7074754f 	rsbsvc	r7, r4, pc, asr #10
    13cc:	55007475 	strpl	r7, [r0, #-1141]	; 0x475
    13d0:	36747261 	ldrbtcc	r7, [r4], -r1, ror #4
    13d4:	65746147 	ldrbvs	r6, [r4, #-327]!	; 0x147
    13d8:	4f444c00 	svcmi	0x00444c00
    13dc:	006e4532 	rsbeq	r4, lr, r2, lsr r5
    13e0:	74636146 	strbtvc	r6, [r3], #-326	; 0x146
    13e4:	314d726f 	cmpcc	sp, pc, ror #4
    13e8:	6c6c5000 	stclvs	0, cr5, [ip], #-0
    13ec:	6c744337 	ldclvs	3, cr4, [r4], #-220	; 0xffffff24
    13f0:	635f5f00 	cmpvs	pc, #0
    13f4:	5f756d63 	svcpl	0x00756d63
    13f8:	5f676572 	svcpl	0x00676572
    13fc:	7473696c 	ldrbtvc	r6, [r3], #-2412	; 0x96c
    1400:	4e00745f 	cfmvsrmi	mvf0, r7
    1404:	43646e61 	cmnmi	r4, #1552	; 0x610
    1408:	43006b6c 	movwmi	r6, #2924	; 0xb6c
    140c:	69446b6c 	stmdbvs	r4, {r2, r3, r5, r6, r8, r9, fp, sp, lr}^
    1410:	4f004d76 	svcmi	0x00004d76
    1414:	30494348 	subcc	r4, r9, r8, asr #6
    1418:	63657053 	cmnvs	r5, #83	; 0x53
    141c:	476b6c43 	strbmi	r6, [fp, -r3, asr #24]!
    1420:	00657461 	rsbeq	r7, r5, r1, ror #8
    1424:	63635f5f 	cmnvs	r3, #380	; 0x17c
    1428:	745f756d 	ldrbvc	r7, [pc], #-1389	; 1430 <__dram_freq_start+0x1430>
    142c:	635f6476 	cmpvs	pc, #1979711488	; 0x76000000
    1430:	725f6b6c 	subsvc	r6, pc, #110592	; 0x1b000
    1434:	31306765 	teqcc	r0, r5, ror #14
    1438:	745f3832 	ldrbvc	r3, [pc], #-2098	; 1440 <__dram_freq_start+0x1440>
    143c:	73694900 	cmnvc	r9, #0
    1440:	74614732 	strbtvc	r4, [r1], #-1842	; 0x732
    1444:	614d0065 	cmpvs	sp, r5, rrx
    1448:	6c43696c 	mcrrvs	9, 6, r6, r3, cr12
    144c:	7641006b 	strbvc	r0, [r1], -fp, rrx
    1450:	6b6c4373 	blvs	1b12224 <__dram_freq_start+0x1b12224>
    1454:	435f5f00 	cmpmi	pc, #0
    1458:	5f554d43 	svcpl	0x00554d43
    145c:	43414d47 	movtmi	r4, #7495	; 0x1d47
    1460:	4b4c435f 	blmi	13121e4 <__dram_freq_start+0x13121e4>
    1464:	4745525f 	smlsldmi	r5, r5, pc, r2	; <UNPREDICTABLE>
    1468:	34363130 	ldrtcc	r3, [r6], #-304	; 0x130
    146c:	62735500 	rsbsvs	r5, r3, #0
    1470:	31796850 	cmncc	r9, r0, asr r8
    1474:	00747352 	rsbseq	r7, r4, r2, asr r3
    1478:	63635f5f 	cmnvs	r3, #380	; 0x17c
    147c:	735f756d 	cmpvc	pc, #457179136	; 0x1b400000
    1480:	6c637379 	stclvs	3, cr7, [r3], #-484	; 0xfffffe1c
    1484:	725f6c6b 	subsvc	r6, pc, #27392	; 0x6b00
    1488:	6f697461 	svcvs	0x00697461
    148c:	6765725f 			; <UNDEFINED> instruction: 0x6765725f
    1490:	34353030 	ldrtcc	r3, [r5], #-48	; 0x30
    1494:	5500745f 	strpl	r7, [r0, #-1119]	; 0x45f
    1498:	33747261 	cmncc	r4, #268435462	; 0x10000006
    149c:	65746147 	ldrbvs	r6, [r4, #-327]!	; 0x147
    14a0:	46654400 	strbtmi	r4, [r5], -r0, lsl #8
    14a4:	61473065 	cmpvs	r7, r5, rrx
    14a8:	43006574 	movwmi	r6, #1396	; 0x574
    14ac:	47316973 			; <UNDEFINED> instruction: 0x47316973
    14b0:	00657461 	rsbeq	r7, r5, r1, ror #8
    14b4:	74696e69 	strbtvc	r6, [r9], #-3689	; 0xe69
    14b8:	6576655f 	ldrbvs	r6, [r6, #-1375]!	; 0x55f
    14bc:	635f746e 	cmpvs	pc, #1845493760	; 0x6e000000
    14c0:	746e756f 	strbtvc	r7, [lr], #-1391	; 0x56f
    14c4:	64007265 	strvs	r7, [r0], #-613	; 0x265
    14c8:	79616c65 	stmdbvc	r1!, {r0, r2, r5, r6, sl, fp, sp, lr}^
    14cc:	0073755f 	rsbseq	r7, r3, pc, asr r5
    14d0:	3164634c 	cmncc	r4, ip, asr #6
    14d4:	65746147 	ldrbvs	r6, [r4, #-327]!	; 0x147
    14d8:	435f5f00 	cmpmi	pc, #0
    14dc:	5f554d43 	svcpl	0x00554d43
    14e0:	4344434c 	movtmi	r4, #17228	; 0x434c
    14e4:	435f3048 	cmpmi	pc, #72	; 0x48
    14e8:	54004b4c 	strpl	r4, [r0], #-2892	; 0xb4c
    14ec:	47346977 			; <UNDEFINED> instruction: 0x47346977
    14f0:	00657461 	rsbeq	r7, r5, r1, ror #8
    14f4:	74636166 	strbtvc	r6, [r3], #-358	; 0x166
    14f8:	6b5f726f 	blvs	17ddebc <__dram_freq_start+0x17ddebc>
    14fc:	636f4c00 	cmnvs	pc, #0
    1500:	6d69546b 	cfstrdvs	mvd5, [r9, #-428]!	; 0xfffffe54
    1504:	5f5f0065 	svcpl	0x005f0065
    1508:	554d4343 	strbpl	r4, [sp, #-835]	; 0x343
    150c:	5f45565f 	svcpl	0x0045565f
    1510:	5f4b4c43 	svcpl	0x004b4c43
    1514:	30474552 	subcc	r4, r7, r2, asr r5
    1518:	00433331 	subeq	r3, r3, r1, lsr r3
    151c:	63635f5f 	cmnvs	r3, #380	; 0x17c
    1520:	615f756d 	cmpvs	pc, sp, ror #10
    1524:	635f7376 	cmpvs	pc, #-671088639	; 0xd8000001
    1528:	725f6b6c 	subsvc	r6, pc, #110592	; 0x1b000
    152c:	31306765 	teqcc	r0, r5, ror #14
    1530:	745f3434 	ldrbvc	r3, [pc], #-1076	; 1538 <__dram_freq_start+0x1538>
    1534:	72615500 	rsbvc	r5, r1, #0
    1538:	61473074 	hvcvs	29444	; 0x7304
    153c:	56006574 			; <UNDEFINED> instruction: 0x56006574
    1540:	69426f63 	stmdbvs	r2, {r0, r1, r5, r6, r8, r9, sl, fp, sp, lr}^
    1544:	50007361 	andpl	r7, r0, r1, ror #6
    1548:	44766572 	ldrbtmi	r6, [r6], #-1394	; 0x572
    154c:	5f007669 	svcpl	0x00007669
    1550:	4d43435f 	stclmi	3, cr4, [r3, #-380]	; 0xfffffe84
    1554:	50415f55 	subpl	r5, r1, r5, asr pc
    1558:	4c433142 	stfmie	f3, [r3], {66}	; 0x42
    155c:	41475f4b 	cmpmi	r7, fp, asr #30
    1560:	525f4554 	subspl	r4, pc, #352321536	; 0x15000000
    1564:	30304745 	eorscc	r4, r0, r5, asr #14
    1568:	41004336 	tstmi	r0, r6, lsr r3
    156c:	6c434958 	mcrrvs	9, 5, r4, r3, cr8
    1570:	7669446b 	strbtvc	r4, [r9], -fp, ror #8
    1574:	62704100 	rsbsvs	r4, r0, #0
    1578:	74614731 	strbtvc	r4, [r1], #-1841	; 0x731
    157c:	68500065 	ldmdavs	r0, {r0, r2, r5, r6}^
    1580:	00544979 	subseq	r4, r4, r9, ror r9
    1584:	474f4356 	smlsldmi	r4, pc, r6, r3	; <UNPREDICTABLE>
    1588:	006e6961 	rsbeq	r6, lr, r1, ror #18
    158c:	5f746567 	svcpl	0x00746567
    1590:	6e657665 	cdpvs	6, 6, cr7, cr5, cr5, {3}
    1594:	6f635f74 	svcvs	0x00635f74
    1598:	65746e75 	ldrbvs	r6, [r4, #-3701]!	; 0xe75
    159c:	77540072 			; <UNDEFINED> instruction: 0x77540072
    15a0:	61473169 	cmpvs	r7, r9, ror #2
    15a4:	50006574 	andpl	r6, r0, r4, ror r5
    15a8:	43326c6c 	teqmi	r2, #27648	; 0x6c00
    15ac:	5f006c74 	svcpl	0x00006c74
    15b0:	4d43435f 	stclmi	3, cr4, [r3, #-380]	; 0xfffffe84
    15b4:	45525f55 	ldrbmi	r5, [r2, #-3925]	; 0xf55
    15b8:	494c5f47 	stmdbmi	ip, {r0, r1, r2, r6, r8, r9, sl, fp, ip, lr}^
    15bc:	5f005453 	svcpl	0x00005453
    15c0:	4d43435f 	stclmi	3, cr4, [r3, #-380]	; 0xfffffe84
    15c4:	4c505f55 	mrrcmi	15, 5, r5, r0, cr5
    15c8:	475f384c 	ldrbmi	r3, [pc, -ip, asr #16]
    15cc:	525f5550 	subspl	r5, pc, #335544320	; 0x14000000
    15d0:	30304745 	eorscc	r4, r0, r5, asr #14
    15d4:	5f003034 	svcpl	0x00003034
    15d8:	6d63635f 	stclvs	3, cr6, [r3, #-380]!	; 0xfffffe84
    15dc:	6c705f75 	ldclvs	15, cr5, [r0], #-468	; 0xfffffe2c
    15e0:	765f346c 	ldrbvc	r3, [pc], -ip, ror #8
    15e4:	65725f65 	ldrbvs	r5, [r2, #-3941]!	; 0xf65
    15e8:	31303067 	teqcc	r0, r7, rrx
    15ec:	00745f38 	rsbseq	r5, r4, r8, lsr pc
    15f0:	2e2e2f2e 	cdpcs	15, 2, cr2, cr14, cr14, {1}
    15f4:	6d656d2f 	stclvs	13, cr6, [r5, #-188]!	; 0xffffff44
    15f8:	6d69745f 	cfstrdvs	mvd7, [r9, #-380]!	; 0xfffffe84
    15fc:	2e676e69 	cdpcs	14, 6, cr6, cr7, cr9, {3}
    1600:	61660063 	cmnvs	r6, r3, rrx
    1604:	726f7463 	rsbvc	r7, pc, #1660944384	; 0x63000000
    1608:	50006e5f 	andpl	r6, r0, pc, asr lr
    160c:	47313273 			; <UNDEFINED> instruction: 0x47313273
    1610:	00657461 	rsbeq	r7, r5, r1, ror #8
    1614:	30697343 	rsbcc	r7, r9, r3, asr #6
    1618:	65746147 	ldrbvs	r6, [r4, #-327]!	; 0x147
    161c:	6b6c4300 	blvs	1b12224 <__dram_freq_start+0x1b12224>
    1620:	5f006e45 	svcpl	0x00006e45
    1624:	4d43435f 	stclmi	3, cr4, [r3, #-380]	; 0xfffffe84
    1628:	44485f55 	strbmi	r5, [r8], #-3925	; 0xf55
    162c:	5f31494d 	svcpl	0x0031494d
    1630:	5f4c5443 	svcpl	0x004c5443
    1634:	30474552 	subcc	r4, r7, r2, asr r5
    1638:	00343731 	eorseq	r3, r4, r1, lsr r7
    163c:	6d6d6453 	cfstrdvs	mvd6, [sp, #-332]!	; 0xfffffeb4
    1640:	61473163 	cmpvs	r7, r3, ror #2
    1644:	5f006574 	svcpl	0x00006574
    1648:	4d43435f 	stclmi	3, cr4, [r3, #-380]	; 0xfffffe84
    164c:	50415f55 	subpl	r5, r1, r5, asr pc
    1650:	4c433042 	mcrrmi	0, 4, r3, r3, cr2
    1654:	41475f4b 	cmpmi	r7, fp, asr #30
    1658:	525f4554 	subspl	r4, pc, #352321536	; 0x15000000
    165c:	30304745 	eorscc	r4, r0, r5, asr #14
    1660:	6d003836 	stcvs	8, cr3, [r0, #-216]	; 0xffffff28
    1664:	5f6c7463 	svcpl	0x006c7463
    1668:	75746573 	ldrbvc	r6, [r4, #-1395]!	; 0x573
    166c:	72645f70 	rsbvc	r5, r4, #448	; 0x1c0
    1670:	635f6d61 	cmpvs	pc, #6208	; 0x1840
    1674:	6b636f6c 	blvs	18dd42c <__dram_freq_start+0x18dd42c>
    1678:	65726600 	ldrbvs	r6, [r2, #-1536]!	; 0x600
    167c:	00705f71 	rsbseq	r5, r0, r1, ror pc
    1680:	6c74636d 	ldclvs	3, cr6, [r4], #-436	; 0xfffffe4c
    1684:	6e6f635f 	mcrvs	3, 3, r6, cr15, cr15, {2}
    1688:	75676966 	strbvc	r6, [r7, #-2406]!	; 0x966
    168c:	685f6572 	ldmdavs	pc, {r1, r4, r5, r6, r8, sl, sp, lr}^	; <UNPREDICTABLE>
    1690:	7074736f 	rsbsvc	r7, r4, pc, ror #6
    1694:	0074726f 	rsbseq	r7, r4, pc, ror #4
    1698:	70696863 	rsbvc	r6, r9, r3, ror #16
    169c:	6e65645f 	mcrvs	4, 3, r6, cr5, cr15, {2}
    16a0:	74636d00 	strbtvc	r6, [r3], #-3328	; 0xd00
    16a4:	6e655f6c 	cdpvs	15, 6, cr5, cr5, cr12, {3}
    16a8:	656c6261 	strbvs	r6, [ip, #-609]!	; 0x261
    16ac:	6c6c645f 	cfstrdvs	mvd6, [ip], #-380	; 0xfffffe84
    16b0:	6f680078 	svcvs	0x00680078
    16b4:	665f646c 	ldrbvs	r6, [pc], -ip, ror #8
    16b8:	0067616c 	rsbeq	r6, r7, ip, ror #2
    16bc:	4d415244 	sfmmi	f5, 2, [r1, #-272]	; 0xfffffef0
    16c0:	65675f43 	strbvs	r5, [r7, #-3907]!	; 0xf43
    16c4:	72645f74 	rsbvc	r5, r4, #464	; 0x1d0
    16c8:	735f6d61 	cmpvc	pc, #6208	; 0x1840
    16cc:	00657a69 	rsbeq	r7, r5, r9, ror #20
    16d0:	6d617264 	sfmvs	f7, 2, [r1, #-400]!	; 0xfffffe70
    16d4:	7465735f 	strbtvc	r7, [r5], #-863	; 0x35f
    16d8:	6f6c635f 	svcvs	0x006c635f
    16dc:	5f006b63 	svcpl	0x00006b63
    16e0:	6172645f 	cmnvs	r2, pc, asr r4
    16e4:	61705f6d 	cmnvs	r0, sp, ror #30
    16e8:	745f6172 	ldrbvc	r6, [pc], #-370	; 16f0 <__dram_freq_start+0x16f0>
    16ec:	61726400 	cmnvs	r2, r0, lsl #8
    16f0:	65735f6d 	ldrbvs	r5, [r3, #-3949]!	; 0xf6d
    16f4:	75615f74 	strbvc	r5, [r1, #-3956]!	; 0xf74
    16f8:	65726f74 	ldrbvs	r6, [r2, #-3956]!	; 0xf74
    16fc:	73657266 	cmnvc	r5, #1610612742	; 0x60000006
    1700:	79635f68 	stmdbvc	r3!, {r3, r5, r6, r8, r9, sl, fp, ip, lr}^
    1704:	00656c63 	rsbeq	r6, r5, r3, ror #24
    1708:	746f6f62 	strbtvc	r6, [pc], #-3938	; 1710 <__dram_freq_start+0x1710>
    170c:	61705f30 	cmnvs	r0, r0, lsr pc
    1710:	64006172 	strvs	r6, [r0], #-370	; 0x172
    1714:	5f6d6172 	svcpl	0x006d6172
    1718:	6e616373 	mcrvs	3, 3, r6, cr1, cr3, {3}
    171c:	6165725f 	cmnvs	r5, pc, asr r2
    1720:	70697064 	rsbvc	r7, r9, r4, rrx
    1724:	2f2e0065 	svccs	0x002e0065
    1728:	732f2e2e 	teqvc	pc, #736	; 0x2e0
    172c:	646e6174 	strbtvs	r6, [lr], #-372	; 0x174
    1730:	642f7962 	strtvs	r7, [pc], #-2402	; 1738 <__dram_freq_start+0x1738>
    1734:	2f6d6172 	svccs	0x006d6172
    1738:	6d617264 	sfmvs	f7, 2, [r1, #-400]!	; 0xfffffe70
    173c:	696e695f 	stmdbvs	lr!, {r0, r1, r2, r3, r4, r6, r8, fp, sp, lr}^
    1740:	00632e74 	rsbeq	r2, r3, r4, ror lr
    1744:	5f6d656d 	svcpl	0x006d656d
    1748:	616c6564 	cmnvs	ip, r4, ror #10
    174c:	72640079 	rsbvc	r0, r4, #121	; 0x79
    1750:	735f6d61 	cmpvc	pc, #6208	; 0x1840
    1754:	645f7465 	ldrbvs	r7, [pc], #-1125	; 175c <__dram_freq_start+0x175c>
    1758:	65766972 	ldrbvs	r6, [r6, #-2418]!	; 0x972
    175c:	61726400 	cmnvs	r2, r0, lsl #8
    1760:	78655f6d 	stmdavc	r5!, {r0, r2, r3, r5, r6, r8, r9, sl, fp, ip, lr}^
    1764:	64007469 	strvs	r7, [r0], #-1129	; 0x469
    1768:	5f6d6172 	svcpl	0x006d6172
    176c:	5f746567 	svcpl	0x00746567
    1770:	657a6973 	ldrbvs	r6, [sl, #-2419]!	; 0x973
    1774:	73716400 	cmnvc	r1, #0
    1778:	6168705f 	qdsubvs	r7, pc, r8	; <UNPREDICTABLE>
    177c:	70006573 	andvc	r6, r0, r3, ror r5
    1780:	745f6c6c 	ldrbvc	r6, [pc], #-3180	; 1788 <__dram_freq_start+0x1788>
    1784:	655f6e75 	ldrbvs	r6, [pc, #-3701]	; 917 <__dram_freq_start+0x917>
    1788:	5244006e 	subpl	r0, r4, #110	; 0x6e
    178c:	5f434d41 	svcpl	0x00434d41
    1790:	74696e69 	strbtvc	r6, [r9], #-3689	; 0xe69
    1794:	74636d00 	strbtvc	r6, [r3], #-3328	; 0xd00
    1798:	69645f6c 	stmdbvs	r4!, {r2, r3, r5, r6, r8, r9, sl, fp, ip, lr}^
    179c:	6c626173 	stfvse	f6, [r2], #-460	; 0xfffffe34
    17a0:	6c645f65 	stclvs	15, cr5, [r4], #-404	; 0xfffffe6c
    17a4:	6e69006c 	cdpvs	0, 6, cr0, cr9, cr12, {3}
    17a8:	445f7469 	ldrbmi	r7, [pc], #-1129	; 17b0 <__dram_freq_start+0x17b0>
    17ac:	004d4152 	subeq	r4, sp, r2, asr r1
    17b0:	75746573 	ldrbvc	r6, [r4, #-1395]!	; 0x573
    17b4:	72645f70 	rsbvc	r5, r4, #448	; 0x1c0
    17b8:	705f6d61 	subsvc	r6, pc, r1, ror #26
    17bc:	64006c6c 	strvs	r6, [r0], #-3180	; 0xc6c
    17c0:	5f6d6172 	svcpl	0x006d6172
    17c4:	74696e69 	strbtvc	r6, [r9], #-3689	; 0xe69
    17c8:	41524400 	cmpmi	r2, r0, lsl #8
    17cc:	735f434d 	cmpvc	pc, #872415233	; 0x34000001
    17d0:	5f6e6163 	svcpl	0x006e6163
    17d4:	64616572 	strbtvs	r6, [r1], #-1394	; 0x572
    17d8:	65706970 	ldrbvs	r6, [r0, #-2416]!	; 0x970
    17dc:	74636d00 	strbtvc	r6, [r3], #-3328	; 0xd00
    17e0:	6e655f6c 	cdpvs	15, 6, cr5, cr5, cr12, {3}
    17e4:	656c6261 	strbvs	r6, [ip, #-609]!	; 0x261
    17e8:	6c6c645f 	cfstrdvs	mvd6, [ip], #-380	; 0xfffffe84
    17ec:	52440030 	subpl	r0, r4, #48	; 0x30
    17f0:	5f434d41 	svcpl	0x00434d41
    17f4:	636f6c63 	cmnvs	pc, #25344	; 0x6300
    17f8:	756f5f6b 	strbvc	r5, [pc, #-3947]!	; 895 <__dram_freq_start+0x895>
    17fc:	74757074 	ldrbtvc	r7, [r5], #-116	; 0x74
    1800:	006e655f 	rsbeq	r6, lr, pc, asr r5
    1804:	4d415244 	sfmmi	f5, 2, [r1, #-272]	; 0xfffffef0
    1808:	65735f43 	ldrbvs	r5, [r3, #-3907]!	; 0xf43
    180c:	75615f74 	strbvc	r5, [r1, #-3956]!	; 0xf74
    1810:	65726f74 	ldrbvs	r6, [r2, #-3956]!	; 0xf74
    1814:	73657266 	cmnvc	r5, #1610612742	; 0x60000006
    1818:	79635f68 	stmdbvc	r3!, {r3, r5, r6, r8, r9, sl, fp, ip, lr}^
    181c:	00656c63 	rsbeq	r6, r5, r3, ror #24
    1820:	6c74636d 	ldclvs	3, cr6, [r4], #-436	; 0xfffffe4c
    1824:	6d74695f 	ldclvs	9, cr6, [r4, #-380]!	; 0xfffffe84
    1828:	7369645f 	cmnvc	r9, #1593835520	; 0x5f000000
    182c:	656c6261 	strbvs	r6, [ip, #-609]!	; 0x261
    1830:	706d7400 	rsbvc	r7, sp, r0, lsl #8
    1834:	6c61765f 	stclvs	6, cr7, [r1], #-380	; 0xfffffe84
    1838:	74636d00 	strbtvc	r6, [r3], #-3328	; 0xd00
    183c:	65735f6c 	ldrbvs	r5, [r3, #-3948]!	; 0xf6c
    1840:	72645f74 	rsbvc	r5, r4, #464	; 0x1d0
    1844:	00657669 	rsbeq	r7, r5, r9, ror #12
    1848:	38755f5f 	ldmdacc	r5!, {r0, r1, r2, r3, r4, r6, r8, r9, sl, fp, ip, lr}^
    184c:	74636d00 	strbtvc	r6, [r3], #-3328	; 0xd00
    1850:	64645f6c 	strbtvs	r5, [r4], #-3948	; 0xf6c
    1854:	725f3372 	subsvc	r3, pc, #-939524095	; 0xc8000001
    1858:	74657365 	strbtvc	r7, [r5], #-869	; 0x365
    185c:	74636d00 	strbtvc	r6, [r3], #-3328	; 0xd00
    1860:	65735f6c 	ldrbvs	r5, [r3, #-3948]!	; 0xf6c
    1864:	725f666c 	subsvc	r6, pc, #113246208	; 0x6c00000
    1868:	65726665 	ldrbvs	r6, [r2, #-1637]!	; 0x665
    186c:	655f6873 	ldrbvs	r6, [pc, #-2163]	; 1001 <__dram_freq_start+0x1001>
    1870:	7972746e 	ldmdbvc	r2!, {r1, r2, r3, r5, r6, sl, ip, sp, lr}^
    1874:	74636d00 	strbtvc	r6, [r3], #-3328	; 0xd00
    1878:	74695f6c 	strbtvc	r5, [r9], #-3948	; 0xf6c
    187c:	6e655f6d 	cdpvs	15, 6, cr5, cr5, cr13, {3}
    1880:	656c6261 	strbvs	r6, [ip, #-609]!	; 0x261
    1884:	74657200 	strbtvc	r7, [r5], #-512	; 0x200
    1888:	6c61765f 	stclvs	6, cr7, [r1], #-380	; 0xfffffe84
    188c:	67657200 	strbvs	r7, [r5, -r0, lsl #4]!
    1890:	6c61765f 	stclvs	6, cr7, [r1], #-380	; 0xfffffe84
    1894:	68006575 	stmdavs	r0, {r0, r2, r4, r5, r6, r8, sl, sp, lr}
    1898:	5f726370 	svcpl	0x00726370
    189c:	756c6176 	strbvc	r6, [ip, #-374]!	; 0x176
    18a0:	61730065 	cmnvs	r3, r5, rrx
    18a4:	6d5f6576 	cfldr64vs	mvdx6, [pc, #-472]	; 16d4 <__dram_freq_start+0x16d4>
    18a8:	735f6d65 	cmpvc	pc, #6464	; 0x1940
    18ac:	75746174 	ldrbvc	r6, [r4, #-372]!	; 0x174
    18b0:	6c640073 	stclvs	0, cr0, [r4], #-460	; 0xfffffe34
    18b4:	756e5f6c 	strbvc	r5, [lr, #-3948]!	; 0xf6c
    18b8:	Address 0x000018b8 is out of bounds.


Disassembly of section .comment:

00000000 <.comment>:
   0:	3a434347 	bcc	10d0d24 <__dram_freq_start+0x10d0d24>
   4:	72632820 	rsbvc	r2, r3, #2097152	; 0x200000
   8:	7473736f 	ldrbtvc	r7, [r3], #-879	; 0x36f
   c:	2d6c6f6f 	stclcs	15, cr6, [ip, #-444]!	; 0xfffffe44
  10:	6c20474e 	stcvs	7, cr4, [r0], #-312	; 0xfffffec8
  14:	72616e69 	rsbvc	r6, r1, #1680	; 0x690
  18:	2e312d6f 	cdpcs	13, 3, cr2, cr1, cr15, {3}
  1c:	312e3331 	teqcc	lr, r1, lsr r3
  20:	3130322d 	teqcc	r0, sp, lsr #4
  24:	32302e32 	eorscc	r2, r0, #800	; 0x320
  28:	3130322d 	teqcc	r0, sp, lsr #4
  2c:	32323032 	eorscc	r3, r2, #50	; 0x32
  30:	202d2032 	eorcs	r2, sp, r2, lsr r0
  34:	616e694c 	cmnvs	lr, ip, asr #18
  38:	47206f72 			; <UNDEFINED> instruction: 0x47206f72
  3c:	32204343 	eorcc	r4, r0, #201326593	; 0xc000001
  40:	2e323130 	mrccs	1, 1, r3, cr2, cr0, {1}
  44:	20293230 	eorcs	r3, r9, r0, lsr r2
  48:	2e362e34 	mrccs	14, 1, r2, cr6, cr4, {1}
  4c:	30322033 	eorscc	r2, r2, r3, lsr r0
  50:	32303231 	eorscc	r3, r0, #268435459	; 0x10000003
  54:	28203130 	stmdacs	r0!, {r4, r5, r8, ip, sp}
  58:	72657270 	rsbvc	r7, r5, #7
  5c:	61656c65 	cmnvs	r5, r5, ror #24
  60:	00296573 	eoreq	r6, r9, r3, ror r5

Disassembly of section .ARM.attributes:

00000000 <.ARM.attributes>:
   0:	00003241 	andeq	r3, r0, r1, asr #4
   4:	61656100 	cmnvs	r5, r0, lsl #2
   8:	01006962 	tsteq	r0, r2, ror #18
   c:	00000028 	andeq	r0, r0, r8, lsr #32
  10:	412d3705 	teqmi	sp, r5, lsl #14
  14:	070a0600 	streq	r0, [sl, -r0, lsl #12]
  18:	09010841 	stmdbeq	r1, {r0, r6, fp}
  1c:	12040a02 	andne	r0, r4, #8192	; 0x2000
  20:	15011404 	strne	r1, [r1, #-1028]	; 0x404
  24:	18031701 	stmdane	r3, {r0, r8, r9, sl, ip}
  28:	1b021a01 	blne	86834 <__dram_freq_start+0x86834>
  2c:	22021e03 	andcs	r1, r2, #48	; 0x30
  30:	Address 0x00000030 is out of bounds.


Disassembly of section .debug_frame:

00000000 <.debug_frame>:
   0:	0000000c 	andeq	r0, r0, ip
   4:	ffffffff 			; <UNDEFINED> instruction: 0xffffffff
   8:	7c020001 	stcvc	0, cr0, [r2], {1}
   c:	000d0c0e 	andeq	r0, sp, lr, lsl #24
  10:	0000000c 	andeq	r0, r0, ip
  14:	00000000 	andeq	r0, r0, r0
  18:	f00000c4 			; <UNDEFINED> instruction: 0xf00000c4
  1c:	00000034 	andeq	r0, r0, r4, lsr r0
  20:	00000014 	andeq	r0, r0, r4, lsl r0
  24:	00000000 	andeq	r0, r0, r0
  28:	f0000000 			; <UNDEFINED> instruction: 0xf0000000
  2c:	000000c4 	andeq	r0, r0, r4, asr #1
  30:	8e080e48 	cdphi	14, 0, cr0, cr8, cr8, {2}
  34:	00028401 	andeq	r8, r2, r1, lsl #8
  38:	0000000c 	andeq	r0, r0, ip
  3c:	ffffffff 			; <UNDEFINED> instruction: 0xffffffff
  40:	7c020001 	stcvc	0, cr0, [r2], {1}
  44:	000d0c0e 	andeq	r0, sp, lr, lsl #24
  48:	0000000c 	andeq	r0, r0, ip
  4c:	00000038 	andeq	r0, r0, r8, lsr r0
  50:	f00000f8 			; <UNDEFINED> instruction: 0xf00000f8
  54:	00000014 	andeq	r0, r0, r4, lsl r0
  58:	0000000c 	andeq	r0, r0, ip
  5c:	00000038 	andeq	r0, r0, r8, lsr r0
  60:	f000010c 			; <UNDEFINED> instruction: 0xf000010c
  64:	00000008 	andeq	r0, r0, r8
  68:	0000000c 	andeq	r0, r0, ip
  6c:	00000038 	andeq	r0, r0, r8, lsr r0
  70:	f0000114 			; <UNDEFINED> instruction: 0xf0000114
  74:	0000004c 	andeq	r0, r0, ip, asr #32
  78:	0000000c 	andeq	r0, r0, ip
  7c:	00000038 	andeq	r0, r0, r8, lsr r0
  80:	f0000160 			; <UNDEFINED> instruction: 0xf0000160
  84:	0000006c 	andeq	r0, r0, ip, rrx
  88:	00000014 	andeq	r0, r0, r4, lsl r0
  8c:	00000038 	andeq	r0, r0, r8, lsr r0
  90:	f00001cc 			; <UNDEFINED> instruction: 0xf00001cc
  94:	00000078 	andeq	r0, r0, r8, ror r0
  98:	84040e42 	strhi	r0, [r4], #-3650	; 0xe42
  9c:	00000001 	andeq	r0, r0, r1
  a0:	0000000c 	andeq	r0, r0, ip
  a4:	00000038 	andeq	r0, r0, r8, lsr r0
  a8:	f0000244 			; <UNDEFINED> instruction: 0xf0000244
  ac:	0000004c 	andeq	r0, r0, ip, asr #32
  b0:	0000000c 	andeq	r0, r0, ip
  b4:	ffffffff 			; <UNDEFINED> instruction: 0xffffffff
  b8:	7c020001 	stcvc	0, cr0, [r2], {1}
  bc:	000d0c0e 	andeq	r0, sp, lr, lsl #24
  c0:	0000000c 	andeq	r0, r0, ip
  c4:	000000b0 	strheq	r0, [r0], -r0	; <UNPREDICTABLE>
  c8:	f0000290 			; <UNDEFINED> instruction: 0xf0000290
  cc:	0000002c 	andeq	r0, r0, ip, lsr #32
  d0:	0000000c 	andeq	r0, r0, ip
  d4:	000000b0 	strheq	r0, [r0], -r0	; <UNPREDICTABLE>
  d8:	f00002bc 			; <UNDEFINED> instruction: 0xf00002bc
  dc:	0000001c 	andeq	r0, r0, ip, lsl r0
  e0:	0000000c 	andeq	r0, r0, ip
  e4:	000000b0 	strheq	r0, [r0], -r0	; <UNPREDICTABLE>
  e8:	f00002d8 			; <UNDEFINED> instruction: 0xf00002d8
  ec:	00000028 	andeq	r0, r0, r8, lsr #32
  f0:	0000000c 	andeq	r0, r0, ip
  f4:	000000b0 	strheq	r0, [r0], -r0	; <UNPREDICTABLE>
  f8:	f0000300 			; <UNDEFINED> instruction: 0xf0000300
  fc:	00000040 	andeq	r0, r0, r0, asr #32
 100:	00000014 	andeq	r0, r0, r4, lsl r0
 104:	000000b0 	strheq	r0, [r0], -r0	; <UNPREDICTABLE>
 108:	f0000340 			; <UNDEFINED> instruction: 0xf0000340
 10c:	00000068 	andeq	r0, r0, r8, rrx
 110:	84040e44 	strhi	r0, [r4], #-3652	; 0xe44
 114:	00000001 	andeq	r0, r0, r1
 118:	0000000c 	andeq	r0, r0, ip
 11c:	000000b0 	strheq	r0, [r0], -r0	; <UNPREDICTABLE>
 120:	f00003a8 			; <UNDEFINED> instruction: 0xf00003a8
 124:	00000030 	andeq	r0, r0, r0, lsr r0
 128:	0000000c 	andeq	r0, r0, ip
 12c:	000000b0 	strheq	r0, [r0], -r0	; <UNPREDICTABLE>
 130:	f00003d8 			; <UNDEFINED> instruction: 0xf00003d8
 134:	00000078 	andeq	r0, r0, r8, ror r0
 138:	00000024 	andeq	r0, r0, r4, lsr #32
 13c:	000000b0 	strheq	r0, [r0], -r0	; <UNPREDICTABLE>
 140:	f0000450 			; <UNDEFINED> instruction: 0xf0000450
 144:	000000e4 	andeq	r0, r0, r4, ror #1
 148:	8e200e42 	cdphi	14, 2, cr0, cr0, cr2, {2}
 14c:	89028a01 	stmdbhi	r2, {r0, r9, fp, pc}
 150:	87048803 	strhi	r8, [r4, -r3, lsl #16]
 154:	85068605 	strhi	r8, [r6, #-1541]	; 0x605
 158:	4c088407 	cfstrsmi	mvf8, [r8], {7}
 15c:	0000480e 	andeq	r4, r0, lr, lsl #16
 160:	00000020 	andeq	r0, r0, r0, lsr #32
 164:	000000b0 	strheq	r0, [r0], -r0	; <UNPREDICTABLE>
 168:	f0000534 			; <UNDEFINED> instruction: 0xf0000534
 16c:	000000bc 	strheq	r0, [r0], -ip
 170:	8e1c0e42 	cdphi	14, 1, cr0, cr12, cr2, {2}
 174:	88028a01 	stmdahi	r2, {r0, r9, fp, pc}
 178:	86048703 	strhi	r8, [r4], -r3, lsl #14
 17c:	84068505 	strhi	r8, [r6], #-1285	; 0x505
 180:	480e4c07 	stmdami	lr, {r0, r1, r2, sl, fp, lr}
 184:	0000001c 	andeq	r0, r0, ip, lsl r0
 188:	000000b0 	strheq	r0, [r0], -r0	; <UNPREDICTABLE>
 18c:	f00005f0 			; <UNDEFINED> instruction: 0xf00005f0
 190:	0000005c 	andeq	r0, r0, ip, asr r0
 194:	8e140e42 	cdphi	14, 1, cr0, cr4, cr2, {2}
 198:	86028701 	strhi	r8, [r2], -r1, lsl #14
 19c:	84048503 	strhi	r8, [r4], #-1283	; 0x503
 1a0:	300e4c05 	andcc	r4, lr, r5, lsl #24
 1a4:	00000030 	andeq	r0, r0, r0, lsr r0
 1a8:	000000b0 	strheq	r0, [r0], -r0	; <UNPREDICTABLE>
 1ac:	f000064c 			; <UNDEFINED> instruction: 0xf000064c
 1b0:	000002f0 	strdeq	r0, [r0], -r0	; <UNPREDICTABLE>
 1b4:	83100e42 	tsthi	r0, #1056	; 0x420
 1b8:	81028201 	tsthi	r2, r1, lsl #4
 1bc:	44048003 	strmi	r8, [r4], #-3
 1c0:	058e300e 	streq	r3, [lr, #14]
 1c4:	0789068a 	streq	r0, [r9, sl, lsl #13]
 1c8:	09870888 	stmibeq	r7, {r3, r7, fp}
 1cc:	0b850a86 	bleq	fe142bec <__bss_end+0xe13fab4>
 1d0:	0e420c84 	cdpeq	12, 4, cr0, cr2, cr4, {4}
 1d4:	00000048 	andeq	r0, r0, r8, asr #32
 1d8:	00000030 	andeq	r0, r0, r0, lsr r0
 1dc:	000000b0 	strheq	r0, [r0], -r0	; <UNPREDICTABLE>
 1e0:	f000093c 			; <UNDEFINED> instruction: 0xf000093c
 1e4:	000002d4 	ldrdeq	r0, [r0], -r4
 1e8:	83100e42 	tsthi	r0, #1056	; 0x420
 1ec:	81028201 	tsthi	r2, r1, lsl #4
 1f0:	42048003 	andmi	r8, r4, #3
 1f4:	058e300e 	streq	r3, [lr, #14]
 1f8:	0789068a 	streq	r0, [r9, sl, lsl #13]
 1fc:	09870888 	stmibeq	r7, {r3, r7, fp}
 200:	0b850a86 	bleq	fe142c20 <__bss_end+0xe13fae8>
 204:	0e420c84 	cdpeq	12, 4, cr0, cr2, cr4, {4}
 208:	00000048 	andeq	r0, r0, r8, asr #32
 20c:	0000000c 	andeq	r0, r0, ip
 210:	ffffffff 			; <UNDEFINED> instruction: 0xffffffff
 214:	7c020001 	stcvc	0, cr0, [r2], {1}
 218:	000d0c0e 	andeq	r0, sp, lr, lsl #24
 21c:	0000000c 	andeq	r0, r0, ip
 220:	0000020c 	andeq	r0, r0, ip, lsl #4
 224:	f0000c10 			; <UNDEFINED> instruction: 0xf0000c10
 228:	0000000c 	andeq	r0, r0, ip
 22c:	0000000c 	andeq	r0, r0, ip
 230:	0000020c 	andeq	r0, r0, ip, lsl #4
 234:	f0000c1c 			; <UNDEFINED> instruction: 0xf0000c1c
 238:	0000004c 	andeq	r0, r0, ip, asr #32
 23c:	0000000c 	andeq	r0, r0, ip
 240:	ffffffff 			; <UNDEFINED> instruction: 0xffffffff
 244:	7c020001 	stcvc	0, cr0, [r2], {1}
 248:	000d0c0e 	andeq	r0, sp, lr, lsl #24
 24c:	0000000c 	andeq	r0, r0, ip
 250:	0000023c 	andeq	r0, r0, ip, lsr r2
 254:	f0000e38 			; <UNDEFINED> instruction: 0xf0000e38
 258:	0000002c 	andeq	r0, r0, ip, lsr #32
 25c:	0000000c 	andeq	r0, r0, ip
 260:	0000023c 	andeq	r0, r0, ip, lsr r2
 264:	f0000e64 			; <UNDEFINED> instruction: 0xf0000e64
 268:	0000001c 	andeq	r0, r0, ip, lsl r0
 26c:	0000000c 	andeq	r0, r0, ip
 270:	0000023c 	andeq	r0, r0, ip, lsr r2
 274:	f0000e80 			; <UNDEFINED> instruction: 0xf0000e80
 278:	00000024 	andeq	r0, r0, r4, lsr #32
 27c:	0000000c 	andeq	r0, r0, ip
 280:	0000023c 	andeq	r0, r0, ip, lsr r2
 284:	f0000ea4 			; <UNDEFINED> instruction: 0xf0000ea4
 288:	00000008 	andeq	r0, r0, r8
 28c:	0000000c 	andeq	r0, r0, ip
 290:	0000023c 	andeq	r0, r0, ip, lsr r2
 294:	f0000eac 			; <UNDEFINED> instruction: 0xf0000eac
 298:	00000014 	andeq	r0, r0, r4, lsl r0
 29c:	00000014 	andeq	r0, r0, r4, lsl r0
 2a0:	0000023c 	andeq	r0, r0, ip, lsr r2
 2a4:	f0000ec0 			; <UNDEFINED> instruction: 0xf0000ec0
 2a8:	0000009c 	muleq	r0, ip, r0
 2ac:	8e080e4a 	cdphi	14, 0, cr0, cr8, cr10, {2}
 2b0:	00028401 	andeq	r8, r2, r1, lsl #8
 2b4:	00000018 	andeq	r0, r0, r8, lsl r0
 2b8:	0000023c 	andeq	r0, r0, ip, lsr r2
 2bc:	f0000f5c 			; <UNDEFINED> instruction: 0xf0000f5c
 2c0:	00000058 	andeq	r0, r0, r8, asr r0
 2c4:	8e100e42 	cdphi	14, 1, cr0, cr0, cr2, {2}
 2c8:	84028501 	strhi	r8, [r2], #-1281	; 0x501
 2cc:	00048303 	andeq	r8, r4, r3, lsl #6
 2d0:	0000000c 	andeq	r0, r0, ip
 2d4:	0000023c 	andeq	r0, r0, ip, lsr r2
 2d8:	f0000fb4 			; <UNDEFINED> instruction: 0xf0000fb4
 2dc:	0000000c 	andeq	r0, r0, ip
 2e0:	0000000c 	andeq	r0, r0, ip
 2e4:	0000023c 	andeq	r0, r0, ip, lsr r2
 2e8:	f0000fc0 			; <UNDEFINED> instruction: 0xf0000fc0
 2ec:	0000002c 	andeq	r0, r0, ip, lsr #32
 2f0:	0000000c 	andeq	r0, r0, ip
 2f4:	0000023c 	andeq	r0, r0, ip, lsr r2
 2f8:	f0000fec 			; <UNDEFINED> instruction: 0xf0000fec
 2fc:	0000002c 	andeq	r0, r0, ip, lsr #32
 300:	0000000c 	andeq	r0, r0, ip
 304:	0000023c 	andeq	r0, r0, ip, lsr r2
 308:	f0001018 			; <UNDEFINED> instruction: 0xf0001018
 30c:	0000002c 	andeq	r0, r0, ip, lsr #32
 310:	0000000c 	andeq	r0, r0, ip
 314:	ffffffff 			; <UNDEFINED> instruction: 0xffffffff
 318:	7c020001 	stcvc	0, cr0, [r2], {1}
 31c:	000d0c0e 	andeq	r0, sp, lr, lsl #24
 320:	00000018 	andeq	r0, r0, r8, lsl r0
 324:	00000310 	andeq	r0, r0, r0, lsl r3
 328:	f00014c0 			; <UNDEFINED> instruction: 0xf00014c0
 32c:	00000074 	andeq	r0, r0, r4, ror r0
 330:	8e080e42 	cdphi	14, 0, cr0, cr8, cr2, {2}
 334:	42028b01 	andmi	r8, r2, #1024	; 0x400
 338:	00040b0c 	andeq	r0, r4, ip, lsl #22
 33c:	00000014 	andeq	r0, r0, r4, lsl r0
 340:	00000310 	andeq	r0, r0, r0, lsl r3
 344:	f0001534 			; <UNDEFINED> instruction: 0xf0001534
 348:	0000006c 	andeq	r0, r0, ip, rrx
 34c:	8b040e42 	blhi	103c5c <__dram_freq_start+0x103c5c>
 350:	0b0d4201 	bleq	350b5c <__dram_freq_start+0x350b5c>
 354:	00000014 	andeq	r0, r0, r4, lsl r0
 358:	00000310 	andeq	r0, r0, r0, lsl r3
 35c:	f00015a0 			; <UNDEFINED> instruction: 0xf00015a0
 360:	00000058 	andeq	r0, r0, r8, asr r0
 364:	8b040e42 	blhi	103c74 <__dram_freq_start+0x103c74>
 368:	0b0d4201 	bleq	350b74 <__dram_freq_start+0x350b74>
 36c:	00000014 	andeq	r0, r0, r4, lsl r0
 370:	00000310 	andeq	r0, r0, r0, lsl r3
 374:	f00015f8 			; <UNDEFINED> instruction: 0xf00015f8
 378:	0000004c 	andeq	r0, r0, ip, asr #32
 37c:	8b040e42 	blhi	103c8c <__dram_freq_start+0x103c8c>
 380:	0b0d4201 	bleq	350b8c <__dram_freq_start+0x350b8c>
 384:	00000018 	andeq	r0, r0, r8, lsl r0
 388:	00000310 	andeq	r0, r0, r0, lsl r3
 38c:	f0001644 			; <UNDEFINED> instruction: 0xf0001644
 390:	000000bc 	strheq	r0, [r0], -ip
 394:	8e080e42 	cdphi	14, 0, cr0, cr8, cr2, {2}
 398:	42028b01 	andmi	r8, r2, #1024	; 0x400
 39c:	00040b0c 	andeq	r0, r4, ip, lsl #22
 3a0:	00000018 	andeq	r0, r0, r8, lsl r0
 3a4:	00000310 	andeq	r0, r0, r0, lsl r3
 3a8:	f0001700 			; <UNDEFINED> instruction: 0xf0001700
 3ac:	00000204 	andeq	r0, r0, r4, lsl #4
 3b0:	8e080e42 	cdphi	14, 0, cr0, cr8, cr2, {2}
 3b4:	42028b01 	andmi	r8, r2, #1024	; 0x400
 3b8:	00040b0c 	andeq	r0, r4, ip, lsl #22
 3bc:	00000014 	andeq	r0, r0, r4, lsl r0
 3c0:	00000310 	andeq	r0, r0, r0, lsl r3
 3c4:	f0001904 			; <UNDEFINED> instruction: 0xf0001904
 3c8:	00000130 	andeq	r0, r0, r0, lsr r1
 3cc:	8b040e42 	blhi	103cdc <__dram_freq_start+0x103cdc>
 3d0:	0b0d4201 	bleq	350bdc <__dram_freq_start+0x350bdc>
 3d4:	00000014 	andeq	r0, r0, r4, lsl r0
 3d8:	00000310 	andeq	r0, r0, r0, lsl r3
 3dc:	f0001a34 			; <UNDEFINED> instruction: 0xf0001a34
 3e0:	000000f0 	strdeq	r0, [r0], -r0	; <UNPREDICTABLE>
 3e4:	8b040e42 	blhi	103cf4 <__dram_freq_start+0x103cf4>
 3e8:	0b0d4201 	bleq	350bf4 <__dram_freq_start+0x350bf4>
 3ec:	00000018 	andeq	r0, r0, r8, lsl r0
 3f0:	00000310 	andeq	r0, r0, r0, lsl r3
 3f4:	f0001b24 			; <UNDEFINED> instruction: 0xf0001b24
 3f8:	0000021c 	andeq	r0, r0, ip, lsl r2
 3fc:	8e080e42 	cdphi	14, 0, cr0, cr8, cr2, {2}
 400:	42028b01 	andmi	r8, r2, #1024	; 0x400
 404:	00040b0c 	andeq	r0, r4, ip, lsl #22
 408:	00000018 	andeq	r0, r0, r8, lsl r0
 40c:	00000310 	andeq	r0, r0, r0, lsl r3
 410:	f0001d40 			; <UNDEFINED> instruction: 0xf0001d40
 414:	000007b8 			; <UNDEFINED> instruction: 0x000007b8
 418:	8e080e42 	cdphi	14, 0, cr0, cr8, cr2, {2}
 41c:	42028b01 	andmi	r8, r2, #1024	; 0x400
 420:	00040b0c 	andeq	r0, r4, ip, lsl #22
 424:	00000014 	andeq	r0, r0, r4, lsl r0
 428:	00000310 	andeq	r0, r0, r0, lsl r3
 42c:	f00024f8 			; <UNDEFINED> instruction: 0xf00024f8
 430:	000000bc 	strheq	r0, [r0], -ip
 434:	8b040e42 	blhi	103d44 <__dram_freq_start+0x103d44>
 438:	0b0d4201 	bleq	350c44 <__dram_freq_start+0x350c44>
 43c:	00000014 	andeq	r0, r0, r4, lsl r0
 440:	00000310 	andeq	r0, r0, r0, lsl r3
 444:	f00025b4 			; <UNDEFINED> instruction: 0xf00025b4
 448:	00000064 	andeq	r0, r0, r4, rrx
 44c:	8b040e42 	blhi	103d5c <__dram_freq_start+0x103d5c>
 450:	0b0d4201 	bleq	350c5c <__dram_freq_start+0x350c5c>
 454:	00000014 	andeq	r0, r0, r4, lsl r0
 458:	00000310 	andeq	r0, r0, r0, lsl r3
 45c:	f0002618 			; <UNDEFINED> instruction: 0xf0002618
 460:	00000080 	andeq	r0, r0, r0, lsl #1
 464:	8b040e42 	blhi	103d74 <__dram_freq_start+0x103d74>
 468:	0b0d4201 	bleq	350c74 <__dram_freq_start+0x350c74>
 46c:	00000014 	andeq	r0, r0, r4, lsl r0
 470:	00000310 	andeq	r0, r0, r0, lsl r3
 474:	f0002698 			; <UNDEFINED> instruction: 0xf0002698
 478:	00000120 	andeq	r0, r0, r0, lsr #2
 47c:	8b040e42 	blhi	103d8c <__dram_freq_start+0x103d8c>
 480:	0b0d4201 	bleq	350c8c <__dram_freq_start+0x350c8c>
 484:	00000014 	andeq	r0, r0, r4, lsl r0
 488:	00000310 	andeq	r0, r0, r0, lsl r3
 48c:	f00027b8 			; <UNDEFINED> instruction: 0xf00027b8
 490:	0000001c 	andeq	r0, r0, ip, lsl r0
 494:	8b040e42 	blhi	103da4 <__dram_freq_start+0x103da4>
 498:	0b0d4201 	bleq	350ca4 <__dram_freq_start+0x350ca4>
 49c:	00000014 	andeq	r0, r0, r4, lsl r0
 4a0:	00000310 	andeq	r0, r0, r0, lsl r3
 4a4:	f00027d4 			; <UNDEFINED> instruction: 0xf00027d4
 4a8:	0000001c 	andeq	r0, r0, ip, lsl r0
 4ac:	8b040e42 	blhi	103dbc <__dram_freq_start+0x103dbc>
 4b0:	0b0d4201 	bleq	350cbc <__dram_freq_start+0x350cbc>
 4b4:	00000018 	andeq	r0, r0, r8, lsl r0
 4b8:	00000310 	andeq	r0, r0, r0, lsl r3
 4bc:	f00027f0 			; <UNDEFINED> instruction: 0xf00027f0
 4c0:	00000098 	muleq	r0, r8, r0
 4c4:	8e080e42 	cdphi	14, 0, cr0, cr8, cr2, {2}
 4c8:	42028b01 	andmi	r8, r2, #1024	; 0x400
 4cc:	00040b0c 	andeq	r0, r4, ip, lsl #22
 4d0:	00000018 	andeq	r0, r0, r8, lsl r0
 4d4:	00000310 	andeq	r0, r0, r0, lsl r3
 4d8:	f0002888 			; <UNDEFINED> instruction: 0xf0002888
 4dc:	00000150 	andeq	r0, r0, r0, asr r1
 4e0:	8e080e42 	cdphi	14, 0, cr0, cr8, cr2, {2}
 4e4:	42028b01 	andmi	r8, r2, #1024	; 0x400
 4e8:	00040b0c 	andeq	r0, r4, ip, lsl #22
 4ec:	00000018 	andeq	r0, r0, r8, lsl r0
 4f0:	00000310 	andeq	r0, r0, r0, lsl r3
 4f4:	f00029d8 			; <UNDEFINED> instruction: 0xf00029d8
 4f8:	000003dc 	ldrdeq	r0, [r0], -ip
 4fc:	8e080e42 	cdphi	14, 0, cr0, cr8, cr2, {2}
 500:	42028b01 	andmi	r8, r2, #1024	; 0x400
 504:	00040b0c 	andeq	r0, r4, ip, lsl #22
 508:	00000018 	andeq	r0, r0, r8, lsl r0
 50c:	00000310 	andeq	r0, r0, r0, lsl r3
 510:	f0002db4 			; <UNDEFINED> instruction: 0xf0002db4
 514:	00000064 	andeq	r0, r0, r4, rrx
 518:	8e080e42 	cdphi	14, 0, cr0, cr8, cr2, {2}
 51c:	42028b01 	andmi	r8, r2, #1024	; 0x400
 520:	00040b0c 	andeq	r0, r4, ip, lsl #22
 524:	00000014 	andeq	r0, r0, r4, lsl r0
 528:	00000310 	andeq	r0, r0, r0, lsl r3
 52c:	f0002e18 			; <UNDEFINED> instruction: 0xf0002e18
 530:	0000001c 	andeq	r0, r0, ip, lsl r0
 534:	8b040e42 	blhi	103e44 <__dram_freq_start+0x103e44>
 538:	0b0d4201 	bleq	350d44 <__dram_freq_start+0x350d44>
 53c:	00000018 	andeq	r0, r0, r8, lsl r0
 540:	00000310 	andeq	r0, r0, r0, lsl r3
 544:	f0002e34 			; <UNDEFINED> instruction: 0xf0002e34
 548:	00000018 	andeq	r0, r0, r8, lsl r0
 54c:	8e080e42 	cdphi	14, 0, cr0, cr8, cr2, {2}
 550:	42028b01 	andmi	r8, r2, #1024	; 0x400
 554:	00040b0c 	andeq	r0, r4, ip, lsl #22
 558:	00000018 	andeq	r0, r0, r8, lsl r0
 55c:	00000310 	andeq	r0, r0, r0, lsl r3
 560:	f0002e4c 			; <UNDEFINED> instruction: 0xf0002e4c
 564:	00000028 	andeq	r0, r0, r8, lsr #32
 568:	8e080e42 	cdphi	14, 0, cr0, cr8, cr2, {2}
 56c:	42028b01 	andmi	r8, r2, #1024	; 0x400
 570:	00040b0c 	andeq	r0, r4, ip, lsl #22
 574:	00000018 	andeq	r0, r0, r8, lsl r0
 578:	00000310 	andeq	r0, r0, r0, lsl r3
 57c:	f0002e74 			; <UNDEFINED> instruction: 0xf0002e74
 580:	00000010 	andeq	r0, r0, r0, lsl r0
 584:	8e080e42 	cdphi	14, 0, cr0, cr8, cr2, {2}
 588:	42028b01 	andmi	r8, r2, #1024	; 0x400
 58c:	00040b0c 	andeq	r0, r4, ip, lsl #22
 590:	00000018 	andeq	r0, r0, r8, lsl r0
 594:	00000310 	andeq	r0, r0, r0, lsl r3
 598:	f0002e84 			; <UNDEFINED> instruction: 0xf0002e84
 59c:	00000020 	andeq	r0, r0, r0, lsr #32
 5a0:	8e080e42 	cdphi	14, 0, cr0, cr8, cr2, {2}
 5a4:	42028b01 	andmi	r8, r2, #1024	; 0x400
 5a8:	00040b0c 	andeq	r0, r4, ip, lsl #22
 5ac:	00000018 	andeq	r0, r0, r8, lsl r0
 5b0:	00000310 	andeq	r0, r0, r0, lsl r3
 5b4:	f0002ea4 			; <UNDEFINED> instruction: 0xf0002ea4
 5b8:	00000018 	andeq	r0, r0, r8, lsl r0
 5bc:	8e080e42 	cdphi	14, 0, cr0, cr8, cr2, {2}
 5c0:	42028b01 	andmi	r8, r2, #1024	; 0x400
 5c4:	00040b0c 	andeq	r0, r4, ip, lsl #22
