Archive member included because of file (symbol)

nand_sunxi/sun7i/libnand-sun7i(nftl_uboot_interface.o)
                              nand_sunxi/nand_interface/libnand_interface.o (nftl_build_one)
nand_sunxi/sun7i/libnand-sun7i(nand_format.o)
                              nand_sunxi/nand_interface/libnand_interface.o (ClearNandStruct)
nand_sunxi/sun7i/libnand-sun7i(nand_phy.o)
                              nand_sunxi/nand_interface/libnand_interface.o (PHY_SimpleRead_Seq)
nand_sunxi/sun7i/libnand-sun7i(nand_physic_interface.o)
                              nand_sunxi/nand_interface/libnand_interface.o (NandHwInit)
nand_sunxi/sun7i/libnand-sun7i(nand_scan.o)
                              nand_sunxi/nand_interface/libnand_interface.o (NAND_GetPageSize)
nand_sunxi/sun7i/libnand-sun7i(nand_simple_r.o)
                              nand_sunxi/sun7i/libnand-sun7i(nand_phy.o) (_add_cmd_list)
nand_sunxi/sun7i/libnand-sun7i(nand_simple_w.o)
                              nand_sunxi/sun7i/libnand-sun7i(nand_phy.o) (_write_single_page_first)
nand_sunxi/sun7i/libnand-sun7i(nfc_r.o)
                              nand_sunxi/sun7i/libnand-sun7i(nand_phy.o) (NFC_InitDDRParam)
nand_sunxi/sun7i/libnand-sun7i(nfc_w.o)
                              nand_sunxi/sun7i/libnand-sun7i(nand_phy.o) (NFC_GetUniqueId)
nand_sunxi/sun7i/libnand-sun7i(build_nand_partition.o)
                              nand_sunxi/sun7i/libnand-sun7i(nftl_uboot_interface.o) (build_nand_partition)
nand_sunxi/sun7i/libnand-sun7i(build_phy_partition.o)
                              nand_sunxi/sun7i/libnand-sun7i(build_nand_partition.o) (WaitAllRb)
nand_sunxi/sun7i/libnand-sun7i(nand_info_init.o)
                              nand_sunxi/sun7i/libnand-sun7i(build_phy_partition.o) (write_new_block_table)
nand_sunxi/sun7i/libnand-sun7i(nftl_init.o)
                              nand_sunxi/sun7i/libnand-sun7i(nftl_uboot_interface.o) (nftl_malloc)
nand_sunxi/sun7i/libnand-sun7i(nand_id.o)
                              nand_sunxi/sun7i/libnand-sun7i(nand_scan.o) (DefaultNandTbl)
nand_sunxi/sun7i/libnand-sun7i(nftl_cache.o)
                              nand_sunxi/sun7i/libnand-sun7i(nftl_init.o) (__nand_write)
nand_sunxi/sun7i/libnand-sun7i(nftl_sector_cache.o)
                              nand_sunxi/sun7i/libnand-sun7i(nftl_init.o) (__nand_sector_read)
nand_sunxi/sun7i/libnand-sun7i(nftl_start.o)
                              nand_sunxi/sun7i/libnand-sun7i(nftl_init.o) (nftl_start)
nand_sunxi/sun7i/libnand-sun7i(nftl_interface.o)
                              nand_sunxi/sun7i/libnand-sun7i(nftl_init.o) (nftl_get_zone_cap)
nand_sunxi/sun7i/libnand-sun7i(nftl_logic.o)
                              nand_sunxi/sun7i/libnand-sun7i(nftl_start.o) (nftl_ops_init)
nand_sunxi/sun7i/libnand-sun7i(nftl_gc.o)
                              nand_sunxi/sun7i/libnand-sun7i(nftl_logic.o) (garbage_collect)
nand_sunxi/sun7i/libnand-sun7i(nftl_common.o)
                              nand_sunxi/sun7i/libnand-sun7i(nftl_logic.o) (set_oob_logic_page)
nand_sunxi/sun7i/libnand-sun7i(nftl_build.o)
                              nand_sunxi/sun7i/libnand-sun7i(nftl_start.o) (zone_param_init)
nand_sunxi/sun7i/libnand-sun7i(nftl_hw_interface.o)
                              nand_sunxi/sun7i/libnand-sun7i(nftl_logic.o) (_nftl_nand_erase_superblk)
nand_sunxi/sun7i/libnand-sun7i(nftl_list.o)
                              nand_sunxi/sun7i/libnand-sun7i(nftl_gc.o) (is_block_in_free_list)
/mnt/hdd1/ccfrom/A20_Tablet/A20_Tablet_repo_cut/lichee/brandy/gcc-linaro/bin/../lib/gcc/arm-linux-gnueabi/4.6.3/libgcc.a(_lshrdi3.o)
                              lib/libgeneric.o (__aeabi_llsr)
/mnt/hdd1/ccfrom/A20_Tablet/A20_Tablet_repo_cut/lichee/brandy/gcc-linaro/bin/../lib/gcc/arm-linux-gnueabi/4.6.3/libgcc.a(_ashrdi3.o)
                              drivers/video_sun7i/libvideo_sunxi.o (__aeabi_lasr)
/mnt/hdd1/ccfrom/A20_Tablet/A20_Tablet_repo_cut/lichee/brandy/gcc-linaro/bin/../lib/gcc/arm-linux-gnueabi/4.6.3/libgcc.a(_ashldi3.o)
                              drivers/mmc/libmmc.o (__aeabi_llsl)
/mnt/hdd1/ccfrom/A20_Tablet/A20_Tablet_repo_cut/lichee/brandy/gcc-linaro/bin/../lib/gcc/arm-linux-gnueabi/4.6.3/libgcc.a(_arm_addsubdf3.o)
                              drivers/power/libpower.o (__aeabi_i2d)
/mnt/hdd1/ccfrom/A20_Tablet/A20_Tablet_repo_cut/lichee/brandy/gcc-linaro/bin/../lib/gcc/arm-linux-gnueabi/4.6.3/libgcc.a(_arm_muldivdf3.o)
                              drivers/power/libpower.o (__aeabi_dmul)
/mnt/hdd1/ccfrom/A20_Tablet/A20_Tablet_repo_cut/lichee/brandy/gcc-linaro/bin/../lib/gcc/arm-linux-gnueabi/4.6.3/libgcc.a(_arm_fixdfsi.o)
                              drivers/power/libpower.o (__aeabi_d2iz)
/mnt/hdd1/ccfrom/A20_Tablet/A20_Tablet_repo_cut/lichee/brandy/gcc-linaro/bin/../lib/gcc/arm-linux-gnueabi/4.6.3/libgcc.a(_arm_truncdfsf2.o)
                              board/sunxi/libsunxi.o (__aeabi_d2f)
/mnt/hdd1/ccfrom/A20_Tablet/A20_Tablet_repo_cut/lichee/brandy/gcc-linaro/bin/../lib/gcc/arm-linux-gnueabi/4.6.3/libgcc.a(_arm_addsubsf3.o)
                              board/sunxi/libsunxi.o (__aeabi_fsub)
/mnt/hdd1/ccfrom/A20_Tablet/A20_Tablet_repo_cut/lichee/brandy/gcc-linaro/bin/../lib/gcc/arm-linux-gnueabi/4.6.3/libgcc.a(_arm_muldivsf3.o)
                              board/sunxi/libsunxi.o (__aeabi_fmul)
/mnt/hdd1/ccfrom/A20_Tablet/A20_Tablet_repo_cut/lichee/brandy/gcc-linaro/bin/../lib/gcc/arm-linux-gnueabi/4.6.3/libgcc.a(_arm_fixsfsi.o)
                              board/sunxi/libsunxi.o (__aeabi_f2iz)

Memory Configuration

Name             Origin             Length             Attributes
*default*        0x00000000         0xffffffff

Linker script and memory map

                0x4a000000                . = 0x4a000000
                0x4a000000                . = ALIGN (0x4)

.head           0x4a000000      0x500
 arch/arm/cpu/armv7/sun7i/spare_head.o(.data)
 .data          0x4a000000      0x500 arch/arm/cpu/armv7/sun7i/spare_head.o
                0x4a000000                uboot_spare_head
                0x4a000500                . = ALIGN (0x1)

.text           0x4a000500    0x6d814
                0x4a000500                __int_vector_start = .
 arch/arm/cpu/armv7/start.o(.text*)
 .text          0x4a000500      0x500 arch/arm/cpu/armv7/start.o
                0x4a000500                _start
                0x4a000540                _end_vect
                0x4a000540                _TEXT_BASE
                0x4a000544                _bss_start_ofs
                0x4a000548                _image_copy_end_ofs
                0x4a00054c                _bss_end_ofs
                0x4a000550                _end_ofs
                0x4a000554                __int_vector_start__
                0x4a000558                __int_vector_end__
                0x4a00055c                _standby_start__
                0x4a000560                _standby_end__
                0x4a000564                _standby_start_lma__
                0x4a000568                IRQ_STACK_START
                0x4a00056c                FIQ_STACK_START
                0x4a000570                IRQ_STACK_START_IN
                0x4a0005a8                relocate_code
                0x4a000a00                __int_vector_end = .
 *(EXCLUDE_FILE(board/sunxi/sun7i/standby/libstandby.o) .text)
 .text          0x4a000a00        0x0 arch/arm/cpu/armv7/sun7i/spare_head.o
 .text          0x4a000a00      0x32c arch/arm/cpu/armv7/libarmv7.o
                0x4a000bb0                invalidate_dcache_all
                0x4a000bc4                flush_dcache_all
                0x4a000bd8                flush_icache_all
                0x4a000be4                invalidate_dcache_range
                0x4a000c08                flush_dcache_range
                0x4a000c2c                arm_init_before_mmu
                0x4a000c54                flush_cache
                0x4a000c5c                invalidate_icache_all
                0x4a000c74                __v7_outer_cache_enable
                0x4a000c78                v7_outer_cache_disable
                0x4a000c78                __v7_outer_cache_disable
                0x4a000c7c                __v7_outer_cache_flush_all
                0x4a000c7c                v7_outer_cache_flush_all
                0x4a000c80                __v7_outer_cache_inval_all
                0x4a000c84                __v7_outer_cache_flush_range
                0x4a000c88                __v7_outer_cache_inval_range
                0x4a000c88                v7_outer_cache_inval_range
                0x4a000c8c                save_boot_params_default
                0x4a000c8c                save_boot_params
                0x4a000c90                cleanup_before_linux
                0x4a000cb0                cpu0_set_detected_paras
                0x4a000cb0                __cpu0_set_detected_paras
                0x4a000cb4                arch_cpu_init
                0x4a000cc8                sdelay
                0x4a000cd4                sr32
                0x4a000cf8                wait_on_value
 .text          0x4a000d2c     0x2ec8 arch/arm/cpu/armv7/sun7i/libsun7i.o
                0x4a000d44                irq_enable
                0x4a000dbc                irq_disable
                0x4a000e34                irq_install_handler
                0x4a000e7c                irq_free_handler
                0x4a000eb4                do_irq
                0x4a000fa0                arch_interrupt_init
                0x4a001110                arch_interrupt_exit
                0x4a001118                sunxi_clock_get_corepll
                0x4a001164                sunxi_clock_get_axi
                0x4a0011b4                sunxi_clock_get_ahb
                0x4a0011d4                sunxi_clock_get_apb1
                0x4a0011fc                sunxi_clock_get_apb2
                0x4a001218                sunxi_clock_set_corepll
                0x4a0013b8                sunxi_clock_set_pll6
                0x4a0013d4                sunxi_clock_set_mbus
                0x4a001448                sunxi_clock_get_pll6
                0x4a001488                timer1_func
                0x4a0014e8                timer0_func
                0x4a001548                timer_init
                0x4a001580                timer_exit
                0x4a0015c8                watchdog_disable
                0x4a0015dc                watchdog_enable
                0x4a0015f8                get_timer
                0x4a001614                runtime_tick
                0x4a001624                get_timer_masked
                0x4a001634                __usdelay
                0x4a00165c                __msdelay
                0x4a00167c                get_ticks
                0x4a001698                get_tbclk
                0x4a0016a0                init_timer
                0x4a0016a4                add_timer
                0x4a0017c0                del_timer
                0x4a00183c                stick_printf
                0x4a001860                tick0_printf
                0x4a0018b4                print_boot_type
                0x4a001930                get_base
                0x4a00193c                s_init
                0x4a001940                reset_cpu
                0x4a00194c                v7_outer_cache_enable
                0x4a001950                v7_outer_cache_inval_all
                0x4a001954                v7_outer_cache_flush_range
                0x4a001958                enable_caches
                0x4a001968                disable_caches
                0x4a001978                display_inner
                0x4a001998                script_init
                0x4a0019d4                power_source_init
                0x4a001ab0                sunxi_key_init
                0x4a001ae0                sunxi_key_exit
                0x4a001b00                sunxi_key_read
                0x4a001b58                do_key_test
                0x4a001ba0                USBC_GetVbusStatus
                0x4a001bd0                USBC_OTG_SelectMode
                0x4a001bd4                USBC_ReadLenFromFifo
                0x4a001c00                USBC_WritePacket
                0x4a001c6c                USBC_ReadPacket
                0x4a001cd8                USBC_ConfigFIFO_Base
                0x4a001d14                USBC_GetPortFifoStartAddr
                0x4a001d44                USBC_GetPortFifoSize
                0x4a001d68                USBC_SelectFIFO
                0x4a001d78                __USBC_ConfigFifo_TxEp
                0x4a001dc8                __USBC_ConfigFifo_RxEp_Default
                0x4a001dd8                __USBC_ConfigFifo_RxEp
                0x4a001e28                USBC_ConfigFifo_Default
                0x4a001e60                USBC_ConfigFifo
                0x4a001e9c                USBC_GetLastFrameNumber
                0x4a001eac                USBC_GetStatus_Dp
                0x4a001ec0                USBC_GetStatus_Dm
                0x4a001ed4                USBC_GetStatus_DpDm
                0x4a001ef4                USBC_GetOtgMode_Form_ID
                0x4a001f0c                USBC_GetOtgMode_Form_BDevice
                0x4a001f24                USBC_SelectBus
                0x4a001f68                USBC_INT_EpPending
                0x4a001fa4                USBC_INT_ClearEpPending
                0x4a001ff8                USBC_INT_ClearEpPendingAll
                0x4a002030                USBC_INT_MiscPending
                0x4a002040                USBC_INT_ClearMiscPending
                0x4a002054                USBC_INT_ClearMiscPendingAll
                0x4a002068                USBC_INT_EnableEp
                0x4a0020bc                USBC_INT_EnableUsbMiscUint
                0x4a0020d8                USBC_INT_DisableEp
                0x4a002124                USBC_INT_DisableUsbMiscUint
                0x4a00213c                USBC_INT_DisableEpAll
                0x4a00216c                USBC_INT_DisableUsbMiscAll
                0x4a002180                USBC_GetActiveEp
                0x4a002190                USBC_SelectActiveEp
                0x4a0021a0                USBC_EnhanceSignal
                0x4a0021a4                USBC_EnterMode_TestPacket
                0x4a0021bc                USBC_EnterMode_Test_K
                0x4a0021d4                USBC_EnterMode_Test_J
                0x4a0021ec                USBC_EnterMode_Test_SE0_NAK
                0x4a002204                USBC_EnterMode_Idle
                0x4a002250                USBC_SetWakeUp_Default
                0x4a002254                USBC_EnableIdPullUp
                0x4a00226c                USBC_DisableIdPullUp
                0x4a002284                USBC_EnableDpDmPullUp
                0x4a00229c                USBC_DisableDpDmPullUp
                0x4a0022b4                USBC_ForceId
                0x4a0022ec                USBC_ForceVbusValid
                0x4a002334                USBC_A_valid_InputSelect
                0x4a002338                USBC_EnableUsbLineStateBypass
                0x4a00233c                USBC_DisableUsbLineStateBypass
                0x4a002340                USBC_EnableHosc
                0x4a002358                USBC_DisableHosc
                0x4a00236c                USBC_IsVbusChange
                0x4a002388                USBC_IsIdChange
                0x4a0023a4                USBC_IsDpDmChange
                0x4a0023c0                USBC_DisableWakeIrq
                0x4a0023d4                USBC_DisableVbusChange
                0x4a0023e8                USBC_DisableIdChange
                0x4a0023fc                USBC_DisableDpDmChange
                0x4a002410                USBC_EnableWakeIrq
                0x4a002428                USBC_EnableVbusChange
                0x4a002440                USBC_EnableIdChange
                0x4a002458                USBC_EnableDpDmChange
                0x4a002470                USBC_TestMode_ReadReg
                0x4a0024ac                USBC_PrintAllReg
                0x4a002808                USBC_open_otg
                0x4a00284c                USBC_close_otg
                0x4a002874                USBC_init
                0x4a00287c                USBC_exit
                0x4a0028c4                USBC_Dev_SetAddress_default
                0x4a0028d8                USBC_Dev_SetAddress
                0x4a0028e8                USBC_Dev_QueryTransferMode
                0x4a002908                USBC_Dev_ConfigTransferMode
                0x4a002978                USBC_Dev_ConectSwitch
                0x4a00299c                USBC_Dev_QueryPowerStatus
                0x4a0029b0                USBC_Dev_ConfigEp
                0x4a002abc                USBC_Dev_ConfigEp_Default
                0x4a002b24                USBC_Dev_ConfigEpDma
                0x4a002b7c                USBC_Dev_ClearEpDma
                0x4a002bdc                USBC_Dev_IsEpStall
                0x4a002c24                USBC_Dev_EpSendStall
                0x4a002c8c                USBC_Dev_EpClearStall
                0x4a002d24                USBC_Dev_Ctrl_IsSetupEnd
                0x4a002d38                USBC_Dev_Ctrl_ClearSetupEnd
                0x4a002d50                USBC_Dev_WriteDataStatus
                0x4a002ddc                USBC_Dev_ReadDataStatus
                0x4a002e5c                USBC_Dev_IsReadDataReady
                0x4a002e9c                USBC_Dev_IsWriteDataReady
                0x4a002ed8                USBC_Host_SetFunctionAddress_Deafult
                0x4a002f34                USBC_Host_SetFunctionAddress
                0x4a002fbc                USBC_Host_SetHubAddress_Deafult
                0x4a002fec                USBC_Host_SetHubAddress
                0x4a003034                USBC_Host_SetHPortAddress_Deafult
                0x4a003064                USBC_Host_SetHPortAddress
                0x4a00308c                USBC_Host_QueryTransferMode
                0x4a0030ac                USBC_Host_ConfigTransferMode
                0x4a0030e0                USBC_Host_ResetPort
                0x4a0030f8                USBC_Host_ClearResetPortFlag
                0x4a003110                USBC_Host_RusumePort
                0x4a003128                USBC_Host_ClearRusumePortFlag
                0x4a003140                USBC_Host_SuspendPort
                0x4a003158                USBC_Host_QueryPowerStatus
                0x4a003168                USBC_Host_StartSession
                0x4a003180                USBC_Host_EndSession
                0x4a003198                USBC_Host_PeripheralType
                0x4a0031b8                USBC_Host_FlushFifo
                0x4a003200                USBC_Host_ConfigEp_Default
                0x4a003284                USBC_Host_ConfigEp
                0x4a0033e0                USBC_Host_ConfigEpDma
                0x4a003424                USBC_Host_ClearEpDma
                0x4a003474                USBC_Host_IsEpNakTimeOut
                0x4a0034b8                USBC_Host_ClearEpNakTimeOut
                0x4a003508                USBC_Host_IsEpError
                0x4a00355c                USBC_Host_ClearEpError
                0x4a0035bc                USBC_Host_IsEpStall
                0x4a003608                USBC_Host_ClearEpStall
                0x4a003668                USBC_Host_ClearEpCSR
                0x4a0036a4                USBC_Host_IsReadDataReady
                0x4a0036e4                USBC_Host_IsWriteDataReady
                0x4a00372c                USBC_Host_ReadDataStatus
                0x4a0037c8                USBC_Host_WriteDataStatus
                0x4a00384c                USBC_Host_IsReqPktSet
                0x4a00388c                USBC_Host_StartInToken
                0x4a0038d0                USBC_Host_StopInToken
                0x4a00391c                USBC_Host_ConfigRqPktCount
                0x4a003930                USBC_Host_ClearRqPktCount
                0x4a003944                USBC_Host_EnablePing
                0x4a003960                USBC_Host_DisablePing
                0x4a003978                USBC_Host_SendCtrlStatus
                0x4a00399c                USBC_Host_SendSetupPkt
                0x4a003a54                USBC_PHY_SetCommonConfig
                0x4a003a58                USBC_PHY_SetPrivateConfig
                0x4a003a5c                USBC_PHY_GetCommonConfig
                0x4a003a64                USBC_phy_Standby
                0x4a003ab8                USBC_Phy_Standby_Recover
                0x4a003aec                usb_open_clock
                0x4a003b2c                usb_close_clock
                0x4a003b6c                usb_probe_vbus_type
                0x4a003bd4                lowlevel_init
 *fill*         0x4a003bf4        0xc 00
 .text          0x4a003c00     0x1158 arch/arm/lib/libarm.o
                0x4a003c20                memset
                0x4a003ce0                memcpy
                0x4a004130                coloured_LED_init
                0x4a004130                __coloured_LED_init
                0x4a004134                red_LED_on
                0x4a004134                __red_LED_on
                0x4a004138                __red_LED_off
                0x4a004138                red_LED_off
                0x4a00413c                green_LED_on
                0x4a00413c                __green_LED_on
                0x4a004140                __green_LED_off
                0x4a004140                green_LED_off
                0x4a004144                __yellow_LED_on
                0x4a004144                yellow_LED_on
                0x4a004148                __yellow_LED_off
                0x4a004148                yellow_LED_off
                0x4a00414c                blue_LED_on
                0x4a00414c                __blue_LED_on
                0x4a004150                blue_LED_off
                0x4a004150                __blue_LED_off
                0x4a004154                __dram_init_banksize
                0x4a004170                board_init_f
                0x4a0042b4                board_init_r
                0x4a004414                hang
                0x4a004574                arch_lmb_reserve
                0x4a004598                do_bootm_linux
                0x4a004678                do_boota_linux
                0x4a0048d0                __flush_cache
                0x4a0048d4                __flush_dcache_all
                0x4a0048e0                __enable_caches
                0x4a004a74                __arm_init_before_mmu
                0x4a004a78                icache_enable
                0x4a004a80                icache_disable
                0x4a004a88                icache_status
                0x4a004a94                dcache_enable
                0x4a004a9c                dcache_disable
                0x4a004aa4                dcache_status
                0x4a004ab0                interrupt_init
                0x4a004af0                interrupt_exit
                0x4a004af4                enable_interrupts
                0x4a004b04                disable_interrupts
                0x4a004b20                bad_mode
                0x4a004b30                show_regs
                0x4a004c70                do_undefined_instruction
                0x4a004c90                do_software_interrupt
                0x4a004cb0                do_prefetch_abort
                0x4a004cd0                do_data_abort
                0x4a004cf0                do_not_used
                0x4a004d10                do_fiq
                0x4a004d30                do_reset
 .text          0x4a004d58     0xc214 common/libcommon.o
                0x4a004d58                do_go_exec
                0x4a004d70                do_go
                0x4a004de0                do_boota
                0x4a004ec8                do_bootd
                0x4a005614                arch_preboot_os
                0x4a005614                __arch_preboot_os
                0x4a005618                do_bootm_subcommand
                0x4a00585c                do_bootm
                0x4a005af0                bootm_maybe_autostart
                0x4a005b64                do_burn_test
                0x4a005cfc                do_bootelf_exec
                0x4a005d40                valid_elf_image
                0x4a005d8c                do_bootvx
                0x4a005fd8                do_bootelf
                0x4a00614c                do_exit
                0x4a00617c                do_fat_fsinfo
                0x4a006254                do_fat_ls
                0x4a00635c                do_fat_fsdown
                0x4a0064cc                do_fat_fsload
                0x4a006638                do_efex
                0x4a006654                do_help
                0x4a006698                do_memcpy_test
                0x4a0066cc                do_mass_test
                0x4a006708                do_fastboot_test
                0x4a006744                do_sprite_test
                0x4a006888                do_timer_test1
                0x4a006908                do_timer_test
                0x4a006988                do_mem_base
                0x4a0069c8                do_mem_mtest
                0x4a006b68                do_mem_loop
                0x4a006c5c                do_mem_md
                0x4a006d30                do_mem_crc
                0x4a006dd8                do_mem_cp
                0x4a006eb8                do_mem_cmp
                0x4a007044                do_mem_mw
                0x4a00723c                do_mem_nm
                0x4a007254                do_mem_mm
                0x4a00726c                do_mmcops
                0x4a00765c                do_mmcinfo
                0x4a007ad0                do_env_save
                0x4a007b94                do_env_print
                0x4a007c18                get_env_id
                0x4a007c28                _do_env_set
                0x4a007fc0                do_env_set
                0x4a007fdc                setenv
                0x4a00823c                envmatch
                0x4a0082a0                getenv_f
                0x4a00835c                getenv
                0x4a0084a8                do_shutdown
                0x4a0084ac                do_standby
                0x4a00867c                sunxi_bmp_decode
                0x4a0089d4                sunxi_bmp_display
                0x4a008acc                do_sunxi_logo
                0x4a008ad8                do_sunxi_flash
                0x4a008e2c                probe_high_level_power_mod
                0x4a008e68                rsa_init
                0x4a008ee8                rsa_dump
                0x4a008f6c                rsa_encrypt
                0x4a008fac                rsa_decrypt
                0x4a008ff0                prepareCryptTable
                0x4a008ff4                HashString
                0x4a009440                HashString_init
                0x4a009454                signature_erase_all
                0x4a009580                do_sunxi_boot_signature
                0x4a009764                sunxi_resignature
                0x4a00984c                sunxi_oem_op_lock
                0x4a009af8                save_user_private_data
                0x4a009d2c                do_save_user_data
                0x4a009d60                check_user_data
                0x4a009f0c                update_user_data
                0x4a00a058                do_false
                0x4a00a060                do_true
                0x4a00a068                do_test
                0x4a00a4d4                do_version
                0x4a00a50c                find_cmd_tbl
                0x4a00a5a8                find_cmd
                0x4a00a5d0                cmd_usage
                0x4a00a62c                _do_help
                0x4a00a7b0                var_complete
                0x4a00a838                cmd_auto_complete
                0x4a00acb4                cmd_get_data_size
                0x4a00ada8                serial_printf
                0x4a00ade8                fgetc
                0x4a00ae14                ftstc
                0x4a00ae40                fputc
                0x4a00ae68                fputs
                0x4a00ae90                fprintf
                0x4a00aed8                getc
                0x4a00aef0                tstc
                0x4a00af08                putc
                0x4a00af24                puts
                0x4a00af40                printf
                0x4a00af80                tick_printf
                0x4a00aff0                vprintf
                0x4a00b024                ctrlc
                0x4a00b070                disable_ctrlc
                0x4a00b088                had_ctrlc
                0x4a00b098                clear_ctrlc
                0x4a00b0ac                dbg
                0x4a00b0b8                search_device
                0x4a00b0e0                console_assign
                0x4a00b120                console_init_f
                0x4a00b130                stdio_print_current_devices
                0x4a00b1e4                console_init_r
                0x4a00b2c4                sbrk
                0x4a00b320                mem_malloc_init
                0x4a00b344                malloc_trim
                0x4a00b414                free
                0x4a00b634                cfree
                0x4a00b638                malloc
                0x4a00bc04                calloc
                0x4a00bcd8                memalign
                0x4a00bde0                pvalloc
                0x4a00bdf8                valloc
                0x4a00be04                realloc
                0x4a00c20c                malloc_usable_size
                0x4a00c248                mallopt
                0x4a00c2bc                env_get_addr
                0x4a00c2e0                env_get_char_memory
                0x4a00c2f0                env_get_char
                0x4a00c324                set_default_env
                0x4a00c3c4                env_import
                0x4a00c494                env_relocate
                0x4a00c4c4                env_complete
                0x4a00c774                env_get_char_spec
                0x4a00c780                env_init
                0x4a00c79c                saveenv
                0x4a00c7c0                env_relocate_spec
                0x4a00c7d4                get_version
                0x4a00c7dc                jumptable_init
                0x4a00c9c8                do_showvar
                0x4a00cf0c                simple_itoa
                0x4a00cf50                get_local_var
                0x4a00d114                set_local_var
                0x4a00d2d0                unset_local_var
                0x4a00d370                new_pipe
                0x4a00d3e0                reserved_word
                0x4a00d6a4                mapset
                0x4a00d6c8                update_ifs_map
                0x4a00d738                parse_string_outer
                0x4a00e624                parse_file_outer
                0x4a00e668                u_boot_hush_start
                0x4a00e6f0                image_check_hcrc
                0x4a00e740                image_check_dcrc
                0x4a00e77c                image_multi_count
                0x4a00e7a0                image_multi_getimg
                0x4a00e824                getenv_yesno
                0x4a00e84c                getenv_bootm_low
                0x4a00e87c                getenv_bootm_size
                0x4a00e8d8                getenv_bootm_mapsize
                0x4a00e908                memmove_wd
                0x4a00e914                genimg_print_size
                0x4a00e944                get_table_entry_name
                0x4a00e970                genimg_get_os_name
                0x4a00e988                genimg_get_arch_name
                0x4a00e9a0                genimg_get_type_name
                0x4a00e9b8                genimg_get_comp_name
                0x4a00e9d0                image_print_contents
                0x4a00eb48                get_table_entry_id
                0x4a00eb94                genimg_get_os_id
                0x4a00ebac                genimg_get_arch_id
                0x4a00ebc4                genimg_get_type_id
                0x4a00ebdc                genimg_get_comp_id
                0x4a00ebf4                genimg_get_format
                0x4a00ec08                genimg_get_image
                0x4a00ec0c                genimg_has_config
                0x4a00ec14                boot_get_ramdisk
                0x4a00ee44                boot_ramdisk_high
                0x4a00ef64                boot_get_cmdline
                0x4a00f1a4                __show_boot_progress
                0x4a00f1a4                show_boot_progress
                0x4a00f1a8                main_loop
                0x4a00f2a4                readline_into_buffer
                0x4a00fbcc                readline
                0x4a00fbe8                parse_line
                0x4a00fc74                run_command
                0x4a010020                do_run
                0x4a010094                get_ram_size
                0x4a010208                srec_decode
                0x4a010468                stdio_get_list
                0x4a010474                stdio_get_by_name
                0x4a0104c8                stdio_clone
                0x4a010510                stdio_register
                0x4a010554                stdio_init
                0x4a0105dc                mem_noncache_malloc_init
                0x4a010608                malloc_noncache
                0x4a010684                free_noncache
                0x4a0106c4                CYGACC_COMM_IF_GETC_TIMEOUT
                0x4a0109a8                CYGACC_COMM_IF_PUTC
                0x4a0109b0                parse_num
                0x4a010acc                xyzModem_stream_open
                0x4a010c18                xyzModem_stream_read
                0x4a010e68                xyzModem_stream_close
                0x4a010eb8                xyzModem_stream_terminate
                0x4a010f4c                xyzModem_error
 .text          0x4a010f6c      0x8b4 disk/libdisk.o
                0x4a010f6c                get_dev
                0x4a010fcc                dev_print
                0x4a0111c0                init_part
                0x4a0111dc                get_partition_info
                0x4a011204                print_part
                0x4a011770                test_part_dos
                0x4a0117d8                print_part_dos
                0x4a011804                get_partition_info_dos
 .text          0x4a011820      0x4cc drivers/dma/libdma.o
                0x4a011878                sunxi_dma_init
                0x4a0118e4                sunxi_dma_exit
                0x4a011900                sunxi_dma_request
                0x4a011994                sunxi_dma_setting
                0x4a011ab0                sunxi_dma_start
                0x4a011ad4                sunxi_dma_stop
                0x4a011aec                sunxi_dma_restart
                0x4a011b04                sunxi_dma_querystatus
                0x4a011b14                sunxi_dma_install_int
                0x4a011b78                sunxi_dma_enable_int
                0x4a011bdc                sunxi_dma_disable_int
                0x4a011c4c                sunxi_dma_free_int
                0x4a011cb0                sunxi_dma_release
                0x4a011ce4                sunxi_dma_querychannalno
 .text          0x4a011cec      0x600 drivers/i2c/libi2c.o
                0x4a011ebc                i2c_init
                0x4a011fe8                i2c_exit
                0x4a012000                i2c_read
                0x4a012204                i2c_write
 .text          0x4a0122ec     0x2530 drivers/mmc/libmmc.o
                0x4a0122f4                __board_mmc_getcd
                0x4a0122f4                board_mmc_getcd
                0x4a0122fc                mmc_send_cmd
                0x4a01230c                mmc_send_status
                0x4a0123e0                mmc_set_blocklen
                0x4a012418                find_mmc_device
                0x4a0126cc                mmc_read_blocks
                0x4a012898                mmc_go_idle
                0x4a0128fc                sd_send_op_cond
                0x4a012a78                mmc_send_op_cond
                0x4a012bf8                mmc_send_ext_csd
                0x4a012c64                mmc_switch
                0x4a012cd0                mmc_change_freq
                0x4a012dbc                mmc_switch_boot_bus_cond
                0x4a012ea8                mmc_switch_boot_part
                0x4a013008                mmc_switch_part
                0x4a0130f4                sd_switch
                0x4a013164                sd_change_freq
                0x4a013368                mmc_set_ios
                0x4a013378                mmc_set_clock
                0x4a0133a4                mmc_set_bus_width
                0x4a0133b8                mmc_startup
                0x4a013b68                mmc_send_if_cond
                0x4a013bf8                mmc_register
                0x4a013c84                mmc_get_dev
                0x4a013c98                mmc_init
                0x4a013d94                cpu_mmc_init
                0x4a013d9c                print_mmc_devices
                0x4a013e00                get_mmc_num
                0x4a013e04                mmc_initialize
                0x4a014638                sunxi_mmc_init
 .text          0x4a01481c        0x0 drivers/pcmcia/libpcmcia.o
 .text          0x4a01481c     0x189c drivers/power/libpower.o
                0x4a01481c                axp_probe
                0x4a01486c                axp_reinit
                0x4a0148a4                axp_get_power_vol_level
                0x4a0148ac                axp_probe_startup_cause
                0x4a01498c                axp_set_hardware_poweron_vol
                0x4a0149e8                axp_set_hardware_poweroff_vol
                0x4a014a44                axp_set_power_off
                0x4a014a60                axp_probe_factory_mode
                0x4a014b0c                axp_set_next_poweron_status
                0x4a014b28                axp_probe_pre_sys_mode
                0x4a014b44                axp_power_get_dcin_battery_exist
                0x4a014b80                axp_probe_battery_vol
                0x4a014b9c                axp_probe_rest_battery_capacity
                0x4a014bb8                axp_probe_key
                0x4a014bd4                axp_probe_charge_current
                0x4a014bf0                axp_set_charge_current
                0x4a014c0c                axp_set_charge_control
                0x4a014c28                axp_set_vbus_limit_dc
                0x4a014c5c                axp_set_vbus_limit_pc
                0x4a014c90                axp_set_all_limit
                0x4a014d60                axp_set_suspend_chgcur
                0x4a014d80                axp_set_runtime_chgcur
                0x4a014da0                axp_set_charge_vol_limit
                0x4a014e08                axp_set_power_supply_output
                0x4a014ee8                axp_probe_power_supply_condition
                0x4a014f64                axp_int_enable
                0x4a014fa0                axp_int_disable
                0x4a014fc4                axp_int_query
                0x4a014fe0                axp_set_supply_status
                0x4a015008                axp_set_supply_status_byname
                0x4a015094                axp_probe_supply_status
                0x4a0150e8                axp20_set_next_sys_mode
                0x4a015104                axp20_set_int_enable
                0x4a015164                axp20_set_charge_control
                0x4a0151c8                axp20_probe_key
                0x4a015208                axp20_set_power_off
                0x4a015274                axp20_set_vbus_cur_limit
                0x4a0152e0                axp20_set_vbus_vol_limit
                0x4a015358                axp20_probe_int_pending
                0x4a0153c4                axp20_probe_battery_exist
                0x4a015404                axp20_probe_battery_ratio
                0x4a015440                axp20_probe_power_status
                0x4a015478                axp20_probe_battery_vol
                0x4a0154d8                axp20_probe_pre_sys_mode
                0x4a0154f8                axp20_probe_this_poweron_cause
                0x4a01551c                axp20_set_charge_current
                0x4a015588                axp20_probe_charge_current
                0x4a0155b8                axp20_probe_int_enable
                0x4a0155f8                axp20_power_enable_coulomb
                0x4a015628                axp20_probe
                0x4a015688                axp20_config_charge_current
                0x4a01574c                axp20_set_power_on_vol
                0x4a015804                axp20_set_power_off_vol
                0x4a0158fc                axp20_set_power_onoff_vol
                0x4a015c00                axp20_set_supply_status
                0x4a015c54                axp20_set_supply_status_byname
                0x4a0160b0                axp20_probe_supply_status
 .text          0x4a0160b8      0x398 drivers/pwm/libsunxi_pwm.o
                0x4a0160b8                sunxi_pwm_read_reg
                0x4a0160c8                sunxi_pwm_write_reg
                0x4a0160dc                sunxi_pwm_get_sys_config
                0x4a0161c4                sunxi_pwm_set_polarity
                0x4a016218                sunxi_pwm_config
                0x4a01634c                sunxi_pwm_enable
                0x4a0163bc                sunxi_pwm_disable
                0x4a016428                sunxi_pwm_init
 .text          0x4a016450       0x34 drivers/rtc/librtc.o
                0x4a016450                rtc_get
                0x4a016458                rtc_set
                0x4a016460                rtc_reset
                0x4a016464                rtc_disable
 .text          0x4a016484      0x24c drivers/serial/libserial.o
                0x4a016484                NS16550_init
                0x4a0164cc                NS16550_reinit
                0x4a016518                NS16550_putc
                0x4a01652c                NS16550_getc
                0x4a016540                NS16550_tstc
                0x4a01656c                serial_init
                0x4a0165b4                _serial_putc
                0x4a0165ec                _serial_putc_raw
                0x4a016608                _serial_puts
                0x4a016630                _serial_getc
                0x4a01664c                _serial_tstc
                0x4a016660                _serial_setbrg
                0x4a016688                serial_putc
                0x4a016694                serial_putc_raw
                0x4a0166a0                serial_puts
                0x4a0166ac                serial_getc
                0x4a0166b8                serial_tstc
                0x4a0166c4                serial_setbrg
 .text          0x4a0166d0      0x90c drivers/storage_type/libstorage_type.o
                0x4a016784                sunxi_flash_mmc_phyread
                0x4a0167b8                sunxi_flash_mmc_phywrite
                0x4a016870                sunxi_sprite_mmc_phyread
                0x4a0168a4                sunxi_sprite_mmc_phywrite
                0x4a0168f8                sunxi_flash_read
                0x4a016910                sunxi_flash_part_read
                0x4a01695c                sunxi_flash_write
                0x4a016974                sunxi_flash_part_write
                0x4a0169c0                sunxi_flash_size
                0x4a0169d8                sunxi_flash_exit
                0x4a0169f0                sunxi_flash_flush
                0x4a016a08                sunxi_flash_phyread
                0x4a016a20                sunxi_flash_phywrite
                0x4a016a38                sunxi_sprite_init
                0x4a016a50                sunxi_sprite_read
                0x4a016a68                sunxi_sprite_write
                0x4a016a80                sunxi_sprite_erase
                0x4a016a98                sunxi_sprite_size
                0x4a016ab0                sunxi_sprite_exit
                0x4a016ac8                sunxi_sprite_flush
                0x4a016ae0                sunxi_sprite_phyread
                0x4a016af8                sunxi_sprite_phywrite
                0x4a016b10                sunxi_flash_get_dev
                0x4a016b30                sunxi_flash_init_uboot
                0x4a016b84                sunxi_flash_handle_init
 .text          0x4a016fdc    0x23a28 drivers/video_sun7i/libvideo_sunxi.o
                0x4a016fdc                disp_int_process
                0x4a016fe4                DRV_hdmi_set_pll
                0x4a016ff4                DRV_hdmi_get_HPD_status
                0x4a016ff8                DRV_hdmi_mode_support
                0x4a017010                DRV_hdmi_close
                0x4a017024                DRV_hdmi_open
                0x4a017038                DRV_lcd_close_callback
                0x4a0170d4                DRV_lcd_open_callback
                0x4a017170                DRV_hdmi_set_display_mode
                0x4a017274                copy_from_user
                0x4a017284                copy_to_user
                0x4a017294                disp_delay_ms
                0x4a0172ac                DRV_lcd_open
                0x4a017304                DRV_lcd_check_open_finished
                0x4a017368                DRV_lcd_close
                0x4a0173c0                DRV_lcd_check_close_finished
                0x4a017424                sunxi_disp_get_source_ops
                0x4a0174f8                drv_disp_init
                0x4a0176a8                drv_disp_exit
                0x4a0176ec                disp_ioctl
                0x4a018a1c                drv_disp_standby
                0x4a018af4                osal_ccmu_get_clk_by_name
                0x4a018b38                OSAL_CCMU_SetSrcFreq
                0x4a018c78                OSAL_CCMU_GetSrcFreq
                0x4a018dbc                OSAL_CCMU_OpenMclk
                0x4a018dc0                OSAL_CCMU_CloseMclk
                0x4a018dc8                OSAL_CCMU_SetMclkSrc
                0x4a01919c                OSAL_CCMU_GetMclkSrc
                0x4a0191a4                OSAL_CCMU_SetMclkDiv
                0x4a019458                OSAL_CCMU_GetMclkDiv
                0x4a019460                OSAL_CCMU_MclkOnOff
                0x4a0198fc                OSAL_CCMU_MclkReset
                0x4a019a5c                OSAL_RegISR
                0x4a019a74                OSAL_UnRegISR
                0x4a019a78                OSAL_InterruptEnable
                0x4a019a7c                OSAL_InterruptDisable
                0x4a019a80                OSAL_CacheRangeFlush
                0x4a019a84                OSAL_malloc
                0x4a019a88                OSAL_free
                0x4a019a8c                OSAL_PhyAlloc
                0x4a019a90                OSAL_PhyFree
                0x4a019a94                OSAL_VAtoPA
                0x4a019aa0                OSAL_PAtoVA
                0x4a019aa4                OSAL_putchar
                0x4a019aac                OSAL_puts
                0x4a019ab4                OSAL_getchar
                0x4a019abc                OSAL_gets
                0x4a019ac4                OSAL_strtol
                0x4a019acc                OSAL_int2str_dec
                0x4a019ad0                OSAL_int2str_hex
                0x4a019ad4                OSAL_uint2str_dec
                0x4a019ad8                OSAL_GPIO_Request
                0x4a019b40                OSAL_GPIO_Request_Ex
                0x4a019b44                OSAL_GPIO_Release
                0x4a019b60                OSAL_GPIO_DevGetAllPins_Status
                0x4a019b64                OSAL_GPIO_DevGetONEPins_Status
                0x4a019b68                OSAL_GPIO_DevSetONEPin_Status
                0x4a019b6c                OSAL_GPIO_DevSetONEPIN_IO_STATUS
                0x4a019b70                OSAL_GPIO_DevSetONEPIN_PULL_STATUS
                0x4a019b74                OSAL_GPIO_DevREAD_ONEPIN_DATA
                0x4a019b78                OSAL_GPIO_DevWRITE_ONEPIN_DATA
                0x4a019b7c                OSAL_Script_FetchParser_Data
                0x4a019bec                OSAL_sw_get_ic_ver
                0x4a019bf4                DE_Set_Reg_Base
                0x4a019c08                DE_Get_Reg_Base
                0x4a019c18                DE_BE_Reg_Init
                0x4a019c54                DE_BE_Set_SystemPalette
                0x4a019c98                DE_BE_Get_SystemPalette
                0x4a019ce4                DE_BE_Enable
                0x4a019d14                DE_BE_Disable
                0x4a019d44                DE_BE_Output_Select
                0x4a019d88                DE_BE_Set_BkColor
                0x4a019dc0                DE_BE_Set_ColorKey
                0x4a019e38                DE_BE_reg_auto_load_en
                0x4a019e5c                DE_BE_Cfg_Ready
                0x4a019e7c                DE_BE_Sprite_Enable
                0x4a019ea0                DE_BE_Sprite_Disable
                0x4a019ec0                DE_BE_Sprite_Set_Format
                0x4a019ee0                DE_BE_Sprite_Global_Alpha_Enable
                0x4a019ef8                DE_BE_Sprite_Set_Global_Alpha
                0x4a019f1c                DE_BE_Sprite_Block_Set_Pos
                0x4a019f40                DE_BE_Sprite_Block_Set_Size
                0x4a019f78                DE_BE_Sprite_Block_Set_fb
                0x4a019fa8                DE_BE_Sprite_Block_Set_Next_Id
                0x4a019fd0                DE_BE_Sprite_Set_Palette_Table
                0x4a01a014                DE_BE_Set_Enhance_ex
                0x4a01b958                DE_BE_enhance_enable
                0x4a01b970                DE_BE_deflicker_enable
                0x4a01b994                DE_BE_Set_Outitl_enable
                0x4a01b9b8                DE_BE_set_display_size
                0x4a01b9dc                DE_BE_get_display_width
                0x4a01b9f8                DE_BE_get_display_height
                0x4a01ba14                DE_BE_EnableINT
                0x4a01ba34                DE_BE_DisableINT
                0x4a01ba54                DE_BE_QueryINT
                0x4a01ba68                DE_BE_ClearINT
                0x4a01ba80                DE_SCAL_Set_Reg_Base
                0x4a01ba94                DE_SCAL_Get_Reg_Base
                0x4a01baa4                DE_SCAL_Config_Src
                0x4a01c170                DE_SCAL_Set_Fb_Addr
                0x4a01c1b4                DE_SCAL_Set_Init_Phase
                0x4a01c47c                DE_SCAL_Agth_Config
                0x4a01c5e0                DE_SCAL_Set_Scaling_Factor
                0x4a01c738                DE_SCAL_Set_Scaling_Coef
                0x4a01c740                DE_SCAL_Set_CSC_Coef
                0x4a01c850                DE_SCAL_Set_Out_Format
                0x4a01c8a8                DE_SCAL_Set_Out_Size
                0x4a01c988                DE_SCAL_Set_Trig_Line
                0x4a01c9b4                DE_SCAL_Set_Int_En
                0x4a01ca0c                DE_SCAL_Set_Di_Ctrl
                0x4a01ca60                DE_SCAL_Set_Di_PreFrame_Addr
                0x4a01ca8c                DE_SCAL_Set_Di_MafFlag_Src
                0x4a01caac                DE_SCAL_Start
                0x4a01cacc                DE_SCAL_Set_Filtercoef_Ready
                0x4a01caec                DE_SCAL_Set_Reg_Rdy
                0x4a01cb0c                DE_SCAL_Reset
                0x4a01cb50                DE_SCAL_Input_Select
                0x4a01cb70                DE_SCAL_Output_Select
                0x4a01cbbc                DE_SCAL_Writeback_Enable
                0x4a01cbdc                DE_SCAL_Writeback_Disable
                0x4a01cbfc                DE_SCAL_Writeback_Linestride_Enable
                0x4a01cc18                DE_SCAL_Writeback_Linestride_Disable
                0x4a01cc30                DE_SCAL_Enable
                0x4a01cc5c                DE_SCAL_Disable
                0x4a01cc7c                DE_SCAL_Set_Writeback_Addr
                0x4a01cca8                DE_SCAL_Get_Input_Format
                0x4a01ccc0                DE_SCAL_Get_Input_Mode
                0x4a01ccd8                DE_SCAL_Get_Output_Format
                0x4a01ccf0                DE_SCAL_Get_Input_Width
                0x4a01cd10                DE_SCAL_Get_Input_Height
                0x4a01cd2c                DE_SCAL_Get_Output_Width
                0x4a01cd4c                DE_SCAL_Get_Output_Height
                0x4a01cd68                DE_SCAL_Get_Start_Status
                0x4a01cd9c                DE_SCAL_Get_Field_Status
                0x4a01cdb4                iDE_SCAL_Matrix_Mul
                0x4a01d8f4                iDE_SCAL_Csc_Lmt
                0x4a01d978                DE_SCAL_Set_CSC_Coef_Enhance
                0x4a01ebb0                DE_SCAL_Get_3D_In_Single_Size
                0x4a01ec8c                DE_SCAL_Get_3D_Out_Single_Size
                0x4a01ed0c                DE_SCAL_Get_3D_Out_Full_Size
                0x4a01ed8c                DE_SCAL_Set_3D_Fb_Addr
                0x4a01ee38                DE_SCAL_Set_3D_Di_PreFrame_Addr
                0x4a01eeb8                DE_SCAL_Set_3D_Ctrl
                0x4a01eff8                DE_SCAL_Config_3D_Src
                0x4a0200f8                DE_SCAL_EnableINT
                0x4a020118                DE_SCAL_DisableINT
                0x4a020138                DE_SCAL_QueryINT
                0x4a02014c                DE_SCAL_ClearINT
                0x4a02016c                DE_SCAL_Set_Writeback_Addr_ex
                0x4a0202b4                DE_BE_HWC_Enable
                0x4a0202d8                DE_BE_HWC_Set_Pos
                0x4a02031c                DE_BE_HWC_Get_Pos
                0x4a020348                DE_BE_HWC_Set_Palette
                0x4a020388                DE_BE_HWC_Set_Src
                0x4a020484                DE_BE_Format_To_Bpp
                0x4a02049c                DE_BE_Offset_To_Addr
                0x4a0204bc                DE_BE_Addr_To_Offset
                0x4a0204e8                DE_BE_Layer_Set_Work_Mode
                0x4a020510                DE_BE_Layer_Set_Format
                0x4a020568                DE_BE_Layer_Set_Framebuffer
                0x4a020638                DE_BE_Layer_Set_Screen_Win
                0x4a020698                DE_BE_Layer_Video_Enable
                0x4a0206c0                DE_BE_Layer_Video_Ch_Sel
                0x4a0206e8                DE_BE_Layer_Yuv_Ch_Enable
                0x4a020710                DE_BE_Layer_Set_Prio
                0x4a020738                DE_BE_Layer_Set_Pipe
                0x4a020760                DE_BE_Layer_ColorKey_Enable
                0x4a02078c                DE_BE_Layer_Alpha_Enable
                0x4a0207b8                DE_BE_Layer_Set_Alpha_Value
                0x4a0207e0                DE_BE_Layer_Enable
                0x4a020810                DE_BE_YUV_CH_Set_Src
                0x4a020978                DE_BE_YUV_CH_Enable
                0x4a0209a0                hmdi_src_sel
                0x4a0209c0                dsi_src_sel
                0x4a0209e0                lvds_open
                0x4a020bb4                lvds_close
                0x4a020c54                tcon_get_timing
                0x4a020d54                tcon_set_reg_base
                0x4a020d68                tcon_get_reg_base
                0x4a020d78                tcon_init
                0x4a020dd0                tcon_exit
                0x4a020dfc                tcon_irq_enable
                0x4a020e24                tcon_irq_disable
                0x4a020e48                tcon_irq_query
                0x4a020e80                tcon_get_start_delay
                0x4a020ebc                tcon_get_cur_line
                0x4a020efc                tcon0_src_select
                0x4a020f1c                tcon0_src_get
                0x4a020f34                tcon0_open
                0x4a020fc4                tcon0_close
                0x4a021014                tcon0_cfg_mode_auto
                0x4a0211d8                tcon0_cfg_mode_tri
                0x4a021434                tcon0_tri_busy
                0x4a02144c                tcon0_tri_start
                0x4a021478                tcon0_frm
                0x4a021590                tcon0_cpu_16b_to_24b
                0x4a0215b8                tcon0_cpu_24b_to_16b
                0x4a0215dc                tcon0_cpu_busy
                0x4a021600                tcon0_cpu_wr_24b_index
                0x4a021660                tcon0_cpu_wr_24b_data
                0x4a0216c0                tcon0_cpu_wr_24b
                0x4a0216e4                tcon0_cpu_rd_24b
                0x4a0216ec                tcon0_cpu_wr_16b
                0x4a021724                tcon0_cpu_wr_16b_index
                0x4a021748                tcon0_cpu_wr_16b_data
                0x4a02176c                tcon0_cpu_rd_16b
                0x4a021774                tcon0_set_dclk_div
                0x4a021794                tcon0_get_dclk_div
                0x4a0217ac                tcon1_open
                0x4a0217d8                tcon1_close
                0x4a021804                tcon1_cfg
                0x4a021a40                tcon1_tv_cfg
                0x4a021c4c                tcon1_cfg_ex
                0x4a021c54                tcon1_set_hdmi_mode
                0x4a021ce0                tcon1_set_tv_mode
                0x4a021e18                tcon1_set_vga_mode
                0x4a022154                tcon1_src_select
                0x4a02217c                tcon1_src_get
                0x4a022194                tcon_ceu_range_cut
                0x4a0221c0                tcon_ceu_reg_corr
                0x4a0221d0                tcon_ceu_rect_multi
                0x4a022270                tcon_ceu_rect_calc
                0x4a0223e0                tcon_ceu_calc
                0x4a0225bc                tcon_ceu
                0x4a0229ec                tcon_gamma
                0x4a022a48                tcon_cmap
                0x4a022b98                tcon0_cfg
                0x4a022eb0                TVE_set_reg_base
                0x4a022ed8                TVE_open
                0x4a022f00                TVE_close
                0x4a022f48                TVE_set_tv_mode
                0x4a024068                TVE_set_vga_mode
                0x4a0240fc                TVE_query_int
                0x4a024120                TVE_clear_int
                0x4a02415c                TVE_get_dac_status
                0x4a0241bc                TVE_dac_int_enable
                0x4a024204                TVE_dac_int_disable
                0x4a02424c                TVE_dac_autocheck_enable
                0x4a024290                TVE_dac_autocheck_disable
                0x4a0242d4                TVE_exit
                0x4a024340                TVE_dac_enable
                0x4a02439c                TVE_dac_disable
                0x4a0243dc                TVE_dac_set_source
                0x4a024468                TVE_dac_get_source
                0x4a0244b4                TVE_dac_set_de_bounce
                0x4a024540                TVE_dac_get_de_bounce
                0x4a024594                TVE_dac_sel
                0x4a024714                TVE_csc_init
                0x4a02476c                TVE_init
                0x4a0248cc                TVE_csc_enable
                0x4a0248f8                TVE_csc_disable
                0x4a024924                dsi_set_reg_base
                0x4a024944                dsi_get_reg_base
                0x4a024954                dsi_dphy_get_reg_base
                0x4a024968                dsi_get_start_delay
                0x4a0249a8                dsi_get_cur_line
                0x4a0249f4                dsi_irq_enable
                0x4a024a1c                dsi_irq_disable
                0x4a024a40                dsi_irq_query
                0x4a024a80                dsi_inst_busy
                0x4a024a98                dsi_start
                0x4a024b60                dsi_open
                0x4a024b90                dsi_close
                0x4a024bc8                dsi_tri_start
                0x4a024bdc                DSI_delay_ms
                0x4a024be0                dsi_dcs_wr_index
                0x4a024be8                dsi_dcs_wr_data
                0x4a024bf0                dsi_dphy_cfg
                0x4a024ca8                dsi_io_open
                0x4a024eac                dsi_io_close
                0x4a025060                dsi_clk_enable
                0x4a02507c                dsi_basic_cfg
                0x4a0255a8                dsi_exit
                0x4a0255b0                dsi_ecc_pro
                0x4a02584c                dsi_dcs_rd
                0x4a0259a0                dsi_set_max_ret_size
                0x4a0259f0                dsi_dcs_rd_memory
                0x4a025ab4                dsi_crc_pro
                0x4a025b20                dsi_dcs_wr
                0x4a025c68                dsi_dcs_wr_memory
                0x4a025d04                dsi_dcs_wr_5para
                0x4a025d40                dsi_dcs_wr_4para
                0x4a025d74                dsi_dcs_wr_3para
                0x4a025da0                dsi_dcs_wr_2para
                0x4a025dc4                dsi_dcs_wr_1para
                0x4a025de8                dsi_dcs_wr_0para
                0x4a025e04                dsi_crc_pro_pd_repeat
                0x4a025e70                dsi_packet_cfg
                0x4a026348                dsi_cfg
                0x4a026378                disp_mipipll_calc_coefficient
                0x4a026450                disp_mipipll_set_coefficient
                0x4a0264a0                disp_mipipll_init
                0x4a026538                disp_mipipll_enable
                0x4a02656c                image_clk_init
                0x4a0266f8                image_clk_exit
                0x4a0267c8                image_clk_on
                0x4a02685c                image_clk_off
                0x4a0268ec                scaler_clk_init
                0x4a026a54                scaler_clk_exit
                0x4a026b24                scaler_clk_on
                0x4a026bc4                scaler_clk_off
                0x4a026c64                lcdc_clk_init
                0x4a026e0c                lcdc_clk_exit
                0x4a026ef8                lcdc_clk_on
                0x4a02703c                lcdc_clk_off
                0x4a027134                tve_clk_init
                0x4a02719c                tve_clk_exit
                0x4a027200                tve_clk_on
                0x4a027208                tve_clk_off
                0x4a027210                hdmi_clk_init
                0x4a027290                hdmi_clk_exit
                0x4a0272e4                hdmi_clk_on
                0x4a027310                hdmi_clk_off
                0x4a027348                lvds_clk_init
                0x4a027370                lvds_clk_exit
                0x4a027398                lvds_clk_on
                0x4a0273b8                lvds_clk_off
                0x4a0273d8                dsi_clk_init
                0x4a027488                dsi_clk_exit
                0x4a0274e4                dsi_clk_on
                0x4a027540                dsi_clk_off
                0x4a027590                disp_pll_init
                0x4a0275bc                disp_clk_cfg
                0x4a027a64                disp_clk_adjust
                0x4a027b20                bsp_disp_clk_on
                0x4a027e60                bsp_disp_clk_off
                0x4a028154                bsp_disp_set_bk_color
                0x4a0281a0                bsp_disp_get_bk_color
                0x4a0281f0                bsp_disp_set_color_key
                0x4a028274                bsp_disp_get_color_key
                0x4a0282a0                bsp_disp_set_palette_table
                0x4a0282e8                bsp_disp_get_palette_table
                0x4a028330                bsp_disp_layer_set_top
                0x4a02849c                bsp_disp_layer_set_bottom
                0x4a028608                bsp_disp_layer_set_alpha_value
                0x4a028678                bsp_disp_layer_get_alpha_value
                0x4a0286d4                bsp_disp_layer_alpha_enable
                0x4a028740                bsp_disp_layer_get_alpha_enable
                0x4a02879c                bsp_disp_layer_set_pipe
                0x4a028814                bsp_disp_layer_get_pipe
                0x4a02886c                bsp_disp_layer_colorkey_enable
                0x4a0288d8                bsp_disp_layer_get_colorkey_enable
                0x4a028934                bsp_disp_layer_get_piro
                0x4a02898c                Image_init
                0x4a028a3c                Image_exit
                0x4a028a60                Image_open
                0x4a028a70                Image_close
                0x4a028aa0                bsp_disp_get_bright
                0x4a028ab8                bsp_disp_get_contrast
                0x4a028ad0                bsp_disp_get_saturation
                0x4a028ae8                bsp_disp_get_hue
                0x4a028b00                bsp_disp_get_enhance_enable
                0x4a028b1c                bsp_disp_set_screen_size
                0x4a028b58                bsp_disp_set_output_csc
                0x4a028ca0                bsp_disp_enhance_enable
                0x4a028cdc                bsp_disp_set_hue
                0x4a028d18                bsp_disp_set_saturation
                0x4a028d54                bsp_disp_set_contrast
                0x4a028d90                bsp_disp_set_bright
                0x4a028dcc                Disp_set_out_interlace
                0x4a028f58                bsp_disp_de_flicker_enable
                0x4a028f8c                bsp_disp_store_image_reg
                0x4a028fc4                bsp_disp_restore_image_reg
                0x4a029010                bsp_disp_init
                0x4a0291f4                bsp_disp_open
                0x4a0291fc                bsp_disp_close
                0x4a0292d8                bsp_disp_exit
                0x4a029430                bsp_disp_print_reg
                0x4a0294b4                bsp_disp_set_print_level
                0x4a0294cc                bsp_disp_get_print_level
                0x4a0294e0                bsp_disp_cmd_cache_get
                0x4a0294f8                bsp_disp_cfg_get
                0x4a029510                bsp_disp_cmd_cache
                0x4a029530                bsp_disp_cmd_submit
                0x4a02954c                bsp_disp_cfg_start
                0x4a029570                bsp_disp_cfg_finish
                0x4a029594                bsp_disp_vsync_event_enable
                0x4a0295b0                bsp_disp_get_fps
                0x4a0295b8                bsp_disp_get_vint_count
                0x4a0295c8                disp_vint_checkin
                0x4a0295fc                disp_lint_checkin
                0x4a02961c                bsp_disp_get_lint_count
                0x4a029630                LCD_vbi_event_proc
                0x4a029758                LCD_line_event_proc
                0x4a0297d0                disp_hdmi_init
                0x4a029880                disp_hdmi_exit
                0x4a0298b4                bsp_disp_hdmi_set_mode
                0x4a029934                bsp_disp_hdmi_get_mode
                0x4a02994c                bsp_disp_hdmi_suspend
                0x4a029974                bsp_disp_hdmi_resume
                0x4a02999c                bsp_disp_hdmi_early_suspend
                0x4a0299c4                bsp_disp_hdmi_late_resume
                0x4a0299ec                bsp_disp_hdmi_cts_enable
                0x4a029a00                bsp_disp_hdmi_get_cts_enable
                0x4a029a10                bsp_disp_hdmi_set_test_mode
                0x4a029a2c                bsp_disp_hdmi_get_test_mode
                0x4a029a44                disp_hdmi_get_support
                0x4a029a54                bsp_disp_set_hdmi_func
                0x4a029b3c                BSP_dsip_hdmi_get_input_csc
                0x4a029b94                bsp_disp_set_hdmi_hpd
                0x4a029c60                bsp_disp_hdmi_dvi_support
                0x4a029cb8                bsp_disp_hdmi_dvi_enable
                0x4a029d1c                bsp_disp_hdmi_get_src
                0x4a029d5c                bsp_disp_hdmi_set_src
                0x4a029ddc                bsp_disp_hdmi_get_hpd_status
                0x4a029e34                bsp_disp_hdmi_check_support_mode
                0x4a029eb0                bsp_disp_hdmi_close
                0x4a029fac                bsp_disp_hdmi_open
                0x4a02a17c                bsp_disp_hdmi_get_registered
                0x4a02a190                bsp_disp_hwc_enable
                0x4a02a1a0                bsp_disp_hwc_set_pos
                0x4a02a1b0                bsp_disp_hwc_get_pos
                0x4a02a1c0                bsp_disp_hwc_set_framebuffer
                0x4a02a1f0                bsp_disp_hwc_set_palette
                0x4a02a324                Layer_Get_Prio
                0x4a02a354                get_fb_type
                0x4a02a368                img_sw_para_to_reg
                0x4a02a588                de_format_to_bpp
                0x4a02a5a0                Yuv_Channel_Set_framebuffer
                0x4a02a638                Yuv_Channel_adjusting
                0x4a02a6a0                bsp_disp_layer_request
                0x4a02a830                bsp_disp_layer_release
                0x4a02aaa4                bsp_disp_layer_open
                0x4a02ab54                bsp_disp_layer_close
                0x4a02ac04                bsp_disp_layer_set_framebuffer
                0x4a02ae24                bsp_disp_layer_get_framebuffer
                0x4a02aed4                bsp_disp_layer_set_src_window
                0x4a02b0d4                bsp_disp_layer_get_src_window
                0x4a02b1a8                bsp_disp_layer_set_screen_window
                0x4a02b3ac                bsp_disp_layer_get_screen_window
                0x4a02b454                bsp_disp_layer_set_para
                0x4a02baf4                bsp_disp_layer_get_para
                0x4a02bb7c                bsp_disp_layer_set_smooth
                0x4a02bc24                bsp_disp_layer_get_smooth
                0x4a02bcc0                bsp_disp_layer_set_bright
                0x4a02bd7c                bsp_disp_layer_get_bright
                0x4a02bdf8                bsp_disp_layer_set_contrast
                0x4a02beb0                bsp_disp_layer_get_contrast
                0x4a02bf2c                bsp_disp_layer_set_saturation
                0x4a02bfe8                bsp_disp_layer_get_saturation
                0x4a02c064                bsp_disp_layer_set_hue
                0x4a02c11c                bsp_disp_layer_get_hue
                0x4a02c198                bsp_disp_layer_enhance_enable
                0x4a02c278                bsp_disp_layer_get_enhance_enable
                0x4a02c2f4                disp_lcdc_event_proc
                0x4a02c340                LCD_get_reg_bases
                0x4a02c374                Lcd_Panel_Parameter_Check
                0x4a02c378                LCD_parse_panel_para
                0x4a02c91c                LCD_get_sys_config
                0x4a02cd38                bsp_disp_lcd_delay_ms
                0x4a02cd48                bsp_disp_lcd_delay_us
                0x4a02cd58                LCD_OPEN_FUNC
                0x4a02cd94                LCD_CLOSE_FUNC
                0x4a02cdd0                bsp_disp_lcd_tcon_open
                0x4a02ce84                bsp_disp_lcd_tcon_close
                0x4a02cf0c                TCON_get_open_status
                0x4a02cf30                TCON_get_cur_line
                0x4a02cf54                TCON_get_start_delay
                0x4a02cf78                LCD_PWM_EN
                0x4a02cfac                bsp_disp_lcd_pwm_enable
                0x4a02cfb4                bsp_disp_lcd_pwm_disable
                0x4a02cfbc                LCD_BL_EN
                0x4a02d040                bsp_disp_lcd_backlight_enable
                0x4a02d048                bsp_disp_lcd_backlight_disable
                0x4a02d050                LCD_POWER_EN_EXT
                0x4a02d1d0                LCD_POWER_EN
                0x4a02d254                bsp_disp_lcd_power_enable
                0x4a02d25c                bsp_disp_lcd_power_disable
                0x4a02d264                bsp_disp_lcd_power_disable_all
                0x4a02d2a4                LCD_GPIO_request
                0x4a02d2ac                LCD_GPIO_release
                0x4a02d2b4                LCD_GPIO_set_attr
                0x4a02d308                LCD_GPIO_read
                0x4a02d354                LCD_GPIO_write
                0x4a02d3a8                LCD_GPIO_init
                0x4a02d434                LCD_GPIO_exit
                0x4a02d4d0                LCD_CPU_register_irq
                0x4a02d4e8                bsp_disp_lcd_pin_cfg
                0x4a02d5f4                disp_lcdc_exit
                0x4a02d670                tv_mode_to_width
                0x4a02d68c                tv_mode_to_height
                0x4a02d6a8                vga_mode_to_width
                0x4a02d6c4                vga_mode_to_height
                0x4a02d6e0                disp_get_screen_scan_mode
                0x4a02d714                bsp_disp_get_screen_width
                0x4a02d754                bsp_disp_get_screen_height
                0x4a02d794                bsp_disp_get_screen_physical_width
                0x4a02d7d4                bsp_disp_get_screen_physical_height
                0x4a02d814                bsp_disp_get_screen_width_from_output_type
                0x4a02d880                bsp_disp_get_screen_height_from_output_type
                0x4a02d8ec                bsp_disp_get_output_type
                0x4a02d934                bsp_disp_get_frame_rate
                0x4a02d9f8                bsp_disp_lcd_open_after
                0x4a02da28                bsp_disp_lcd_get_open_flow
                0x4a02da3c                bsp_disp_lcd_close_befor
                0x4a02dac0                bsp_disp_lcd_close_after
                0x4a02db58                bsp_disp_lcd_get_close_flow
                0x4a02db6c                __disp_lcd_bright_get_adjust_value
                0x4a02db94                __disp_lcd_bright_curve_init
                0x4a02dcb0                disp_lcdc_init
                0x4a02df0c                bsp_disp_lcd_set_bright
                0x4a02dffc                bsp_disp_lcd_get_bright
                0x4a02e014                bsp_disp_set_gamma_table
                0x4a02e0ac                bsp_disp_gamma_correction_enable
                0x4a02e0e4                bsp_disp_gamma_correction_disable
                0x4a02e134                bsp_disp_lcd_set_src
                0x4a02e1a8                bsp_disp_lcd_open_before
                0x4a02e328                bsp_disp_lcd_get_src
                0x4a02e32c                bsp_disp_lcd_user_defined_func
                0x4a02e348                bsp_disp_get_timming
                0x4a02e4cc                bsp_disp_close_lcd_backlight
                0x4a02e59c                bsp_disp_open_lcd_backlight
                0x4a02e658                bsp_disp_lcd_set_bright_dimming
                0x4a02e674                bsp_disp_lcd_used
                0x4a02e690                bsp_disp_lcd_get_panel_para
                0x4a02e6b8                LCD_CPU_WR
                0x4a02e6c8                LCD_CPU_WR_INDEX
                0x4a02e6d8                LCD_CPU_WR_DATA
                0x4a02e6e8                bsp_disp_lcd_set_fps
                0x4a02e728                disp_lcd_set_fps
                0x4a02e7d8                bsp_disp_lcd_get_size
                0x4a02e828                bsp_disp_lcd_get_model_name
                0x4a02e874                bsp_disp_lcd_get_driver_name
                0x4a02e8b4                bsp_disp_lcd_set_panel_funs
                0x4a02e990                bsp_disp_lcd_dsi_io_enable
                0x4a02e9a4                disp_lcd_get_support
                0x4a02e9b4                bsp_disp_lcd_get_registered
                0x4a02e9c8                scaler_event_proc
                0x4a02ea6c                Scaler_sw_para_to_reg
                0x4a02ec34                Scaler_3d_sw_para_to_reg
                0x4a02ed04                Scaler_Init
                0x4a02ed8c                Scaler_Exit
                0x4a02ee08                Scaler_open
                0x4a02ee48                Scaler_close
                0x4a02eedc                Scaler_Request
                0x4a02ef94                Scaler_Release
                0x4a02f02c                Scaler_Get_Framebuffer
                0x4a02f084                Scaler_Set_SclRegn
                0x4a02f338                Scaler_Get_SclRegn
                0x4a02f39c                Scaler_Set_Outitl
                0x4a02f504                bsp_disp_scaler_set_smooth
                0x4a02f660                bsp_disp_scaler_get_smooth
                0x4a02f67c                bsp_disp_scaler_request
                0x4a02f6b4                bsp_disp_scaler_release
                0x4a02f6e8                bsp_disp_scaler_start_ex
                0x4a02fbb0                bsp_disp_scaler_start
                0x4a030034                Scaler_Set_Enhance
                0x4a0300cc                Scaler_Set_Para
                0x4a030560                Scaler_Set_Output_Size
                0x4a03075c                Scaler_Set_Framebuffer
                0x4a030a74                bsp_disp_store_scaler_reg
                0x4a030aac                bsp_disp_restore_scaler_reg
                0x4a030cb0                Disp_Switch_Dram_Mode
                0x4a030cb8                Disp_TVEC_Init
                0x4a030db8                Disp_TVEC_Exit
                0x4a030dd4                Disp_TVEC_Open
                0x4a030de4                Disp_TVEC_Close
                0x4a030e28                bsp_disp_tv_open
                0x4a030f64                bsp_disp_tv_close
                0x4a031004                bsp_disp_tv_set_mode
                0x4a03104c                bsp_disp_tv_get_mode
                0x4a031064                bsp_disp_tv_get_interface
                0x4a031110                bsp_disp_tv_get_dac_status
                0x4a031118                bsp_disp_tv_set_dac_source
                0x4a031158                bsp_disp_tv_get_dac_source
                0x4a031174                bsp_disp_tv_auto_check_enable
                0x4a0311b0                bsp_disp_tv_auto_check_disable
                0x4a0311ec                bsp_disp_tv_set_src
                0x4a03122c                bsp_disp_restore_tvec_reg
                0x4a03123c                VGA_Init
                0x4a03125c                VGA_Exit
                0x4a031264                bsp_disp_vga_open
                0x4a0313f4                bsp_disp_vga_close
                0x4a03148c                bsp_disp_vga_set_mode
                0x4a0314ec                bsp_disp_vga_get_mode
                0x4a031504                bsp_disp_vga_set_src
                0x4a031544                bsp_disp_video_set_fb
                0x4a0315c8                bsp_disp_video_get_frame_id
                0x4a03163c                bsp_disp_video_get_dit_info
                0x4a0316fc                bsp_disp_video_start
                0x4a031818                bsp_disp_video_stop
                0x4a0318cc                bsp_disp_video_get_start
                0x4a031944                disp_video_init
                0x4a0319a4                disp_video_exit
                0x4a0319f8                disp_video_set_dit_mode
                0x4a031a10                disp_video_get_dit_mode
                0x4a031a24                bsp_disp_video_get_fb
                0x4a031aa0                bsp_disp_video_get_fps
                0x4a031ad4                disp_video_checkin
                0x4a031b00                Video_Operation_In_Vblanking
                0x4a0321ec                bsp_disp_capture_screen
                0x4a032640                IEP_CMU_Set_Reg_Base
                0x4a032654                IEP_CMU_Reg_Init
                0x4a032678                IEP_CMU_Set_Data_Flow
                0x4a03269c                IEP_CMU_Set_Window
                0x4a03277c                IEP_CMU_Set_Imgsize
                0x4a0327ac                IEP_CMU_Set_Par
                0x4a032c14                IEP_CMU_Operation_In_Vblanking
                0x4a032c40                IEP_CMU_Enable
                0x4a032c64                IEP_CMU_Disable
                0x4a032c84                iep_cmu_early_suspend
                0x4a032c8c                iep_cmu_suspend
                0x4a032cdc                iep_cmu_resume
                0x4a032d48                IEP_CMU_Late_Resume
                0x4a032d50                iep_init
                0x4a032e84                iep_exit
                0x4a032e8c                bsp_disp_iep_suspend
                0x4a032eb0                bsp_disp_iep_resume
                0x4a032ed4                bsp_disp_drc_enable
                0x4a033054                bsp_disp_drc_get_enable
                0x4a03306c                bsp_disp_drc_set_window
                0x4a0330c4                bsp_disp_drc_get_window
                0x4a03310c                bsp_disp_drc_set_mode
                0x4a03313c                bsp_disp_drc_get_mode
                0x4a033154                bsp_disp_drc_get_input_csc
                0x4a033184                disp_drc_start_video_mode
                0x4a0331fc                disp_drc_start_ui_mode
                0x4a033278                bsp_disp_deu_get_enable
                0x4a0332f4                bsp_disp_deu_get_luma_sharp_level
                0x4a033370                bsp_disp_deu_set_chroma_sharp_level
                0x4a03342c                bsp_disp_deu_get_chroma_sharp_level
                0x4a0334a8                bsp_disp_deu_set_white_exten_level
                0x4a033564                bsp_disp_deu_get_white_exten_level
                0x4a0335e0                bsp_disp_deu_set_black_exten_level
                0x4a03369c                bsp_disp_deu_get_black_exten_level
                0x4a033718                bsp_disp_deu_set_window
                0x4a033808                bsp_disp_deu_get_window
                0x4a0338a0                disp_deu_set_frame_info
                0x4a033a88                bsp_disp_deu_set_luma_sharp_level
                0x4a033b5c                bsp_disp_deu_enable
                0x4a033f20                disp_deu_clear
                0x4a033fa0                disp_deu_output_select
                0x4a034018                __disp_cmu_get_adjust_value
                0x4a034058                bsp_disp_cmu_layer_enable
                0x4a0341d4                bsp_disp_cmu_layer_get_enable
                0x4a034244                disp_cmu_layer_clear
                0x4a034294                bsp_disp_cmu_layer_set_window
                0x4a03433c                bsp_disp_cmu_layer_get_window
                0x4a0343c8                bsp_disp_cmu_layer_set_bright
                0x4a034494                bsp_disp_cmu_layer_get_bright
                0x4a034500                bsp_disp_cmu_layer_set_saturation
                0x4a0345d0                bsp_disp_cmu_layer_get_saturation
                0x4a03463c                bsp_disp_cmu_layer_set_hue
                0x4a03470c                bsp_disp_cmu_layer_get_hue
                0x4a034778                bsp_disp_cmu_layer_set_contrast
                0x4a0347f0                bsp_disp_cmu_layer_get_contrast
                0x4a03485c                bsp_disp_cmu_layer_set_mode
                0x4a034928                bsp_disp_cmu_layer_get_mode
                0x4a034994                bsp_disp_cmu_enable
                0x4a034ab4                bsp_disp_cmu_get_enable
                0x4a034ad0                bsp_disp_cmu_set_window
                0x4a034b20                bsp_disp_cmu_get_window
                0x4a034b4c                bsp_disp_cmu_set_bright
                0x4a034bc0                bsp_disp_cmu_get_bright
                0x4a034bd8                bsp_disp_cmu_set_saturation
                0x4a034c54                bsp_disp_cmu_get_saturation
                0x4a034c6c                bsp_disp_cmu_set_hue
                0x4a034ce8                bsp_disp_cmu_get_hue
                0x4a034d00                bsp_disp_cmu_set_contrast
                0x4a034d1c                bsp_disp_cmu_get_contrast
                0x4a034d34                bsp_disp_cmu_set_mode
                0x4a034dac                bsp_disp_cmu_get_mode
                0x4a034dc4                bsp_disp_feat_get_num_screens
                0x4a034dd8                bsp_disp_feat_get_num_layers
                0x4a034df0                bsp_disp_feat_get_num_scalers
                0x4a034e04                bsp_disp_feat_get_supported_output_types
                0x4a034e1c                bsp_disp_feat_get_layer_feats
                0x4a034e44                bsp_disp_feat_get_enhance_feats
                0x4a034e5c                bsp_disp_feat_get_layer_horizontal_resolution_max
                0x4a034ec4                bsp_disp_feat_get_layer_vertical_resolution_max
                0x4a034f2c                bsp_disp_feat_get_layer_horizontal_resolution_min
                0x4a034f60                bsp_disp_feat_get_layer_vertical_resolution_min
                0x4a034f78                bsp_disp_feat_get_de_flicker_support
                0x4a034f90                bsp_disp_feat_get_smart_backlight_support
                0x4a034fa8                bsp_disp_feat_get_image_detail_enhance_support
                0x4a034fc0                bsp_disp_feat_init
                0x4a034fdc                drc_clk_init
                0x4a035140                drc_clk_exit
                0x4a035264                drc_clk_open
                0x4a035308                drc_clk_close
                0x4a0353a8                drc_init
                0x4a035468                drc_proc
                0x4a0357a0                drc_close_proc
                0x4a0357fc                drc_enable
                0x4a035888                IEP_Drc_Init
                0x4a0359b4                IEP_Drc_Exit
                0x4a0359e0                IEP_Drc_Enable
                0x4a035a18                IEP_Drc_Set_Winodw
                0x4a035a58                IEP_Drc_Operation_In_Vblanking
                0x4a035a90                IEP_Drc_Set_Reg_Base
                0x4a035aa0                IEP_Drc_Set_Mode
                0x4a035abc                IEP_Drc_Early_Suspend
                0x4a035acc                iep_drc_suspend
                0x4a035b20                iep_drc_resume
                0x4a035b90                IEP_Drc_Late_Resume
                0x4a035b98                IEP_Drc_Set_Imgsize
                0x4a035bc0                DRC_EBIOS_Set_Reg_Base
                0x4a035bd4                DRC_EBIOS_Get_Reg_Base
                0x4a035be4                DRC_EBIOS_Enable
                0x4a035c04                DRC_EBIOS_Disable
                0x4a035c24                DRC_EBIOS_Set_Mode
                0x4a035c44                DRC_EBIOS_Bist_Enable
                0x4a035c64                DRC_EBIOS_Set_Reg_Refresh_Edge
                0x4a035c84                DRC_EBIOS_Set_Csc_Coeff
                0x4a035e78                DRC_EBIOS_Set_Display_Size
                0x4a035eac                DRC_EBIOS_Win_Enable
                0x4a035ecc                DRC_EBIOS_Set_Win_Para
                0x4a035f14                DRC_EBIOS_Drc_Cfg_Rdy
                0x4a035f40                DRC_EBIOS_Drc_Set_Lgc_Addr
                0x4a035f5c                DRC_EBIOS_Drc_Set_Lgc_Autoload_Disable
                0x4a035f7c                DRC_EBIOS_Drc_Adjust_Enable
                0x4a035f9c                DRC_EBIOS_Drc_Set_Adjust_Para
                0x4a035fc4                DRC_EBIOS_Drc_Set_Spa_Coeff
                0x4a036020                DRC_EBIOS_Drc_Set_Int_Coeff
                0x4a036070                DRC_EBIOS_Drc_Set_Mode
                0x4a0360a4                DRC_EBIOS_Lh_Set_Mode
                0x4a0360c4                DRC_EBIOS_Lh_Clr_Rec
                0x4a0360e4                DRC_EBIOS_Lh_Set_Thres
                0x4a036130                DRC_EBIOS_Lh_Get_Sum_Rec
                0x4a036160                DRC_EBIOS_Lh_Get_Cnt_Rec
                0x4a036190                deu_clk_init
                0x4a03630c                deu_clk_exit
                0x4a036430                deu_clk_open
                0x4a0364d4                deu_clk_close
                0x4a036574                DEU_ALG
                0x4a036770                IEP_Deu_Set_Luma_Sharpness_Level
                0x4a03678c                IEP_Deu_Set_Chroma_Sharpness_Level
                0x4a0367a8                IEP_Deu_Set_White_Level_Extension
                0x4a0367e4                IEP_Deu_Set_Black_Level_Extension
                0x4a036820                IEP_Deu_Set_Ready
                0x4a036830                IEP_Deu_Set_Reg_base
                0x4a036840                IEP_Deu_Set_Winodw
                0x4a036874                IEP_Deu_Output_Select
                0x4a036884                IEP_Deu_Init
                0x4a036948                IEP_Deu_Exit
                0x4a03696c                IEP_Deu_Operation_In_Vblanking
                0x4a0369c8                IEP_Deu_Enable
                0x4a036a8c                iep_deu_suspend
                0x4a036ae0                iep_deu_resume
                0x4a036b50                IEP_Deu_Set_frameinfo
                0x4a036b8c                DEU_EBIOS_Set_Reg_Base
                0x4a036ba0                DEU_EBIOS_Get_Reg_Base
                0x4a036bb0                DEU_EBIOS_Enable
                0x4a036bd0                DEU_EBIOS_Csc_Enable
                0x4a036bf0                DEU_EBIOS_Set_Csc_Coeff
                0x4a036ce0                DEU_EBIOS_Set_Display_Size
                0x4a036d14                DEU_EBIOS_Set_Win_Para
                0x4a036d5c                DEU_EBIOS_Cfg_Rdy
                0x4a036d7c                DEU_EBIOS_Set_Output_Chnl
                0x4a036d9c                DEU_EBIOS_LP_STR_Cfg_Rdy
                0x4a036dbc                DEU_EBIOS_LP_Set_Mode
                0x4a036ddc                DEU_EBIOS_LP_STR_Enable
                0x4a036dfc                DEU_EBIOS_LP_Set_STR_Addr
                0x4a036e18                DEU_EBIOS_LP_Set_Para
                0x4a036e88                DEU_EBIOS_LP_Enable
                0x4a036ea8                DEU_EBIOS_DCTI_Set_Para
                0x4a036fa8                DEU_EBIOS_DCTI_Enable
                0x4a036fc8                DEU_EBIOS_WLE_Set_Para
                0x4a03702c                DEU_EBIOS_WLE_Enable
                0x4a03704c                DEU_EBIOS_BLE_Set_Para
                0x4a0370b0                DEU_EBIOS_BLE_Enable
                0x4a0370d0                IIC_SCLB_LOW
                0x4a0370f8                IIC_SCLB_HIGH
                0x4a037108                IIC_SDAB_LOW
                0x4a037130                IIC_SDAB_HIGH
                0x4a037140                CHECK_SDAB_HIGH
                0x4a037164                i2cB_clock
                0x4a037188                i2cB_ack
                0x4a0371ec                i2cBStartA
                0x4a037214                i2cBStart
                0x4a037244                i2cBStop
                0x4a037270                i2cBTransmit
                0x4a0372bc                i2cBLocateSubAddr
                0x4a037308                i2cBReceive
                0x4a03737c                i2cBLocateSubDataR
                0x4a0373dc                bsp_disp_lcd_iic_write
                0x4a037418                bsp_disp_lcd_iic_read
                0x4a03745c                LCD_set_panel_funs
                0x4a037484                sunxi_lcd_delay_ms
                0x4a0374ac                sunxi_lcd_delay_us
                0x4a0374d4                sunxi_lcd_tcon_enable
                0x4a0374f4                sunxi_lcd_tcon_disable
                0x4a037514                sunxi_lcd_backlight_enable
                0x4a037534                sunxi_lcd_backlight_disable
                0x4a037554                sunxi_lcd_power_enable
                0x4a037574                sunxi_lcd_power_disable
                0x4a037594                sunxi_lcd_pwm_set_para
                0x4a0375bc                sunxi_lcd_pwm_get_para
                0x4a0375e4                sunxi_lcd_pwm_set_duty_ns
                0x4a03760c                sunxi_lcd_pwm_enable
                0x4a037634                sunxi_lcd_pwm_disable
                0x4a03765c                sunxi_lcd_cpu_write
                0x4a037684                sunxi_lcd_cpu_write_index
                0x4a0376ac                sunxi_lcd_cpu_write_data
                0x4a0376d4                sunxi_lcd_dsi_write
                0x4a0376fc                sunxi_lcd_dsi_clk_enable
                0x4a037728                sunxi_lcd_dsi_clk_disable
                0x4a037754                sunxi_lcd_pin_cfg
                0x4a03777c                sunxi_disp_get_num_screens
                0x4a03779c                sunxi_lcd_get_driver_name
                0x4a0377c4                sunxi_lcd_set_panel_funs
                0x4a0377ec                sunxi_lcd_get_panel_para
                0x4a037814                sunxi_lcd_iic_write
                0x4a03783c                sunxi_lcd_iic_read
                0x4a037864                lcd_init
                0x4a037dfc                anx9804_init
                0x4a0384dc                SP_TX_I2C_Write_BYTE
                0x4a0384ec                SP_TX_I2C_Read_BYTE
                0x4a0384fc                SP_TX_Write_Reg
                0x4a03850c                SP_TX_Read_Reg
                0x4a03851c                SP_TX_Wait_AUX_Finished
                0x4a038578                SP_TX_AUX_DPCDRead_Bytes
                0x4a03868c                anx6345_init
                0x4a038bb4                anx6345_exit
                0x4a038eac                spi_24bit_3wire
                0x4a038f6c                lp079x01_init
                0x4a0391bc                lp079x01_exit
                0x4a039574                hdmi_core_initial
                0x4a0395e0                main_Hpd_Check
                0x4a039624                Hpd_Check
                0x4a03964c                get_video_info
                0x4a039694                get_audio_info
                0x4a03989c                video_config
                0x4a039de8                audio_config
                0x4a039f8c                hdmi_main_task_loop
                0x4a03a0f4                DDC_Init
                0x4a03a19c                DDC_Read
                0x4a03a290                GetEDIDData
                0x4a03a2bc                EDID_CheckSum
                0x4a03a2f0                EDID_Header_Check
                0x4a03a364                EDID_Version_Check
                0x4a03a38c                Parse_DTD_Block
                0x4a03a588                Parse_VideoData_Block
                0x4a03a5c0                Parse_AudioData_Block
                0x4a03a5e0                Parse_HDMI_VSDB
                0x4a03a640                ParseEDID
                0x4a03a804                Hdmi_set_reg_base
                0x4a03a814                Hdmi_hal_video_enable
                0x4a03a850                Hdmi_hal_set_display_mode
                0x4a03a88c                Hdmi_hal_audio_enable
                0x4a03a8c0                Hdmi_hal_mode_support
                0x4a03a908                Hdmi_hal_get_HPD
                0x4a03a90c                Hdmi_hal_get_state
                0x4a03a91c                Hdmi_hal_set_pll
                0x4a03a93c                Hdmi_hal_main_task
                0x4a03a94c                Hdmi_hal_init
                0x4a03a978                Hdmi_hal_exit
                0x4a03a980                Hdmi_hal_video_enable_sync
                0x4a03a9f4                hdmi_i2c_add_driver
                0x4a03a9fc                hdmi_i2c_del_driver
 .text          0x4a03aa04     0x30b0 fs/aw_fs/libawfat.o
                0x4a03b360                get_fattime
                0x4a03b368                clust2sect
                0x4a03b38c                get_fat
                0x4a03b5b0                aw_get_fat
                0x4a03b6d4                put_fat
                0x4a03bfac                aw_put_fat
                0x4a03c248                f_mount
                0x4a03c284                f_open
                0x4a03c47c                f_read
                0x4a03c798                f_write
                0x4a03cad4                f_sync
                0x4a03cbc4                f_close
                0x4a03cd90                f_lseek
                0x4a03cfc0                f_opendir
                0x4a03d070                f_readdir
                0x4a03d0fc                f_stat
                0x4a03d16c                f_getfree
                0x4a03d2cc                f_truncate
                0x4a03d3c8                f_unlink
                0x4a03d518                f_mkdir
                0x4a03d704                f_chmod
                0x4a03d790                f_utime
                0x4a03d828                f_rename
                0x4a03d9e8                disk_initialize
                0x4a03d9f0                disk_status
                0x4a03d9f8                disk_read_fs
                0x4a03da50                disk_write
                0x4a03daac                disk_ioctl
 .text          0x4a03dab4     0x2870 fs/fat/libfat.o
                0x4a03dae8                downcase
                0x4a03db0c                disk_read
                0x4a03db60                fat_register_device
                0x4a03dc70                get_name
                0x4a03dd34                get_fatent
                0x4a03de60                get_cluster
                0x4a03def4                get_contents
                0x4a03e070                slot2str
                0x4a03e13c                get_vfatname
                0x4a03e2f8                mkcksum
                0x4a03e328                read_bootsectandvi
                0x4a03e418                do_fat_read
                0x4a03ecc8                file_fat_detectfs
                0x4a03ee20                file_fat_ls
                0x4a03ee30                file_fat_read
                0x4a03ff90                file_fat_write
                0x4a03ffc4                file_getfsname
                0x4a03ffdc                file_cd
                0x4a0401d0                file_detectfs
                0x4a04020c                file_ls
                0x4a040290                file_read
 .text          0x4a040324     0x29ac lib/libgeneric.o
                0x4a040324                crc7
                0x4a040354                cyg_crc16
                0x4a040398                crc32_no_comp
                0x4a040478                crc32
                0x4a04048c                crc32_wd
                0x4a040490                display_options
                0x4a0404b0                print_size
                0x4a0405e4                print_buffer
                0x4a040730                zfree
                0x4a040738                zalloc
                0x4a040748                zunzip
                0x4a040850                gunzip
                0x4a040910                hcreate_r
                0x4a0409b0                hdestroy_r
                0x4a040a24                hstrstr_r
                0x4a040ad0                hmatch_r
                0x4a040b70                hsearch_r
                0x4a040e5c                hdelete_r
                0x4a040ee4                hexport_r
                0x4a041100                himport_r
                0x4a041508                lmb_dump_all
                0x4a04150c                lmb_init
                0x4a041534                lmb_add
                0x4a041538                lmb_free
                0x4a04165c                lmb_reserve
                0x4a041664                lmb_overlaps_region
                0x4a0416c0                __lmb_alloc_base
                0x4a0417f0                lmb_alloc_base
                0x4a041824                lmb_alloc
                0x4a04182c                lmb_is_reserved
                0x4a04188c                board_lmb_reserve
                0x4a04188c                __board_lmb_reserve
                0x4a041890                __arch_lmb_reserve
                0x4a041894                ldiv
                0x4a0418bc                string_to_ip
                0x4a041918                qsort
                0x4a0419e4                strcmp_compar
                0x4a0419f0                strmhz
                0x4a041a4c                __div64_32
                0x4a041b1c                strcpy
                0x4a041b34                strncpy
                0x4a041b58                strcat
                0x4a041b84                strncat
                0x4a041bd8                strcmp
                0x4a041c00                strncmp
                0x4a041c44                strchr
                0x4a041c78                strlen
                0x4a041c98                strrchr
                0x4a041cd4                strnlen
                0x4a041d00                strdup
                0x4a041d34                strspn
                0x4a041d74                strpbrk
                0x4a041db0                strtok
                0x4a041e28                strsep
                0x4a041e5c                strswab
                0x4a041ea8                bcopy
                0x4a041ed0                memmove
                0x4a041f3c                memcmp
                0x4a041f70                memscan
                0x4a041f9c                strstr
                0x4a041ffc                memchr
                0x4a04202c                udelay
                0x4a042548                simple_strtoul
                0x4a0425f4                strict_strtoul
                0x4a04266c                simple_strtol
                0x4a042694                ustrtoul
                0x4a042708                simple_strtoull
                0x4a042808                vsprintf
                0x4a042c54                sprintf
                0x4a042c78                panic
                0x4a042cbc                __assert_fail
 .text          0x4a042cd0     0x269c lib/zlib/libz.o
                0x4a042cd0                zcfree
                0x4a042cd8                zcalloc
                0x4a042ce0                inflate_fast
                0x4a04328c                inflate_table
                0x4a043850                inflateReset
                0x4a0438d0                inflateInit2_
                0x4a0439d4                inflateInit_
                0x4a0439e8                inflateEnd
                0x4a043a54                adler32
                0x4a043d10                inflate
 .text          0x4a04536c     0x17a8 nand_sunxi/nand_interface/libnand_interface.o
                0x4a04536c                nand_get_mbr
                0x4a045460                nand_uboot_init
                0x4a0454bc                nand_uboot_exit
                0x4a045524                nand_uboot_probe
                0x4a045528                nand_uboot_read
                0x4a045544                nand_uboot_write
                0x4a045560                nand_download_boot0
                0x4a045598                nand_download_uboot
                0x4a0455d0                nand_uboot_erase
                0x4a0455d4                nand_uboot_get_flash_info
                0x4a0455d8                nand_uboot_set_flash_info
                0x4a0455e0                nand_uboot_get_flash_size
                0x4a0455e4                nand_uboot_flush
                0x4a0455e8                nand_write_uboot
                0x4a045610                nand_read_uboot
                0x4a045638                nand_get_dev
                0x4a045658                nand_erase_uboot
                0x4a045660                nand_init_uboot
                0x4a0456b4                __NAND_UpdatePhyArch
                0x4a0456cc                msg
                0x4a0456ec                NAND_PhyInit
                0x4a045734                NAND_PhyExit
                0x4a045750                NAND_LogicWrite
                0x4a045754                NAND_LogicRead
                0x4a045758                NAND_LogicInit
                0x4a045904                NAND_LogicExit
                0x4a045930                NAND_build_all_partition
                0x4a0459e8                max_badblk
                0x4a0459f4                cal_real_chip
                0x4a045a34                mark_bad_block
                0x4a045b9c                NAND_VersionGet
                0x4a045bd0                NAND_VersionCheck
                0x4a045d8c                NAND_EraseBootBlocks
                0x4a045df4                NAND_EraseChip
                0x4a046064                NAND_BadBlockScan
                0x4a0463e8                NAND_UbootInit
                0x4a046430                NAND_UbootExit
                0x4a046434                NAND_UbootProbe
                0x4a04644c                NAND_UbootRead
                0x4a046450                NAND_UbootWrite
                0x4a046454                NAND_Uboot_Erase
                0x4a04649c                burn_boot0_1k_mode
                0x4a04658c                burn_boot0_lsb_mode
                0x4a0466ec                NAND_BurnBoot0
                0x4a04673c                burn_uboot_in_one_blk
                0x4a0468a0                burn_uboot_in_many_blks
                0x4a046a24                NAND_BurnUboot
                0x4a046ab4                NAND_GetParam_store
                0x4a046b10                NAND_FlushCache
 .text          0x4a046b14      0x300 nand_sunxi/sun7i/libnand-sun7i(nftl_uboot_interface.o)
                0x4a046b14                nftl_add
                0x4a046b8c                nftl_build_one
                0x4a046bec                nftl_build_all
                0x4a046c38                nand_ftl_exit
                0x4a046c68                print_all_nftl_blk
                0x4a046c9c                get_nftl_num
                0x4a046cc0                get_nftl_cap
                0x4a046ce8                get_first_nftl_cap
                0x4a046cfc                nftl_read
                0x4a046d6c                nftl_write
                0x4a046ddc                nftl_flush_write_cache
 .text          0x4a046e14     0x10d0 nand_sunxi/sun7i/libnand-sun7i(nand_format.o)
                0x4a046e14                _CalculatePhyOpPar
                0x4a046ed8                ClearNandStruct
                0x4a046eec                _ReadCheckSpare
                0x4a0470dc                _WaitAllRbReady
                0x4a04719c                _ChangeNandOpSta
                0x4a047218                _VirtualPageRead
                0x4a0473ac                PHY_WaitAllRbReady
                0x4a0473c0                PHY_VirtualPageRead
                0x4a047460                PHY_VirtualPageWrite
                0x4a047708                PHY_VirtualBlockErase
                0x4a047804                PHY_VirtualBadBlockCheck
                0x4a047b48                PHY_VirtualBadBlockMark
                0x4a047d98                FMT_Init
                0x4a047ebc                FMT_Exit
 .text          0x4a047ee4     0x4ef4 nand_sunxi/sun7i/libnand-sun7i(nand_phy.o)
                0x4a047ee4                _cal_block_in_chip
                0x4a047f70                _read_single_page_seq
                0x4a048168                _read_single_page_1K
                0x4a048348                _read_single_page_spare
                0x4a048c8c                _read_single_page_spare_first
                0x4a048e38                _read_single_page_spare_wait
                0x4a048f98                PHY_SimpleRead_Seq
                0x4a048fac                PHY_SimpleRead_1K
                0x4a048fc0                PHY_SimpleRead_1KCurCH
                0x4a048fc8                PHY_BlockErase
                0x4a0491b0                _read_sectors
                0x4a049924                _read_sectors_first_new
                0x4a049f4c                _read_sectors_first
                0x4a04a6c0                _read_sectors_wait
                0x4a04a6c8                _two_plane_read
                0x4a04a918                send_flag
                0x4a04a948                PHY_PageRead
                0x4a04af04                _cal_addr_in_chip_for_spare
                0x4a04afc8                _read_sectors_for_spare
                0x4a04badc                PHY_PageReadSpare
                0x4a04bfb8                PHY_FreePageCheck
                0x4a04c08c                PHY_PageWrite
                0x4a04c398                _single_copy_back
                0x4a04c560                _multi_copy_back
                0x4a04c8e4                PHY_PageCopyback
                0x4a04c9dc                PHY_ScanDDRParam
                0x4a04cbf8                PHY_ReadNandUniqueId
 .text          0x4a04cdd8      0x918 nand_sunxi/sun7i/libnand-sun7i(nand_physic_interface.o)
                0x4a04cdd8                NandHwInit
                0x4a04cf24                NandHwExit
                0x4a04cf38                NandHwNormalStandby
                0x4a04cf48                NandHwNormalResume
                0x4a04cf58                NandHwSuperStandby
                0x4a04d094                NandHwSuperResume
                0x4a04d270                NandHwShutDown
                0x4a04d314                NandHw_DbgInfo
 .text          0x4a04d6f0     0x1384 nand_sunxi/sun7i/libnand-sun7i(nand_scan.o)
                0x4a04d6f0                NAND_GetPageSize
                0x4a04d704                NAND_GetLogicPageSize
                0x4a04d728                NAND_GetPageCntPerBlk
                0x4a04d738                NAND_GetBlkCntPerChip
                0x4a04d750                NAND_GetChipCnt
                0x4a04d760                NAND_GetChipConnect
                0x4a04d770                NAND_GetBadBlockFlagPos
                0x4a04d778                NAND_GetReadRetryType
                0x4a04d788                NAND_GetValidBlkRatio
                0x4a04d798                NAND_SetValidBlkRatio
                0x4a04d7b0                NAND_GetFrequencePar
                0x4a04d7c0                NAND_SetFrequencePar
                0x4a04d7d8                NAND_GetBlkCntOfDie
                0x4a04d7e8                NAND_GetDieSkipFlag
                0x4a04d7fc                NAND_GetChannelCnt
                0x4a04d80c                NAND_GetCurrentCH
                0x4a04d81c                NAND_SetCurrentCH
                0x4a04d82c                NAND_GetNandVersion
                0x4a04d838                NAND_GetVersion
                0x4a04d84c                NAND_GetNandVersionDate
                0x4a04d858                NAND_GetParam
                0x4a04d91c                NAND_GetFlashInfo
                0x4a04d960                _GetOldPhysicArch
                0x4a04db14                _SetNewPhysicArch
                0x4a04dd40                _UpdateExtMultiPlanePara
                0x4a04deac                _UpdateExtAccessFreqPara
                0x4a04df90                NAND_UpdatePhyArch
                0x4a04e024                NAND_ReadPhyArch
                0x4a04e0b8                _SearchNandArchi
                0x4a04e2b4                SCN_AnalyzeNandSystem
 .text          0x4a04ea74     0x268c nand_sunxi/sun7i/libnand-sun7i(nand_simple_r.o)
                0x4a04eae4                _add_cmd_list
                0x4a04eb1c                _cal_addr_in_chip
                0x4a04ebdc                _cal_real_chip
                0x4a04ece4                _cal_real_rb
                0x4a04ed60                _read_status
                0x4a04ede8                _wait_rb_ready
                0x4a04ee34                _wait_rb_ready_int
                0x4a04ee98                _pending_dma_irq_sem
                0x4a04ee9c                _random_seed_init
                0x4a04eea0                _cal_random_seed
                0x4a04eeb8                _read_single_page_first
                0x4a04f070                _read_first_several_continuous_sects_first
                0x4a04f214                PHY_Init
                0x4a04f2e0                PHY_SetDefaultParam
                0x4a04f3b4                PHY_Readretry_reset
                0x4a04f434                PHY_ChangeMode
                0x4a04f5e8                PHY_Exit
                0x4a04f740                PHY_ResetChip
                0x4a04f870                PHY_ResetChip_CurCH
                0x4a04f91c                _read_first_several_continuous_sects
                0x4a04feb4                _read_first_several_continuous_sects_wait
                0x4a04ff4c                _read_single_page
                0x4a05068c                _read_single_page_wait
                0x4a05071c                PHY_ReadNandId
                0x4a0508b0                PHY_CheckWp
                0x4a05097c                _pending_rb_irq_sem
                0x4a050980                _do_irq
                0x4a050984                PHY_SimpleRead
                0x4a050998                PHY_SimpleRead_CurCH
                0x4a0509a0                PHY_GetDefaultParam
                0x4a050dcc                PHY_SimpleRead_2CH
                0x4a050e88                PHY_SynchBank
 .text          0x4a051100      0xb94 nand_sunxi/sun7i/libnand-sun7i(nand_simple_w.o)
                0x4a051100                _write_single_page
                0x4a0512a8                _write_single_page_first
                0x4a051400                _write_single_page_wait
                0x4a051478                _write_single_page_seq
                0x4a05161c                _write_single_page_1K
                0x4a051788                _erase_single_block
                0x4a05184c                PHY_SimpleWrite
                0x4a0518d8                PHY_SimpleWrite_CurCH
                0x4a051958                PHY_SimpleWrite_Seq
                0x4a0519e4                PHY_SimpleWrite_1K
                0x4a051a70                PHY_SimpleWrite_1KCurCH
                0x4a051af0                PHY_SimpleErase
                0x4a051b68                PHY_SimpleErase_CurCH
                0x4a051bd0                PHY_SimpleErase_2CH
 .text          0x4a051c94     0x351c nand_sunxi/sun7i/libnand-sun7i(nfc_r.o)
                0x4a051d04                NFC_InitDDRParam
                0x4a051d18                nfc_repeat_mode_enable
                0x4a051d44                nfc_repeat_mode_disable
                0x4a051d70                _wait_cmdfifo_free
                0x4a051e2c                _wait_cmd_finish
                0x4a051f00                _dma_config_start
                0x4a051f04                _wait_dma_end
                0x4a052018                _reset
                0x4a05208c                _check_ecc
                0x4a05216c                _disable_ecc
                0x4a052190                _enable_ecc
                0x4a0521cc                _enter_nand_critical
                0x4a0521d4                _exit_nand_critical
                0x4a0521dc                _set_addr
                0x4a052248                _read_in_page_mode
                0x4a052420                _read_in_page_mode_first
                0x4a052554                _read_in_page_mode_wait
                0x4a05260c                _cal_first_valid_bit
                0x4a05262c                _cal_valid_bits
                0x4a052650                _check_continuous_bits
                0x4a05269c                _check_secbitmap_bit
                0x4a0526e0                _read_secs_in_page_mode
                0x4a052d54                _read_first_several_continous_sects_in_page_mode
                0x4a052f24                _read_first_several_continous_sects_in_page_mode_first
                0x4a053074                _read_first_several_continous_sects_in_page_mode_wait
                0x4a053148                NFC_Read
                0x4a053174                NFC_Read_First
                0x4a053178                NFC_Read_Wait
                0x4a0531a4                NFC_Read_First_Several_Continuous_Sects
                0x4a0531d8                NFC_Read_First_Several_Continuous_Sects_First
                0x4a0531e4                NFC_Read_First_Several_Continuous_Sects_Wait
                0x4a053218                NFC_ReadSecs
                0x4a053278                nfc_set_cmd_register
                0x4a053334                NFC_SetRandomSeed
                0x4a053360                NFC_RandomEnable
                0x4a053388                NFC_RandomDisable
                0x4a0533b0                NFC_GetId
                0x4a05341c                NFC_NormalCMD
                0x4a053454                NFC_GetStatus
                0x4a0534a4                NFC_ResetChip
                0x4a0534c8                NFC_SelectChip
                0x4a053510                NFC_SelectRb
                0x4a053540                NFC_DeSelectChip
                0x4a053548                NFC_DeSelectRb
                0x4a053550                NFC_CheckRbReady
                0x4a053580                NFC_ChangMode
                0x4a0536a8                NFC_SetEccMode
                0x4a0536d8                NFC_Init
                0x4a0537c4                NFC_Exit
                0x4a0537fc                _vender_get_param
                0x4a0538b8                _vender_set_param
                0x4a053d04                _vender_pre_condition
                0x4a053de4                _vender_get_param_otp_hynix
                0x4a054164                NFC_ReadRetry
                0x4a054604                NFC_ReadRetryInit
                0x4a054a38                NFC_GetOTPValue
                0x4a054a7c                NFC_GetDefaultParam
                0x4a054bd0                NFC_SetDefaultParam
                0x4a054f24                NFC_ReadRetry_off
                0x4a054fac                NFC_ReadRetry_0x32_UpperPage
                0x4a054fe4                NFC_ReadRetryExit
                0x4a054fec                NFC_RbIntEnable
                0x4a05500c                NFC_RbIntDisable
                0x4a055030                NFC_RbIntClearStatus
                0x4a055050                NFC_RbIntGetStatus
                0x4a055070                NFC_RbIntOccur
                0x4a055098                NFC_GetRbSelect
                0x4a0550b8                NFC_GetRbStatus
                0x4a055104                NFC_DmaIntEnable
                0x4a055124                NFC_DmaIntDisable
                0x4a055148                NFC_DmaIntClearStatus
                0x4a055168                NFC_DmaIntGetStatus
                0x4a055188                NFC_DmaIntOccur
 .text          0x4a0551b0     0x1344 nand_sunxi/sun7i/libnand-sun7i(nfc_w.o)
                0x4a0551b0                _wait_twb
                0x4a0551b4                NFC_GetUniqueId
                0x4a05522c                NFC_Write
                0x4a0553c8                NFC_Write_First
                0x4a055520                NFC_Write_Wait
                0x4a055588                NFC_Write_Seq
                0x4a05576c                NFC_Write_1K
                0x4a055948                NFC_Erase
                0x4a055980                NFC_CopyBackRead
                0x4a0559b8                NFC_CopyBackWrite
                0x4a0559f0                _read_in_page_mode_seq
                0x4a055bd4                _read_in_page_mode_1K
                0x4a055da4                _read_in_page_mode_spare
                0x4a055f30                _read_in_page_mode_spare_first
                0x4a056058                _read_in_page_mode_spare_wait
                0x4a0560dc                NFC_Read_Seq
                0x4a05613c                NFC_Read_1K
                0x4a05619c                NFC_Read_Spare
                0x4a0561fc                NFC_Read_Spare_First
                0x4a05622c                NFC_Read_Spare_Wait
                0x4a056268                _read_in_page_mode_sectors
                0x4a056270                NFC_LSBInit
                0x4a056388                LSB_GetDefaultParam
                0x4a0563d0                LSB_SetDefaultParam
                0x4a0563e8                NFC_LSBEnable
                0x4a056444                NFC_LSBDisable
                0x4a056460                NFC_LSBExit
 .text          0x4a0564f4      0x300 nand_sunxi/sun7i/libnand-sun7i(build_nand_partition.o)
                0x4a0564f4                change_block_addr
                0x4a05653c                nand_mark_bad_blk
                0x4a0565a4                nand_is_blk_good
                0x4a0565f8                nand_write_page
                0x4a056660                nand_read_page
                0x4a0566b0                nand_erase_superblk
                0x4a0566dc                build_nand_partition
                0x4a0567d8                free_nand_partition
 .text          0x4a0567f4      0x864 nand_sunxi/sun7i/libnand-sun7i(build_phy_partition.o)
                0x4a0567f4                BlockErase
                0x4a056820                bitmap_change
                0x4a056860                PageWrite
                0x4a0568bc                PageRead
                0x4a056918                WaitAllRb
                0x4a05692c                BlockCheck
                0x4a056958                is_factory_bad_block
                0x4a0569b0                is_new_bad_block
                0x4a056a08                add_new_bad_block
                0x4a056a64                put_factory_bad_block
                0x4a056af8                free_phy_partition
                0x4a056b20                print_phy_partition
                0x4a056bec                print_all_bad_block
                0x4a056c84                build_phy_partition
                0x4a057020                get_next_phy_partition
                0x4a057028                get_disk_from_phy_partition
                0x4a057030                get_partitionNO
                0x4a057038                get_phy_partition_num
 .text          0x4a057058      0xe90 nand_sunxi/sun7i/libnand-sun7i(nand_info_init.o)
                0x4a057058                test_mbr
                0x4a0570d4                write_mbr
                0x4a057188                write_factory_block_table
                0x4a0572a0                print_factory_block_table
                0x4a0572e4                write_new_block_table
                0x4a0573d4                write_no_use_block
                0x4a05747c                read_new_bad_block_table
                0x4a0575c4                print_nand_info
                0x4a0576e4                calc_crc32
                0x4a05778c                build_all_phy_partition
                0x4a057a94                nand_info_init
                0x4a057ed4                get_head_phy_partition_from_nand_info
                0x4a057edc                set_cache_level
 .text          0x4a057ee8      0x2dc nand_sunxi/sun7i/libnand-sun7i(nftl_init.o)
                0x4a057ee8                _shutdown_op
                0x4a057ef0                _nand_flush_sector_write_cache
                0x4a057efc                _nand_sector_write
                0x4a057f04                _nand_sector_read
                0x4a057f0c                _nand_flush_write_cache
                0x4a057f14                _nand_write
                0x4a057f1c                _nand_read
                0x4a057f24                nftl_malloc
                0x4a057f50                nftl_free
                0x4a057f58                add_nftl_blk_list
                0x4a057f7c                del_last_nftl_blk
                0x4a057fa8                nftl_initialize
                0x4a05819c                nftl_exit
 .text          0x4a0581c4        0x0 nand_sunxi/sun7i/libnand-sun7i(nand_id.o)
 .text          0x4a0581c4      0xbbc nand_sunxi/sun7i/libnand-sun7i(nftl_cache.o)
                0x4a0581c4                nftl_cache_init
                0x4a0582dc                nftl_cache_exit
                0x4a058318                search_from_cache_read_list
                0x4a058340                search_from_cache_write_list
                0x4a058368                get_empty_cahce_node
                0x4a0583ac                add_to_cache_read_list_tail
                0x4a0583ec                add_to_cache_write_list_tail
                0x4a058430                del_from_cache_read_list
                0x4a058474                nand_cache_read
                0x4a058684                del_from_cache_write_list
                0x4a0586c8                nand_op
                0x4a0587d4                __nand_write
                0x4a058830                __nand_read
                0x4a05888c                flush_write_cache_to_nand
                0x4a058970                nand_cache_write
                0x4a058ce8                __nand_flush_write_cache
                0x4a058d78                __shutdown_op
 .text          0x4a058d80      0x418 nand_sunxi/sun7i/libnand-sun7i(nftl_sector_cache.o)
                0x4a058d80                nftl_sector_cache_init
                0x4a058e28                nftl_sector_cache_exit
                0x4a058e44                search_from_sector_cache_write_list
                0x4a058e6c                get_empty_sector_cahce_node
                0x4a058eac                add_to_sector_cache_write_list_tail
                0x4a058ef0                del_from_sector_cache_write_list
                0x4a058f34                nand_sector_cache_read
                0x4a058fa0                __nand_sector_read
                0x4a058fec                nand_sector_cache_write
                0x4a0590d4                __nand_sector_write
                0x4a059120                __nand_flush_sector_write_cache
 .text          0x4a059198      0x2d0 nand_sunxi/sun7i/libnand-sun7i(nftl_start.o)
                0x4a059198                nftl_start
                0x4a059434                nftl_zone_release
 .text          0x4a059468       0x68 nand_sunxi/sun7i/libnand-sun7i(nftl_interface.o)
                0x4a059468                nftl_get_zone_cap
                0x4a059470                nftl_set_zone_test
                0x4a05949c                nftl_get_zone_priv
                0x4a0594a4                nftl_add_zone_total_read
                0x4a0594b4                nftl_add_zone_total_write
                0x4a0594c4                nftl_get_zone_write_cache_nums
 .text          0x4a0594d0      0xcd8 nand_sunxi/sun7i/libnand-sun7i(nftl_logic.o)
                0x4a0594d0                _nftl_nand_read_logic_page
                0x4a0595d0                do_write_error
                0x4a0597bc                write_phy_data_to_current_block
                0x4a059914                write_logic_data_to_current_block
                0x4a059a10                write_data_to_page
                0x4a059a84                get_new_current_block
                0x4a059b20                new_block_init_for_write
                0x4a059bd4                do_before_write
                0x4a059cd8                check_invalid_page_right
                0x4a059d7c                write_phy_page_map_to_current_block
                0x4a059e14                nftl_ops_init
                0x4a059e98                current_block_at_last_page
                0x4a059eb8                do_after_write
                0x4a059f80                nand_write_logic_page_no_gc
                0x4a05a030                _nftl_nand_write_logic_page
                0x4a05a084                current_block_at_first_page
                0x4a05a094                fill_no_use_data_to_page
 .text          0x4a05a1a8      0xc78 nand_sunxi/sun7i/libnand-sun7i(nftl_gc.o)
                0x4a05a1a8                garbage_collect_first
                0x4a05a4c0                garbage_collect
                0x4a05a5ec                get_empty_gc_node
                0x4a05a624                search_gc_node
                0x4a05a648                add_to_gc_list_tail
                0x4a05a680                del_from_gc_list
                0x4a05a6bc                add_prio_gc
                0x4a05a708                do_prio_gc
                0x4a05a8b0                prio_gc_all
                0x4a05a8dc                check_static_wear_leveling
                0x4a05a9ec                done_static_wear_leveling
                0x4a05aaf4                do_static_wear_leveling
                0x4a05ab30                prio_gc_one
                0x4a05ab6c                gc_one
                0x4a05abc4                gc_all
                0x4a05abfc                check_block_phy_mapping
 .text          0x4a05ae20      0x5c4 nand_sunxi/sun7i/libnand-sun7i(nftl_common.o)
                0x4a05ae20                set_spare_data
                0x4a05ae54                get_spare_data
                0x4a05ae80                set_oob_logic_page
                0x4a05aee4                set_oob_special_page
                0x4a05af3c                set_no_use_page
                0x4a05af78                set_start_block_flag
                0x4a05afcc                set_end_block_flag
                0x4a05b008                get_bad_flag_from_oob
                0x4a05b024                get_block_used_count_from_oob
                0x4a05b030                get_logic_page_from_oob
                0x4a05b048                get_special_data_from_oob
                0x4a05b054                _nftl_nand_copy_page
                0x4a05b104                get_erase_count_from_oob
                0x4a05b11c                is_ftl_start_flag_page
                0x4a05b144                is_ftl_end_flag_page
                0x4a05b16c                is_ftl_special_data
                0x4a05b180                is_ftl_logic_page_data
                0x4a05b198                is_nouse_page
                0x4a05b1dc                is_fill_page
                0x4a05b1fc                is_phy_mapping_page
                0x4a05b21c                get_logic_page_map
                0x4a05b238                malloc_logic_page_map
                0x4a05b310                free_logic_page_map
                0x4a05b340                check_logic_page_map
                0x4a05b3c4                set_physic_op_par
 .text          0x4a05b3e4     0x27a8 nand_sunxi/sun7i/libnand-sun7i(nftl_build.o)
                0x4a05b3e4                zone_param_init
                0x4a05b618                zone_param_exit
                0x4a05b64c                init_zone_after_first_scan
                0x4a05b758                recover_phy_page_mapping
                0x4a05b870                recover_logic_page_mapping
                0x4a05b988                do_write_error_in_build_list
                0x4a05bab4                mark_free_block
                0x4a05bb40                erase_block
                0x4a05bc24                first_scan_all_blocks
                0x4a05be84                is_last_phy_block
                0x4a05bea4                build_zone_list_first
                0x4a05c1a8                get_vaild_blocks
                0x4a05c230                is_no_use_device
                0x4a05c36c                is_phy_block_valid
                0x4a05c388                get_phy_block_addr
                0x4a05c39c                get_used_page_num
                0x4a05c500                cross_talk_rebuild_current_block
                0x4a05c9f8                get_used_block_count
                0x4a05ca50                current_block_ecc_error
                0x4a05cc08                get_current_used_block
                0x4a05cf28                second_scan_all_blocks
                0x4a05d41c                block_last_page_ecc_error
                0x4a05d6d8                print_nftl_zone
                0x4a05db14                build_zone_list
 .text          0x4a05db8c      0x1d0 nand_sunxi/sun7i/libnand-sun7i(nftl_hw_interface.o)
                0x4a05db8c                _nftl_nand_erase_superblk
                0x4a05dbf4                _nftl_nand_read_page
                0x4a05dc5c                _nftl_nand_write_page
                0x4a05dcc4                _nftl_nand_is_blk_good
                0x4a05dd10                _nftl_nand_mark_bad_blk
 .text          0x4a05dd5c      0x658 nand_sunxi/sun7i/libnand-sun7i(nftl_list.o)
                0x4a05dd5c                add_free_list
                0x4a05dda4                del_free_list
                0x4a05ddd8                del_free_list_by_block
                0x4a05de20                is_block_in_free_list
                0x4a05de48                print_free_list
                0x4a05dea8                add_block_invalid_list
                0x4a05def0                del_block_invalid_list
                0x4a05df1c                del_block_invalid_list_by_block
                0x4a05df64                is_block_in_invalid_list
                0x4a05df8c                print_block_invalid_list
                0x4a05dff0                add_block_count_list
                0x4a05e038                del_block_count_list
                0x4a05e054                del_block_count_by_block
                0x4a05e09c                print_block_count_list
                0x4a05e0e8                put_phy_block_to_free_list
                0x4a05e128                out_phy_block_from_free_list
                0x4a05e15c                get_max_erase_time_from_free_list
                0x4a05e1a0                out_phy_block_from_free_list_by_block
                0x4a05e1d4                out_phy_block_from_free_list_by_erase_time
                0x4a05e228                put_phy_block_to_invalid_page_list
                0x4a05e258                out_phy_block_from_invalid_page_list
                0x4a05e274                out_phy_block_from_invalid_page_list_by_block
                0x4a05e290                phy_block_from_invalid_page_incr
                0x4a05e36c                adjust_invaild_list
 .text          0x4a05e3b4      0x430 nand_sunxi/sun7i/osal/libnand_osal.o
                0x4a05e3b4                NAND_Print
                0x4a05e3c4                NAND_CleanFlushDCacheRegion
                0x4a05e3d4                NAND_DMASingleMap
                0x4a05e3dc                NAND_DMASingleUnmap
                0x4a05e3e4                NAND_WaitDmaFinish
                0x4a05e3ec                NAND_RequestDMA
                0x4a05e424                NAND_DMAConfigStart
                0x4a05e570                NAND_ClkRequest
                0x4a05e578                NAND_ClkRelease
                0x4a05e57c                NAND_AHBEnable
                0x4a05e598                NAND_ClkEnable
                0x4a05e5b4                _GetCmuClk
                0x4a05e5e0                NAND_SetClk
                0x4a05e63c                NAND_GetClk
                0x4a05e664                NAND_PIORequest
                0x4a05e690                NAND_PIORelease
                0x4a05e694                NAND_Memset
                0x4a05e698                NAND_Memcpy
                0x4a05e69c                NAND_Malloc
                0x4a05e6a0                NAND_Free
                0x4a05e6a4                OSAL_IrqUnLock
                0x4a05e6a8                OSAL_IrqLock
                0x4a05e6ac                NAND_WaitRbReady
                0x4a05e6b4                NAND_IORemap
                0x4a05e6b8                NAND_VA_TO_PA
                0x4a05e6bc                NAND_GetIOBaseAddrCH0
                0x4a05e6c8                NAND_GetIOBaseAddrCH1
                0x4a05e6d4                NAND_PhysicLockInit
                0x4a05e6dc                NAND_PhysicLock
                0x4a05e6e4                NAND_PhysicUnLock
                0x4a05e6ec                NAND_PhysicLockExit
                0x4a05e6f4                NAND_GetPlatform
                0x4a05e6fc                NAND_GetNandExtPara
                0x4a05e78c                NAND_GetNandIDNumCtrl
 .text          0x4a05e7e4     0x3f94 sprite/libsprite.o
                0x4a05e7e4                initqueue
                0x4a05e894                destroyqueue
                0x4a05e8c4                resetqueue
                0x4a05e918                enqueue
                0x4a05e91c                outqueue
                0x4a05e920                isqueueempty
                0x4a05e938                isqueuefull
                0x4a05e960                inqueue_query
                0x4a05e988                inqueue_ex
                0x4a05e9b4                outqueue_query
                0x4a05e9cc                outqueue_ex
                0x4a05ea00                sunxi_queue_init
                0x4a05ea48                sunxi_queue_destroy
                0x4a05ea58                sunxi_queue_reset
                0x4a05ea68                sunxi_queue_isempty
                0x4a05ea78                sunxi_queue_isfull
                0x4a05ea88                sunxi_inqueue_query
                0x4a05ea9c                sunxi_queue_in
                0x4a05eaac                sunxi_outqueue_query
                0x4a05eac8                sunxi_queue_out
                0x4a05f078                sprite_card_firmware_start
                0x4a05f080                sprite_card_firmware_probe
                0x4a05f0a4                sprite_card_fetch_download_map
                0x4a05f128                sprite_card_fetch_mbr
                0x4a05f1ac                sunxi_sprite_deal_part
                0x4a05f724                sunxi_sprite_deal_uboot
                0x4a05f7f8                sunxi_sprite_deal_boot0
                0x4a05f8c4                card_download_uboot
                0x4a05f8e8                card_download_boot0
                0x4a05f90c                card_download_standard_mbr
                0x4a05fadc                card_erase
                0x4a05fba8                sunxi_sprite_deal_part_from_sysrevoery
                0x4a05fd24                __imagehd
                0x4a05fd40                get_code_key
                0x4a05fd84                init_code
                0x4a05fdf4                encode
                0x4a05fe0c                decode
                0x4a05fe38                exit_code
                0x4a05fe40                TFInitial
                0x4a05feb8                TFDecode
                0x4a05ff08                TFUnInitial
                0x4a05ff30                qp
                0x4a05ffa8                gen_qtab
                0x4a05ffec                gen_mtab
                0x4a0600bc                h_fun
                0x4a06021c                gen_mk_tab
                0x4a060590                mds_rem
                0x4a0605e8                twofish_new_set_key
                0x4a060714                twofish_new_decrypt
                0x4a060900                unsparse_probe
                0x4a06098c                unsparse_direct_write
                0x4a060c28                unsparse_checksum
                0x4a060c38                sunxi_sprite_download_mbr
                0x4a060cec                sunxi_sprite_download_uboot
                0x4a060de8                sunxi_sprite_download_boot0
                0x4a060ef4                add_sum
                0x4a060f64                sunxi_sprite_part_rawdata_verify
                0x4a061060                sunxi_sprite_part_sparsedata_verify
                0x4a061064                sunxi_sprite_generate_checksum
                0x4a0610e8                sunxi_sprite_verify_checksum
                0x4a061178                sunxi_sprite_verify_mbr
                0x4a061308                sunxi_sprite_verify_dlmap
                0x4a061348                Img_Open
                0x4a061450                Img_GetSize
                0x4a06148c                Img_OpenItem
                0x4a061550                Img_GetItemSize
                0x4a061594                Img_GetItemStart
                0x4a061610                Img_ReadItem
                0x4a0616ec                Img_CloseItem
                0x4a061718                Img_Close
                0x4a061774                sunxi_sprite_store_part_data
                0x4a061928                sunxi_sprite_restore_part_data
                0x4a061a98                sunxi_sprite_probe_prvt
                0x4a061b04                sunxi_card_sprite_main
                0x4a061f8c                sunxi_sprite_erase_flash
                0x4a0621c8                Img_Open_from_sysrecovery
                0x4a0622cc                card_part_info
                0x4a0623d4                sprite_form_sysrecovery
                0x4a0625e8                sprite_led_init
                0x4a0626e8                sprite_led_exit
 .text          0x4a062778     0x465c usb_sunxi/libsunxi_usb.o
                0x4a065ee4                sunxi_usb_dev_register
                0x4a06617c                sunxi_usb_irq
                0x4a0667a0                sunxi_usb_init
                0x4a066b04                sunxi_usb_exit
                0x4a066b84                sunxi_udc_ep_reset
                0x4a066b88                sunxi_udc_start_recv_by_dma
                0x4a066c08                sunxi_udc_send_setup
                0x4a066c50                sunxi_udc_set_configuration
                0x4a066c58                sunxi_udc_set_address
                0x4a066ca0                sunxi_udc_send_data
                0x4a066d38                sunxi_udc_get_ep_max
                0x4a066d48                sunxi_udc_get_ep_in_type
                0x4a066d50                sunxi_udc_get_ep_out_type
                0x4a066d58                sunxi_usb_main_loop
 .text          0x4a066dd4      0x360 board/sunxi/sun7i/libsun7i.o
                0x4a066dd4                board_init
                0x4a066df8                dram_init_banksize
                0x4a066e60                dram_init
                0x4a0670fc                board_mmc_init
                0x4a067110                board_mmc_pre_init
                0x4a067124                board_mmc_get_num
                0x4a06712c                board_mmc_set_num
 .text          0x4a067134     0x5de8 board/sunxi/libsunxi.o
                0x4a0672f8                sunxi_board_close_source
                0x4a067324                sunxi_board_restart
                0x4a06736c                sunxi_board_shutdown
                0x4a0673d4                sunxi_board_run_fel
                0x4a067444                sunxi_board_run_fel_eraly
                0x4a067498                sunxi_update_subsequent_processing
                0x4a067518                fastboot_partition_init
                0x4a0676f0                check_android_misc
                0x4a067b1c                board_late_init
                0x4a067b30                check_uart_input
                0x4a067bd4                check_update_key
                0x4a067e08                gpio_control
                0x4a067e78                check_boot_recovery_key
                0x4a067f08                battery_charge_cartoon_init
                0x4a0680a0                battery_charge_cartoon_exit
                0x4a0680f0                battery_charge_cartoon_rate
                0x4a068154                battery_charge_cartoon_reset
                0x4a068180                battery_charge_cartoon_degrade
                0x4a0681c0                board_display_layer_request
                0x4a068214                board_display_layer_release
                0x4a06825c                board_display_wait_lcd_open
                0x4a0682c0                board_display_wait_lcd_close
                0x4a068324                board_display_set_exit_mode
                0x4a068380                board_display_layer_open
                0x4a0683b4                board_display_layer_close
                0x4a0683e8                board_display_layer_para_set
                0x4a068424                board_display_show_until_lcd_open
                0x4a068444                board_display_show
                0x4a068458                board_display_framebuffer_set
                0x4a068580                board_display_framebuffer_change
                0x4a068614                board_display_device_open
                0x4a0689cc                board_status_probe
                0x4a069010                power_limit_detect_enter
                0x4a069068                power_limit_detect_exit
                0x4a06908c                __usb_probe_vbus_type
                0x4a069094                power_limit_init
                0x4a06923c                usb_detect_enter
                0x4a06939c                usb_detect_exit
                0x4a0693d8                usb_detect_for_charge
                0x4a0693f4                sprite_cartoon_screen_set
                0x4a0694b4                sprite_cartoon_test
                0x4a06967c                sprite_cartoon_create
                0x4a069790                sprite_cartoon_upgrade
                0x4a0697c0                sprite_cartoon_destroy
                0x4a0697dc                sprite_cartoon_progressbar_create
                0x4a06988c                sprite_cartoon_progressbar_config
                0x4a0698d4                sprite_cartoon_progressbar_active
                0x4a069938                sprite_cartoon_progressbar_destroy
                0x4a06997c                sprite_cartoon_progressbar_upgrate
                0x4a069a38                sprite_cartoon_ui_draw_hollowrectangle
                0x4a069b0c                sprite_cartoon_ui_draw_solidrectangle
                0x4a069bb8                sprite_cartoon_ui_draw_line
                0x4a069e64                sprite_cartoon_ui_draw_lineto
                0x4a069e9c                sprite_cartoon_ui_draw_point
                0x4a069ecc                sprite_cartoon_ui_set_color
                0x4a069ee0                sprite_cartoon_ui_get_color
                0x4a069ef0                sprite_cartoon_ui_moveto
                0x4a069f08                sprite_cartoon_ui_clear
                0x4a069fa0                sprite_uichar_init
                0x4a06a0c4                sprite_uichar_printf
                0x4a06a240                open_font
                0x4a06a314                close_font
                0x4a06a35c                check_change_line
                0x4a06a3b4                draw_bmp_ulc
                0x4a06a480                draw_cursor
                0x4a06a628                SFTE_New_Face
                0x4a06a83c                SFTE_Done_Face
                0x4a06a87c                SFTE_Set_Pixel_Sizes
                0x4a06a9fc                SFTE_Get_Pixel_Sizes
                0x4a06aa34                SFTE_Get_Pixel_Size_List
                0x4a06aa9c                SFTE_Get_Pixel_Size_Count
                0x4a06aab4                SFTE_Get_Glyph
                0x4a06ac80                SFTE_Get_XAdvance
                0x4a06ad10                sunxi_partition_get_total_num
                0x4a06ad28                sunxi_partition_get_name
                0x4a06ad70                sunxi_partition_get_offset
                0x4a06ada0                sunxi_partition_get_size
                0x4a06add0                sunxi_partition_get_offset_byname
                0x4a06ae3c                sunxi_partition_get_size_byname
                0x4a06aea8                sunxi_partition_get_info_byname
                0x4a06af30                sunxi_partition_fetch_mbr
                0x4a06af4c                sunxi_partition_refresh
                0x4a06af94                sunxi_partition_init
                0x4a06b4a4                sw_cfg_get_int
                0x4a06b4d4                sw_cfg_get_str
                0x4a06b520                script_parser_init
                0x4a06b540                script_parser_exit
                0x4a06b550                script_parser_fetch_subkey_start
                0x4a06b600                script_parser_fetch_subkey_next
                0x4a06b698                script_parser_fetch
                0x4a06b8a8                script_parser_patch
                0x4a06babc                script_parser_subkey_count
                0x4a06bb60                script_parser_mainkey_count
                0x4a06bb74                script_parser_mainkey_get_gpio_count
                0x4a06bc58                script_parser_mainkey_get_gpio_cfg
                0x4a06bdac                sw_gpio_init
                0x4a06bdb4                gpio_exit
                0x4a06bdbc                gpio_request
                0x4a06c22c                gpio_request_ex
                0x4a06c2cc                gpio_request_simple
                0x4a06c378                gpio_release
                0x4a06c570                gpio_get_all_pin_status
                0x4a06c808                gpio_get_one_pin_status
                0x4a06c978                gpio_set_one_pin_status
                0x4a06cb1c                gpio_set_one_pin_io_status
                0x4a06cbe4                gpio_set_one_pin_pull
                0x4a06ccac                gpio_set_one_pin_driver_level
                0x4a06cd74                gpio_read_one_pin_value
                0x4a06ce3c                gpio_write_one_pin_value
 .text          0x4a06cf1c       0x20 /mnt/hdd1/ccfrom/A20_Tablet/A20_Tablet_repo_cut/lichee/brandy/u-boot-2011.09/arch/arm/lib/eabi_compat.o
                0x4a06cf1c                raise
                0x4a06cf38                __aeabi_unwind_cpp_pr0
 .text          0x4a06cf3c       0x18 /mnt/hdd1/ccfrom/A20_Tablet/A20_Tablet_repo_cut/lichee/brandy/gcc-linaro/bin/../lib/gcc/arm-linux-gnueabi/4.6.3/libgcc.a(_lshrdi3.o)
                0x4a06cf3c                __aeabi_llsr
                0x4a06cf3c                __lshrdi3
 .text          0x4a06cf54       0x1c /mnt/hdd1/ccfrom/A20_Tablet/A20_Tablet_repo_cut/lichee/brandy/gcc-linaro/bin/../lib/gcc/arm-linux-gnueabi/4.6.3/libgcc.a(_ashrdi3.o)
                0x4a06cf54                __ashrdi3
                0x4a06cf54                __aeabi_lasr
 .text          0x4a06cf70       0x18 /mnt/hdd1/ccfrom/A20_Tablet/A20_Tablet_repo_cut/lichee/brandy/gcc-linaro/bin/../lib/gcc/arm-linux-gnueabi/4.6.3/libgcc.a(_ashldi3.o)
                0x4a06cf70                __ashldi3
                0x4a06cf70                __aeabi_llsl
 .text          0x4a06cf88      0x370 /mnt/hdd1/ccfrom/A20_Tablet/A20_Tablet_repo_cut/lichee/brandy/gcc-linaro/bin/../lib/gcc/arm-linux-gnueabi/4.6.3/libgcc.a(_arm_addsubdf3.o)
                0x4a06cf88                __aeabi_drsub
                0x4a06cf90                __aeabi_dsub
                0x4a06cf90                __subdf3
                0x4a06cf94                __adddf3
                0x4a06cf94                __aeabi_dadd
                0x4a06d20c                __aeabi_ui2d
                0x4a06d20c                __floatunsidf
                0x4a06d22c                __floatsidf
                0x4a06d22c                __aeabi_i2d
                0x4a06d250                __extendsfdf2
                0x4a06d250                __aeabi_f2d
                0x4a06d28c                __aeabi_ul2d
                0x4a06d28c                __floatundidf
                0x4a06d29c                __floatdidf
                0x4a06d29c                __aeabi_l2d
 .text          0x4a06d2f8      0x424 /mnt/hdd1/ccfrom/A20_Tablet/A20_Tablet_repo_cut/lichee/brandy/gcc-linaro/bin/../lib/gcc/arm-linux-gnueabi/4.6.3/libgcc.a(_arm_muldivdf3.o)
                0x4a06d2f8                __aeabi_dmul
                0x4a06d2f8                __muldf3
                0x4a06d54c                __aeabi_ddiv
                0x4a06d54c                __divdf3
 .text          0x4a06d71c       0x50 /mnt/hdd1/ccfrom/A20_Tablet/A20_Tablet_repo_cut/lichee/brandy/gcc-linaro/bin/../lib/gcc/arm-linux-gnueabi/4.6.3/libgcc.a(_arm_fixdfsi.o)
                0x4a06d71c                __fixdfsi
                0x4a06d71c                __aeabi_d2iz
 .text          0x4a06d76c       0xa0 /mnt/hdd1/ccfrom/A20_Tablet/A20_Tablet_repo_cut/lichee/brandy/gcc-linaro/bin/../lib/gcc/arm-linux-gnueabi/4.6.3/libgcc.a(_arm_truncdfsf2.o)
                0x4a06d76c                __aeabi_d2f
                0x4a06d76c                __truncdfsf2
 .text          0x4a06d80c      0x21c /mnt/hdd1/ccfrom/A20_Tablet/A20_Tablet_repo_cut/lichee/brandy/gcc-linaro/bin/../lib/gcc/arm-linux-gnueabi/4.6.3/libgcc.a(_arm_addsubsf3.o)
                0x4a06d80c                __aeabi_frsub
                0x4a06d814                __subsf3
                0x4a06d814                __aeabi_fsub
                0x4a06d818                __aeabi_fadd
                0x4a06d818                __addsf3
                0x4a06d978                __aeabi_ui2f
                0x4a06d978                __floatunsisf
                0x4a06d980                __aeabi_i2f
                0x4a06d980                __floatsisf
                0x4a06d99c                __floatundisf
                0x4a06d99c                __aeabi_ul2f
                0x4a06d9ac                __floatdisf
                0x4a06d9ac                __aeabi_l2f
 .text          0x4a06da28      0x2a0 /mnt/hdd1/ccfrom/A20_Tablet/A20_Tablet_repo_cut/lichee/brandy/gcc-linaro/bin/../lib/gcc/arm-linux-gnueabi/4.6.3/libgcc.a(_arm_muldivsf3.o)
                0x4a06da28                __mulsf3
                0x4a06da28                __aeabi_fmul
                0x4a06db90                __divsf3
                0x4a06db90                __aeabi_fdiv
 .text          0x4a06dcc8       0x4c /mnt/hdd1/ccfrom/A20_Tablet/A20_Tablet_repo_cut/lichee/brandy/gcc-linaro/bin/../lib/gcc/arm-linux-gnueabi/4.6.3/libgcc.a(_arm_fixsfsi.o)
                0x4a06dcc8                __fixsfsi
                0x4a06dcc8                __aeabi_f2iz

.glue_7         0x4a06dd14        0x0
 .glue_7        0x00000000        0x0 linker stubs

.glue_7t        0x4a06dd14        0x0
 .glue_7t       0x00000000        0x0 linker stubs

.vfp11_veneer   0x4a06dd14        0x0
 .vfp11_veneer  0x00000000        0x0 linker stubs

.v4_bx          0x4a06dd14        0x0
 .v4_bx         0x00000000        0x0 linker stubs

.iplt           0x4a06dd14        0x0
 .iplt          0x00000000        0x0 arch/arm/cpu/armv7/sun7i/spare_head.o
                0x4a06dd20                . = ALIGN (0x10)

.rodata         0x4a06dd20    0x14c81
 *(EXCLUDE_FILE(board/sunxi/sun7i/standby/libstandby.o) .rodata*)
 .rodata        0x4a06dd20       0x16 arch/arm/cpu/armv7/libarmv7.o
 .rodata.str1.1
                0x4a06dd36       0x65 arch/arm/cpu/armv7/libarmv7.o
 *fill*         0x4a06dd9b        0x1 00
 .rodata        0x4a06dd9c      0xbf0 arch/arm/cpu/armv7/sun7i/libsun7i.o
 .rodata.str1.1
                0x4a06e98c      0x81e arch/arm/cpu/armv7/sun7i/libsun7i.o
                                0x821 (size before relaxing)
 *fill*         0x4a06f1aa        0x2 00
 .rodata        0x4a06f1ac       0x80 arch/arm/lib/libarm.o
 .rodata.str1.1
                0x4a06f22c      0x415 arch/arm/lib/libarm.o
                                0x42f (size before relaxing)
 *fill*         0x4a06f641        0x3 00
 .rodata        0x4a06f644      0x8e4 common/libcommon.o
                0x4a06f6cc                version_string
                0x4a06f739                default_environment
                0x4a06fc0e                sunxi_sprite_environment
 .rodata.str1.1
                0x4a06ff28     0x3a5f common/libcommon.o
                               0x3e25 (size before relaxing)
 *fill*         0x4a073987        0x1 00
 .rodata        0x4a073988       0x20 disk/libdisk.o
 .rodata.str1.1
                0x4a0739a8      0x2ba disk/libdisk.o
                                0x2ec (size before relaxing)
 .rodata.str1.1
                0x4a073c62       0x71 drivers/dma/libdma.o
 .rodata.str1.1
                0x4a073cd3        0xa drivers/i2c/libi2c.o
 *fill*         0x4a073cdd        0x3 00
 .rodata        0x4a073ce0       0x50 drivers/mmc/libmmc.o
 .rodata.str1.1
                0x4a073d30      0xaaf drivers/mmc/libmmc.o
                                0xaca (size before relaxing)
 .rodata.str1.1
                0x4a0747df      0x51c drivers/power/libpower.o
                                0x559 (size before relaxing)
 *fill*         0x4a074cfb        0x1 00
 .rodata        0x4a074cfc       0x28 drivers/pwm/libsunxi_pwm.o
 .rodata.str1.1
                0x4a074d24       0x25 drivers/pwm/libsunxi_pwm.o
                                 0x2e (size before relaxing)
 *fill*         0x4a074d49        0x3 00
 .rodata        0x4a074d4c       0x10 drivers/serial/libserial.o
 .rodata.str1.1
                0x4a074d5c      0x13a drivers/storage_type/libstorage_type.o
                                0x141 (size before relaxing)
 *fill*         0x4a074e96        0x2 00
 .rodata        0x4a074e98      0x6b8 drivers/video_sun7i/libvideo_sunxi.o
 .rodata.str1.1
                0x4a075550     0x1291 drivers/video_sun7i/libvideo_sunxi.o
                               0x1416 (size before relaxing)
 .rodata        0x4a0767e1       0x1e fs/aw_fs/libawfat.o
 .rodata.str1.1
                0x4a0767ff       0xef fs/aw_fs/libawfat.o
 *fill*         0x4a0768ee        0x2 00
 .rodata        0x4a0768f0       0x18 fs/fat/libfat.o
 .rodata.str1.1
                0x4a076908      0x2b9 fs/fat/libfat.o
                                0x2f9 (size before relaxing)
 *fill*         0x4a076bc1        0x3 00
 .rodata        0x4a076bc4      0x827 lib/libgeneric.o
                0x4a076bc4                crc7_syndrome_table
                0x4a0772ca                _ctype
                0x4a0773da                hex_asc
 .rodata.str1.1
                0x4a0773eb      0x14d lib/libgeneric.o
                                0x15f (size before relaxing)
 .rodata        0x4a077538      0x9cc lib/zlib/libz.o
                0x4a077edc                z_errmsg
 .rodata.str1.1
                0x4a077f04      0x21c lib/zlib/libz.o
                                0x21d (size before relaxing)
 .rodata.str1.1
                0x4a078120      0x869 nand_sunxi/nand_interface/libnand_interface.o
                                0x884 (size before relaxing)
 .rodata.str1.1
                0x4a078989       0x94 nand_sunxi/sun7i/libnand-sun7i(nftl_uboot_interface.o)
 .rodata        0x4a078a1d       0xb2 nand_sunxi/sun7i/libnand-sun7i(nand_format.o)
 .rodata.str1.1
                0x4a078acf      0x5fa nand_sunxi/sun7i/libnand-sun7i(nand_format.o)
                                0x600 (size before relaxing)
 .rodata        0x4a0790c9       0x12 nand_sunxi/sun7i/libnand-sun7i(nand_phy.o)
 .rodata.str1.1
                0x4a0790db      0x810 nand_sunxi/sun7i/libnand-sun7i(nand_phy.o)
                                0x81e (size before relaxing)
 .rodata        0x4a0798eb       0x1a nand_sunxi/sun7i/libnand-sun7i(nand_physic_interface.o)
 .rodata.str1.1
                0x4a079905      0x3ac nand_sunxi/sun7i/libnand-sun7i(nand_physic_interface.o)
                                0x7d8 (size before relaxing)
 *fill*         0x4a079cb1        0x3 00
 .rodata        0x4a079cb4       0x38 nand_sunxi/sun7i/libnand-sun7i(nand_scan.o)
 .rodata.str1.1
                0x4a079cec      0xdc1 nand_sunxi/sun7i/libnand-sun7i(nand_scan.o)
                                0xdc8 (size before relaxing)
 *fill*         0x4a07aaad        0x1 00
 .rodata        0x4a07aaae      0x10a nand_sunxi/sun7i/libnand-sun7i(nand_simple_r.o)
                0x4a07aab8                random_seed
 .rodata.str1.1
                0x4a07abb8      0x6ab nand_sunxi/sun7i/libnand-sun7i(nand_simple_r.o)
                                0x754 (size before relaxing)
 *fill*         0x4a07b263        0x1 00
 .rodata        0x4a07b264      0x2f0 nand_sunxi/sun7i/libnand-sun7i(nfc_r.o)
                0x4a07b2ac                param0x30low
                0x4a07b2ec                param0x30high
                0x4a07b33c                param0x31
                0x4a07b372                param0x32
                0x4a07b40a                para0
                0x4a07b43a                para1
                0x4a07b46a                para0x10
                0x4a07b474                para0x11
                0x4a07b4ba                para0x20
                0x4a07b532                param0x40
                0x4a07b546                param0x50
 .rodata.str1.1
                0x4a07b554      0x3f4 nand_sunxi/sun7i/libnand-sun7i(nfc_r.o)
                                0x43f (size before relaxing)
 .rodata.str1.1
                0x4a07b948        0xe nand_sunxi/sun7i/libnand-sun7i(nfc_w.o)
 .rodata.str1.1
                0x4a07b956       0x18 nand_sunxi/sun7i/libnand-sun7i(build_nand_partition.o)
 .rodata.str1.1
                0x4a07b96e      0x315 nand_sunxi/sun7i/libnand-sun7i(build_phy_partition.o)
 .rodata.str1.1
                0x4a07bc83      0x7eb nand_sunxi/sun7i/libnand-sun7i(nand_info_init.o)
                                0x7f3 (size before relaxing)
 .rodata.str1.1
                0x4a07c46e       0x1f nand_sunxi/sun7i/libnand-sun7i(nftl_init.o)
                                 0x3c (size before relaxing)
 .rodata.str1.1
                0x4a07c48d      0x191 nand_sunxi/sun7i/libnand-sun7i(nftl_cache.o)
                                0x1ae (size before relaxing)
 .rodata.str1.1
                0x4a07c61e       0x5f nand_sunxi/sun7i/libnand-sun7i(nftl_sector_cache.o)
                                 0xa4 (size before relaxing)
 .rodata.str1.1
                0x4a07c67d       0x88 nand_sunxi/sun7i/libnand-sun7i(nftl_start.o)
                                 0xa5 (size before relaxing)
 .rodata.str1.1
                0x4a07c705      0x3a5 nand_sunxi/sun7i/libnand-sun7i(nftl_logic.o)
 .rodata.str1.1
                0x4a07caaa      0x547 nand_sunxi/sun7i/libnand-sun7i(nftl_gc.o)
 .rodata.str1.1
                0x4a07cff1       0x6d nand_sunxi/sun7i/libnand-sun7i(nftl_common.o)
 .rodata.str1.1
                0x4a07d05e     0x1520 nand_sunxi/sun7i/libnand-sun7i(nftl_build.o)
                               0x155d (size before relaxing)
 .rodata.str1.1
                0x4a07e57e      0x169 nand_sunxi/sun7i/libnand-sun7i(nftl_list.o)
 .rodata.str1.1
                0x4a07e6e7      0x10f nand_sunxi/sun7i/osal/libnand_osal.o
 .rodata.str1.1
                0x4a07e7f6     0x1bd6 sprite/libsprite.o
                               0x1e4a (size before relaxing)
 .rodata        0x4a0803cc       0x78 usb_sunxi/libsunxi_usb.o
                0x4a0803cc                RequestSense
                0x4a0803e0                InquiryData
                0x4a080408                pburn_RequestSense
                0x4a08041c                pburn_InquiryData
 .rodata.str1.1
                0x4a080444     0x1266 usb_sunxi/libsunxi_usb.o
                               0x16a3 (size before relaxing)
 .rodata.str1.1
                0x4a0816aa      0x111 board/sunxi/sun7i/libsun7i.o
 *fill*         0x4a0817bb        0x1 00
 .rodata        0x4a0817bc       0x47 board/sunxi/libsunxi.o
 .rodata.str1.1
                0x4a081803     0x1183 board/sunxi/libsunxi.o
                               0x12e7 (size before relaxing)
 .rodata.str1.1
                0x4a082986       0x1b /mnt/hdd1/ccfrom/A20_Tablet/A20_Tablet_repo_cut/lichee/brandy/u-boot-2011.09/arch/arm/lib/eabi_compat.o

.hash           0x4a0829a4       0x58
 .hash          0x4a0829a4       0x58 arch/arm/cpu/armv7/sun7i/spare_head.o

.rodata.str1.1  0x4a0829fc       0x47
 .rodata.str1.1
                0x4a0829fc       0x47 board/sunxi/sun7i/standby/libstandby.o
                0x4a082a50                . = ALIGN (0x10)

.data           0x4a082a50     0x459c
 *(EXCLUDE_FILE(board/sunxi/sun7i/standby/libstandby.o) .data)
 .data          0x4a082a50        0x0 arch/arm/cpu/armv7/start.o
 .data          0x4a082a50        0x0 arch/arm/cpu/armv7/libarmv7.o
 .data          0x4a082a50       0x1c arch/arm/cpu/armv7/sun7i/libsun7i.o
                0x4a082a50                timer_callback
 .data          0x4a082a6c       0x3c arch/arm/lib/libarm.o
                0x4a082a6c                init_sequence
 .data          0x4a082aa8      0x684 common/libcommon.o
                0x4a082c54                load_addr
                0x4a082c58                seed2
                0x4a082c5c                seed1
                0x4a082c60                IGNORE_ENV_VARIABLE
                0x4a083088                env_offset
                0x4a083090                env_size
                0x4a083094                env_name_spec
                0x4a083120                stdio_names
 .data          0x4a08312c        0x0 disk/libdisk.o
 .data          0x4a08312c      0x180 drivers/dma/libdma.o
                0x4a08312c                dma_channal
 .data          0x4a0832ac        0x0 drivers/i2c/libi2c.o
 .data          0x4a0832ac        0x8 drivers/mmc/libmmc.o
                0x4a0832ac                mmc_devices
 .data          0x4a0832b4        0x0 drivers/pcmcia/libpcmcia.o
 .data          0x4a0832b4       0x68 drivers/power/libpower.o
                0x4a0832b4                sunxi_axp_dev
                0x4a0832c4                sunxi_axp_20
 .data          0x4a08331c       0x10 drivers/pwm/libsunxi_pwm.o
                0x4a08331c                pwm_active_sta
 .data          0x4a08332c        0x0 drivers/rtc/librtc.o
 .data          0x4a08332c        0x0 drivers/serial/libserial.o
 .data          0x4a08332c       0x44 drivers/storage_type/libstorage_type.o
                0x4a08332c                sunxi_flash_read_pt
                0x4a083330                sunxi_flash_write_pt
                0x4a083334                sunxi_flash_size_pt
                0x4a083338                sunxi_flash_exit_pt
                0x4a08333c                sunxi_flash_flush_pt
                0x4a083340                sunxi_flash_phyread_pt
                0x4a083344                sunxi_flash_phywrite_pt
                0x4a083348                sunxi_sprite_init_pt
                0x4a08334c                sunxi_sprite_read_pt
                0x4a083350                sunxi_sprite_write_pt
                0x4a083354                sunxi_sprite_erase_pt
                0x4a083358                sunxi_sprite_size_pt
                0x4a08335c                sunxi_sprite_exit_pt
                0x4a083360                sunxi_sprite_flush_pt
                0x4a083364                sunxi_sprite_phyread_pt
                0x4a083368                sunxi_sprite_phywrite_pt
                0x4a08336c                sunxi_flash_init_pt
 .data          0x4a083370     0x1d38 drivers/video_sun7i/libvideo_sunxi.o
                0x4a083370                output_type
                0x4a083374                disp_clk_tbl
                0x4a0835e4                image_enhance_tab
                0x4a0839e4                csc_tab
                0x4a083ce4                tv_timing_tbl
                0x4a08411c                dsi_lane_den
                0x4a08412c                dsi_pixel_bits
                0x4a08413c                tcon_div
                0x4a084140                clk_tab
                0x4a0846b8                hsv_range_par
                0x4a08470c                hsv_adjust_vivid_par
                0x4a08474c                hsv_adjust_flesh_par
                0x4a08478c                hsv_adjust_scenery_par
                0x4a0847cc                spatial_coeff
                0x4a0847d5                intensity_coeff
                0x4a0848d5                hist_thres_pwrsv
                0x4a0848e0                PWRSAVE_PROC_THRES
                0x4a0848e4                drc_filter
                0x4a0848fc                hist_thres_drc
                0x4a0849c4                deu_lp_tab_s
                0x4a084a41                deu_lp_tab_l
                0x4a084abe                deu_str_tab
                0x4a084cc0                panel_array
                0x4a084cd8                default_panel
                0x4a084d08                edp_anx9804_panel
                0x4a084d38                edp_anx6345_panel
                0x4a084d68                b079xan01_panel
                0x4a084d98                lp079x01_panel
                0x4a084dc8                video_mode
                0x4a084dcc                video_timing
                0x4a0850a4                hdmi_clk
 .data          0x4a0850a8        0x0 fs/aw_fs/libawfat.o
 .data          0x4a0850a8      0x208 fs/fat/libfat.o
                0x4a0850ac                file_cwd
 .data          0x4a0852b0        0x0 lib/libgeneric.o
 .data          0x4a0852b0        0x0 lib/zlib/libz.o
 .data          0x4a0852b0        0x0 nand_sunxi/nand_interface/libnand_interface.o
 .data          0x4a0852b0        0x0 nand_sunxi/sun7i/libnand-sun7i(nftl_uboot_interface.o)
 .data          0x4a0852b0        0x0 nand_sunxi/sun7i/libnand-sun7i(nand_format.o)
 .data          0x4a0852b0        0x0 nand_sunxi/sun7i/libnand-sun7i(nand_phy.o)
 .data          0x4a0852b0        0x0 nand_sunxi/sun7i/libnand-sun7i(nand_physic_interface.o)
 .data          0x4a0852b0        0x4 nand_sunxi/sun7i/libnand-sun7i(nand_scan.o)
                0x4a0852b0                NandIDNumber
 .data          0x4a0852b4        0x0 nand_sunxi/sun7i/libnand-sun7i(nand_simple_r.o)
 .data          0x4a0852b4        0x0 nand_sunxi/sun7i/libnand-sun7i(nand_simple_w.o)
 .data          0x4a0852b4        0x0 nand_sunxi/sun7i/libnand-sun7i(nfc_r.o)
 .data          0x4a0852b4        0x0 nand_sunxi/sun7i/libnand-sun7i(nfc_w.o)
 .data          0x4a0852b4        0x0 nand_sunxi/sun7i/libnand-sun7i(build_nand_partition.o)
 .data          0x4a0852b4        0x0 nand_sunxi/sun7i/libnand-sun7i(build_phy_partition.o)
 .data          0x4a0852b4        0x0 nand_sunxi/sun7i/libnand-sun7i(nand_info_init.o)
 .data          0x4a0852b4        0x0 nand_sunxi/sun7i/libnand-sun7i(nftl_init.o)
 .data          0x4a0852b4     0x1afc nand_sunxi/sun7i/libnand-sun7i(nand_id.o)
                0x4a0852b4                DefaultNandTbl
                0x4a0852e0                SandiskNandTbl
                0x4a0853e8                PowerNandTbl
                0x4a085440                SpansionNandTbl
                0x4a0854f0                StNandTbl
                0x4a0856a8                IntelNandTbl
                0x4a085860                MicronNandTbl
                0x4a085c80                ToshibaNandTbl
                0x4a0860a0                HynixNandTbl
                0x4a0866d0                SamsungNandTbl
 .data          0x4a086db0        0x0 nand_sunxi/sun7i/libnand-sun7i(nftl_cache.o)
 .data          0x4a086db0        0x0 nand_sunxi/sun7i/libnand-sun7i(nftl_sector_cache.o)
 .data          0x4a086db0        0x0 nand_sunxi/sun7i/libnand-sun7i(nftl_start.o)
 .data          0x4a086db0        0x0 nand_sunxi/sun7i/libnand-sun7i(nftl_interface.o)
 .data          0x4a086db0        0x0 nand_sunxi/sun7i/libnand-sun7i(nftl_logic.o)
 .data          0x4a086db0        0x0 nand_sunxi/sun7i/libnand-sun7i(nftl_gc.o)
 .data          0x4a086db0        0x0 nand_sunxi/sun7i/libnand-sun7i(nftl_common.o)
 .data          0x4a086db0        0x0 nand_sunxi/sun7i/libnand-sun7i(nftl_build.o)
 .data          0x4a086db0        0x0 nand_sunxi/sun7i/libnand-sun7i(nftl_hw_interface.o)
 .data          0x4a086db0        0x0 nand_sunxi/sun7i/libnand-sun7i(nftl_list.o)
 .data          0x4a086db0        0x0 nand_sunxi/sun7i/osal/libnand_osal.o
 .data          0x4a086db0       0xa8 sprite/libsprite.o
                0x4a086db0                qt0
                0x4a086dd0                qt1
                0x4a086df0                ashx
                0x4a086e00                ror4
                0x4a086e10                qt3
                0x4a086e30                qt2
                0x4a086e50                tab_5b
                0x4a086e54                tab_ef
 .data          0x4a086e58      0x194 usb_sunxi/libsunxi_usb.o
                0x4a086e58                sunxi_usb_mass_dev
                0x4a086e68                setup_req_1
                0x4a086e88                sunxi_usb_mass_iProduct
                0x4a086ea8                sunxi_usb_mass_iManufacturer
                0x4a086ec8                sunxi_usb_mass_iSerialNum0
                0x4a086ee8                normal_LangID
                0x4a086ef4                setup_req_2
                0x4a086f14                sunxi_usb_fastboot_dev
                0x4a086f2c                setup_req_3
                0x4a086f4c                sunxi_fastboot_normal_LangID
                0x4a086f54                sunxi_usb_pburn_dev
                0x4a086f64                setup_req_4
                0x4a086f84                sunxi_usb_pburn_iProduct
                0x4a086fa4                sunxi_usb_pburn_iManufacturer
                0x4a086fc4                sunxi_usb_pburn_iSerialNum0
                0x4a086fe4                sunxi_usb_pbur_normal_LangID
 .data          0x4a086fec        0x0 board/sunxi/sun7i/libsun7i.o
 .data          0x4a086fec        0x0 board/sunxi/libsunxi.o
 .data          0x4a086fec        0x0 /mnt/hdd1/ccfrom/A20_Tablet/A20_Tablet_repo_cut/lichee/brandy/u-boot-2011.09/arch/arm/lib/eabi_compat.o
 .data          0x4a086fec        0x0 /mnt/hdd1/ccfrom/A20_Tablet/A20_Tablet_repo_cut/lichee/brandy/gcc-linaro/bin/../lib/gcc/arm-linux-gnueabi/4.6.3/libgcc.a(_lshrdi3.o)
 .data          0x4a086fec        0x0 /mnt/hdd1/ccfrom/A20_Tablet/A20_Tablet_repo_cut/lichee/brandy/gcc-linaro/bin/../lib/gcc/arm-linux-gnueabi/4.6.3/libgcc.a(_ashrdi3.o)
 .data          0x4a086fec        0x0 /mnt/hdd1/ccfrom/A20_Tablet/A20_Tablet_repo_cut/lichee/brandy/gcc-linaro/bin/../lib/gcc/arm-linux-gnueabi/4.6.3/libgcc.a(_ashldi3.o)
 .data          0x4a086fec        0x0 /mnt/hdd1/ccfrom/A20_Tablet/A20_Tablet_repo_cut/lichee/brandy/gcc-linaro/bin/../lib/gcc/arm-linux-gnueabi/4.6.3/libgcc.a(_arm_addsubdf3.o)
 .data          0x4a086fec        0x0 /mnt/hdd1/ccfrom/A20_Tablet/A20_Tablet_repo_cut/lichee/brandy/gcc-linaro/bin/../lib/gcc/arm-linux-gnueabi/4.6.3/libgcc.a(_arm_muldivdf3.o)
 .data          0x4a086fec        0x0 /mnt/hdd1/ccfrom/A20_Tablet/A20_Tablet_repo_cut/lichee/brandy/gcc-linaro/bin/../lib/gcc/arm-linux-gnueabi/4.6.3/libgcc.a(_arm_fixdfsi.o)
 .data          0x4a086fec        0x0 /mnt/hdd1/ccfrom/A20_Tablet/A20_Tablet_repo_cut/lichee/brandy/gcc-linaro/bin/../lib/gcc/arm-linux-gnueabi/4.6.3/libgcc.a(_arm_truncdfsf2.o)
 .data          0x4a086fec        0x0 /mnt/hdd1/ccfrom/A20_Tablet/A20_Tablet_repo_cut/lichee/brandy/gcc-linaro/bin/../lib/gcc/arm-linux-gnueabi/4.6.3/libgcc.a(_arm_addsubsf3.o)
 .data          0x4a086fec        0x0 /mnt/hdd1/ccfrom/A20_Tablet/A20_Tablet_repo_cut/lichee/brandy/gcc-linaro/bin/../lib/gcc/arm-linux-gnueabi/4.6.3/libgcc.a(_arm_muldivsf3.o)
 .data          0x4a086fec        0x0 /mnt/hdd1/ccfrom/A20_Tablet/A20_Tablet_repo_cut/lichee/brandy/gcc-linaro/bin/../lib/gcc/arm-linux-gnueabi/4.6.3/libgcc.a(_arm_fixsfsi.o)

.got            0x4a086fec        0x0
 .got           0x00000000        0x0 arch/arm/cpu/armv7/sun7i/spare_head.o

.got.plt        0x4a086fec        0xc
 .got.plt       0x4a086fec        0xc arch/arm/cpu/armv7/sun7i/spare_head.o
                0x4a086fec                _GLOBAL_OFFSET_TABLE_

.igot.plt       0x4a086ff8        0x0
 .igot.plt      0x00000000        0x0 arch/arm/cpu/armv7/sun7i/spare_head.o
                0x4a086ff8                . = ALIGN (0x4)
                0x4a086ff8                . = .
                0x4a086ff8                __u_boot_cmd_start = .

.u_boot_cmd     0x4a086ff8      0x604
 *(.u_boot_cmd)
 .u_boot_cmd    0x4a086ff8       0x1c arch/arm/cpu/armv7/sun7i/libsun7i.o
                0x4a086ff8                __u_boot_cmd_key_test
 .u_boot_cmd    0x4a087014      0x5e8 common/libcommon.o
                0x4a087014                __u_boot_cmd_reset
                0x4a087030                __u_boot_cmd_go
                0x4a08704c                __u_boot_cmd_boota
                0x4a087068                __u_boot_cmd_bootd
                0x4a087084                __u_boot_cmd_boot
                0x4a0870a0                __u_boot_cmd_bootm
                0x4a0870bc                __u_boot_cmd_pburn
                0x4a0870d8                __u_boot_cmd_bootvx
                0x4a0870f4                __u_boot_cmd_bootelf
                0x4a087110                __u_boot_cmd_exit
                0x4a08712c                __u_boot_cmd_fatinfo
                0x4a087148                __u_boot_cmd_fatls
                0x4a087164                __u_boot_cmd_fatdown
                0x4a087180                __u_boot_cmd_fatload
                0x4a08719c                __u_boot_cmd_efex
                0x4a0871b8                __u_boot_cmd_question_mark
                0x4a0871d4                __u_boot_cmd_help
                0x4a0871f0                __u_boot_cmd_memcpy_test
                0x4a08720c                __u_boot_cmd_mass_test
                0x4a087228                __u_boot_cmd_fastboot_test
                0x4a087244                __u_boot_cmd_sprite_test
                0x4a087260                __u_boot_cmd_timer_test1
                0x4a08727c                __u_boot_cmd_timer_test
                0x4a087298                __u_boot_cmd_mtest
                0x4a0872b4                __u_boot_cmd_loop
                0x4a0872d0                __u_boot_cmd_base
                0x4a0872ec                __u_boot_cmd_crc32
                0x4a087308                __u_boot_cmd_cmp
                0x4a087324                __u_boot_cmd_cp
                0x4a087340                __u_boot_cmd_mw
                0x4a08735c                __u_boot_cmd_nm
                0x4a087378                __u_boot_cmd_mm
                0x4a087394                __u_boot_cmd_md
                0x4a0873b0                __u_boot_cmd_mmc
                0x4a0873cc                __u_boot_cmd_mmcinfo
                0x4a0873e8                __u_boot_cmd_run
                0x4a087404                __u_boot_cmd_setenv
                0x4a087420                __u_boot_cmd_printenv
                0x4a08743c                __u_boot_cmd_env
                0x4a087458                __u_boot_cmd_saveenv
                0x4a087474                __u_boot_cmd_recovery
                0x4a087490                __u_boot_cmd_shutdown
                0x4a0874ac                __u_boot_cmd_standby
                0x4a0874c8                __u_boot_cmd_logo
                0x4a0874e4                __u_boot_cmd_sunxi_bmp_show
                0x4a087500                __u_boot_cmd_sunxi_bmp_info
                0x4a08751c                __u_boot_cmd_sunxi_flash
                0x4a087538                __u_boot_cmd_sunxi_boot_signature
                0x4a087554                __u_boot_cmd_save_userdata
                0x4a087570                __u_boot_cmd_true
                0x4a08758c                __u_boot_cmd_false
                0x4a0875a8                __u_boot_cmd_test
                0x4a0875c4                __u_boot_cmd_version
                0x4a0875e0                __u_boot_cmd_showvar
                0x4a0875fc                __u_boot_cmd_end = .
                0x4a0875fc                . = ALIGN (0x4)
                0x4a0875fc                __image_copy_end = .

.rel.dyn        0x4a0875fc     0xb990
                0x4a0875fc                __rel_dyn_start = .
 *(.rel*)
 .rel.got       0x00000000        0x0 arch/arm/cpu/armv7/sun7i/spare_head.o
 .rel.plt       0x00000000        0x0 arch/arm/cpu/armv7/sun7i/spare_head.o
 .rel.iplt      0x00000000        0x0 arch/arm/cpu/armv7/sun7i/spare_head.o
 .rel.text      0x4a0875fc     0x9878 arch/arm/cpu/armv7/sun7i/spare_head.o
 .rel.data      0x4a090e74     0x1450 arch/arm/cpu/armv7/sun7i/spare_head.o
 .rel.u_boot_cmd
                0x4a0922c4      0x6e8 arch/arm/cpu/armv7/sun7i/spare_head.o
 .rel.rodata    0x4a0929ac      0x5e0 arch/arm/cpu/armv7/sun7i/spare_head.o
                0x4a092f8c                __rel_dyn_end = .

.dynsym         0x4a092f8c      0x110
                0x4a092f8c                __dynsym_start = .
 *(.dynsym)
 .dynsym        0x4a092f8c      0x110 arch/arm/cpu/armv7/sun7i/spare_head.o
                0x4a09309c                _end = .
                0x4a09309c                _standby_start_lma = .

.boot_standby   0x00001000     0x1c04 load address 0x4a09309c
                0x00001000                _standby_start = .
 board/sunxi/sun7i/standby/libstandby.o(.text .data .bss .rodata)
 .text          0x00001000     0x1ab8 board/sunxi/sun7i/standby/libstandby.o
                0x00001000                standby_clock_store
                0x00001068                standby_clock_restore
                0x000010c0                standby_clock_to_source
                0x000010f8                standby_clock_plldisable
                0x00001164                standby_clock_divsetto0
                0x00001180                standby_clock_divsetback
                0x000011ac                standby_clock_drampll_ouput
                0x000011cc                standby_tmr_enable_watchdog
                0x000011ec                standby_tmr_disable_watchdog
                0x00001210                standby_clock_apb1_to_source
                0x00001230                standby_clock_24m_op
                0x000012f8                standby_delay
                0x00001324                DRAMC_enter_selfrefresh
                0x00001398                DRAMC_hostport_on_off
                0x000013c0                dram_power_save_process
                0x0000140c                dram_power_up_process
                0x00001410                standby_int_init
                0x00001424                standby_int_exit
                0x00001438                boot_power_set_dcdc2
                0x000015cc                boot_power_get_key
                0x00001634                boot_power_get_dcin_battery_exist
                0x000016b0                boot_power_battery_charge_status
                0x00001718                boot_power_int_enable
                0x000017d0                boot_power_int_disable
                0x00001830                boot_power_int_query
                0x000018ac                standby_axp_probe_usb
                0x00001920                mctl_ddr3_reset
                0x00001950                mctl_set_drive
                0x00001970                mctl_itm_disable
                0x0000198c                mctl_itm_enable
                0x000019a4                mctl_enable_dll0
                0x00001a0c                mctl_enable_dllx
                0x00001ae4                mctl_disable_dll
                0x00001b40                mctl_configure_hostport
                0x00001bd0                mctl_setup_dram_clock
                0x00001c6c                DRAMC_scan_readpipe
                0x00001cac                DRAMC_clock_output_en
                0x00001ccc                DRAMC_set_autorefresh_cycle
                0x00001cfc                DRAMC_get_dram_size
                0x00001d70                DRAMC_init
                0x000020a0                init_DRAM
                0x000020d0                dram_exit
                0x000020d8                dram_get_size
                0x000020dc                dram_set_clock
                0x000020e0                dram_set_drive
                0x000020e4                dram_set_autorefresh_cycle
                0x000020e8                dram_scan_readpipe
                0x000020ec                boot_set_charge_current
                0x00002174                boot_get_charge_current
                0x000021b4                boot_config_charge_current
                0x000022b4                standby_get_dram_para
                0x000022cc                boot_standby_mode
                0x000025ac                standby_serial_putc
                0x0000279c                standby_i2c_read
                0x000029a0                standby_i2c_write
                0x00002a88                boot_store_sp
                0x00002a98                boot_restore_sp
                0x00002aa8                boot_set_sp
                0x00002ab0                boot_halt
 .text.stub     0x00002ab8       0x30 linker stubs
 .rodata        0x00002af8       0x80 board/sunxi/sun7i/standby/libstandby.o
 .data          0x00002b78        0x0 board/sunxi/sun7i/standby/libstandby.o
 .bss           0x00002b78       0x8c board/sunxi/sun7i/standby/libstandby.o
                0x00002ba4                PMU_type
                0x00002ba8                trans_dcdc2_user_set
                0x00002c04                _standby_end = .

.bss            0x4a0875fc   0x444c8c
                0x4a0875fc                __bss_start = .
 *(.bss)
 .bss           0x4a0875fc        0x0 arch/arm/cpu/armv7/sun7i/spare_head.o
 .bss           0x4a0875fc        0x0 arch/arm/cpu/armv7/start.o
 .bss           0x4a0875fc        0x0 arch/arm/cpu/armv7/libarmv7.o
 .bss           0x4a0875fc      0x444 arch/arm/cpu/armv7/sun7i/libsun7i.o
                0x4a0875fc                sunxi_int_handlers
 .bss           0x4a087a40        0x8 arch/arm/lib/libarm.o
                0x4a087a40                monitor_flash_len
 .bss           0x4a087a48     0x3898 common/libcommon.o
                0x4a087d74                burn_private_start
                0x4a087d78                burn_private_len
                0x4a087d84                timer1_t
                0x4a087d94                timer0_t
                0x4a087db8                pblc_keys
                0x4a087dc0                prvt_keys
                0x4a087dc8                key
                0x4a087dcc                cryptTable
                0x4a0891cc                USER_DATA_NUM
                0x4a0891d0                USER_DATA_NAME
                0x4a089618                mem_malloc_brk
                0x4a08961c                mem_malloc_start
                0x4a089620                mem_malloc_end
                0x4a08965c                env_htab
                0x4a089668                env_ptr
                0x4a0897b8                last_return_code
                0x4a0898c0                nesting_level
                0x4a0898d0                hist_num
                0x4a0898d4                hist_lines
                0x4a08ace8                hist_list
                0x4a08ad38                console_buffer
                0x4a08ae78                stdio_devices
 .bss           0x4a08b2e0        0x0 disk/libdisk.o
 .bss           0x4a08b2e0        0x4 drivers/dma/libdma.o
 .bss           0x4a08b2e4        0x0 drivers/i2c/libi2c.o
 *fill*         0x4a08b2e4        0x4 00
 .bss           0x4a08b2e8      0x5c0 drivers/mmc/libmmc.o
                0x4a08b2e8                mmc_dev
                0x4a08b828                mmc_host
 .bss           0x4a08b8a8        0x0 drivers/pcmcia/libpcmcia.o
 .bss           0x4a08b8a8       0x18 drivers/power/libpower.o
 .bss           0x4a08b8c0      0x1d0 drivers/pwm/libsunxi_pwm.o
                0x4a08b8c0                pwm_pin_count
                0x4a08b8d0                pwm_gpio_info
 .bss           0x4a08ba90        0x0 drivers/rtc/librtc.o
 .bss           0x4a08ba90        0x0 drivers/serial/libserial.o
 .bss           0x4a08ba90       0x84 drivers/storage_type/libstorage_type.o
 .bss           0x4a08bb14     0x852c drivers/video_sun7i/libvideo_sunxi.o
                0x4a08bb1c                lcd_timer
                0x4a08bb40                g_disp_drv
                0x4a08fb58                g_fbi
                0x4a08fe48                image_reg_base
                0x4a08fe50                fir_tab
                0x4a08fe84                tve_reg_base0
                0x4a08fe88                tve_reg_base1
                0x4a08fe94                MipiPllCtl
                0x4a08fe98                MipipllBias
                0x4a08fe9c                h_debe0ahbclk
                0x4a08fea0                h_debe0mclk
                0x4a08fea4                h_debe0dramclk
                0x4a08fea8                g_clk_status
                0x4a08feac                h_debe1ahbclk
                0x4a08feb0                h_debe1mclk
                0x4a08feb4                h_debe1dramclk
                0x4a08feb8                h_defe0ahbclk
                0x4a08febc                h_defe0dramclk
                0x4a08fec0                h_defe0mclk
                0x4a08fec4                h_defe1ahbclk
                0x4a08fec8                h_defe1dramclk
                0x4a08fecc                h_defe1mclk
                0x4a08fed0                h_lcd0ahbclk
                0x4a08fed4                h_lcd0ch0mclk0
                0x4a08fed8                h_lcd0ch1mclk1
                0x4a08fedc                h_lcd0ch1mclk2
                0x4a08fee0                h_lcd1ahbclk
                0x4a08fee4                h_lcd1ch0mclk0
                0x4a08fee8                h_lcd1ch1mclk1
                0x4a08feec                h_lcd1ch1mclk2
                0x4a08fef0                h_tvenc0ahbclk
                0x4a08fef4                h_tvenc1ahbclk
                0x4a08fef8                h_hdmiahbclk
                0x4a08fefc                h_hdmimclk
                0x4a08ff00                h_hdmimclk_ddc
                0x4a08ff04                h_lvdsmclk
                0x4a08ff08                h_dsiahbclk
                0x4a08ff0c                h_dsimclk_s
                0x4a08ff10                h_dsimclk_p
                0x4a08ff14                gdisp
                0x4a092044                gpanel_info
                0x4a0932f4                g_video
                0x4a09376c                cmu_reg_base
                0x4a0938b4                pwrsv_lgc_tab
                0x4a0939a4                g_lcd_drv
                0x4a093a08                hdmi_state
                0x4a093a0c                audio_info
                0x4a093a2c                Device_Support_VIC
                0x4a093c2c                HPD
                0x4a093c30                hdmi_pll
                0x4a093c38                video_enable
                0x4a093c39                YCbCr444_Support
                0x4a093c3a                isHDMI
                0x4a093c3b                EDID_Buf
                0x4a09403c                HDMI_BASE
 .bss           0x4a094040   0x400288 fs/aw_fs/libawfat.o
 .bss           0x4a4942c8    0x30014 fs/fat/libfat.o
                0x4a4942c8                cur_dev
                0x4a4942cc                part_offset
                0x4a4942d0                get_vfatname_block
                0x4a4a42d0                do_fat_read_block
                0x4a4b42d0                get_dentfromdir_block
 .bss           0x4a4c42dc        0x8 lib/libgeneric.o
                0x4a4c42dc                errno
                0x4a4c42e0                ___strtok
 .bss           0x4a4c42e4        0x0 lib/zlib/libz.o
 .bss           0x4a4c42e4      0x858 nand_sunxi/nand_interface/libnand_interface.o
                0x4a4c4368                nand_mbr
                0x4a4c4a30                mbr_burned_flag
 .bss           0x4a4c4b3c       0x40 nand_sunxi/sun7i/libnand-sun7i(nftl_uboot_interface.o)
                0x4a4c4b3c                nftl_blk_head
 .bss           0x4a4c4b7c       0x20 nand_sunxi/sun7i/libnand-sun7i(nand_format.o)
                0x4a4c4b7c                LogicArchiPar
                0x4a4c4b90                DieCntOfNand
                0x4a4c4b98                lsb_page
 .bss           0x4a4c4b9c        0x0 nand_sunxi/sun7i/libnand-sun7i(nand_phy.o)
 *fill*         0x4a4c4b9c        0x4 00
 .bss           0x4a4c4ba0      0x670 nand_sunxi/sun7i/libnand-sun7i(nand_physic_interface.o)
                0x4a4c4ba0                aw_nand_info
                0x4a4c5088                nand_reg_back
 .bss           0x4a4c5210        0x8 nand_sunxi/sun7i/libnand-sun7i(nand_scan.o)
                0x4a4c5210                NandSupportTwoPlaneOp
                0x4a4c5214                CurrentDriverTwoPlaneOPCfg
 .bss           0x4a4c5218       0x98 nand_sunxi/sun7i/libnand-sun7i(nand_simple_r.o)
                0x4a4c5218                NandStorageInfo
                0x4a4c5278                RetryCount
                0x4a4c5298                PageCachePool
 .bss           0x4a4c52b0        0x0 nand_sunxi/sun7i/libnand-sun7i(nand_simple_w.o)
 .bss           0x4a4c52b0      0x558 nand_sunxi/sun7i/libnand-sun7i(nfc_r.o)
                0x4a4c52b0                ddr_param
                0x4a4c52d0                NandIOBase
                0x4a4c52d8                NandIndex
                0x4a4c52dc                nand_dma_addr
                0x4a4c52e4                pagesize
                0x4a4c52e8                read_retry_mode
                0x4a4c52e9                read_retry_cycle
                0x4a4c52ea                read_retry_reg_num
                0x4a4c52ec                read_retry_val
                0x4a4c556c                read_retry_default_val
                0x4a4c55ec                read_retry_reg_adr
                0x4a4c55fc                hynix_read_retry_otp_value
                0x4a4c57fc                irq_value
                0x4a4c5800                nand_board_version
                0x4a4c5804                nand_reg_address
 .bss           0x4a4c5808       0x19 nand_sunxi/sun7i/libnand-sun7i(nfc_w.o)
                0x4a4c5808                lsb_mode_reg_num
                0x4a4c5809                lsb_mode_reg_adr
                0x4a4c5811                lsb_mode_val
                0x4a4c5819                lsb_mode_default_val
 .bss           0x4a4c5821        0x0 nand_sunxi/sun7i/libnand-sun7i(build_nand_partition.o)
 .bss           0x4a4c5821        0x0 nand_sunxi/sun7i/libnand-sun7i(build_phy_partition.o)
 .bss           0x4a4c5821        0x0 nand_sunxi/sun7i/libnand-sun7i(nand_info_init.o)
 .bss           0x4a4c5821        0x0 nand_sunxi/sun7i/libnand-sun7i(nftl_init.o)
 .bss           0x4a4c5821        0x0 nand_sunxi/sun7i/libnand-sun7i(nand_id.o)
 .bss           0x4a4c5821        0x0 nand_sunxi/sun7i/libnand-sun7i(nftl_cache.o)
 .bss           0x4a4c5821        0x0 nand_sunxi/sun7i/libnand-sun7i(nftl_sector_cache.o)
 .bss           0x4a4c5821        0x0 nand_sunxi/sun7i/libnand-sun7i(nftl_start.o)
 .bss           0x4a4c5821        0x0 nand_sunxi/sun7i/libnand-sun7i(nftl_interface.o)
 .bss           0x4a4c5821        0x0 nand_sunxi/sun7i/libnand-sun7i(nftl_logic.o)
 .bss           0x4a4c5821        0x0 nand_sunxi/sun7i/libnand-sun7i(nftl_gc.o)
 .bss           0x4a4c5821        0x0 nand_sunxi/sun7i/libnand-sun7i(nftl_common.o)
 .bss           0x4a4c5821        0x0 nand_sunxi/sun7i/libnand-sun7i(nftl_build.o)
 .bss           0x4a4c5821        0x0 nand_sunxi/sun7i/libnand-sun7i(nftl_hw_interface.o)
 .bss           0x4a4c5821        0x0 nand_sunxi/sun7i/libnand-sun7i(nftl_list.o)
 *fill*         0x4a4c5821        0x3 00
 .bss           0x4a4c5824        0x8 nand_sunxi/sun7i/osal/libnand_osal.o
                0x4a4c5824                hDMA
                0x4a4c5828                malloc_size
 .bss           0x4a4c582c     0x25a0 sprite/libsprite.o
                0x4a4c5838                handle
                0x4a4c583c                twi_org
                0x4a4c7b30                img_file_start
                0x4a4c7b34                part_info
                0x4a4c7dbc                TIMER0
 .bss           0x4a4c7dcc      0x35c usb_sunxi/libsunxi_usb.o
                0x4a4c7e94                fastboot_data_flag
                0x4a4c7ee0                sunxi_udc_source
                0x4a4c7f20                sunxi_udev_active
 .bss           0x4a4c8128        0x0 board/sunxi/sun7i/libsun7i.o
 .bss           0x4a4c8128     0x4160 board/sunxi/libsunxi.o
                0x4a4c812c                bat_bmp_store
                0x4a4c81e4                boot_standby_action
                0x4a4c81ec                timer_for_usb
                0x4a4c81fc                sprite_source
                0x4a4c8220                progress
                0x4a4c8258                ui_char_info
                0x4a4c827c                font
                0x4a4c8280                face
 .bss           0x4a4cc288        0x0 /mnt/hdd1/ccfrom/A20_Tablet/A20_Tablet_repo_cut/lichee/brandy/u-boot-2011.09/arch/arm/lib/eabi_compat.o
 .bss           0x4a4cc288        0x0 /mnt/hdd1/ccfrom/A20_Tablet/A20_Tablet_repo_cut/lichee/brandy/gcc-linaro/bin/../lib/gcc/arm-linux-gnueabi/4.6.3/libgcc.a(_lshrdi3.o)
 .bss           0x4a4cc288        0x0 /mnt/hdd1/ccfrom/A20_Tablet/A20_Tablet_repo_cut/lichee/brandy/gcc-linaro/bin/../lib/gcc/arm-linux-gnueabi/4.6.3/libgcc.a(_ashrdi3.o)
 .bss           0x4a4cc288        0x0 /mnt/hdd1/ccfrom/A20_Tablet/A20_Tablet_repo_cut/lichee/brandy/gcc-linaro/bin/../lib/gcc/arm-linux-gnueabi/4.6.3/libgcc.a(_ashldi3.o)
 .bss           0x4a4cc288        0x0 /mnt/hdd1/ccfrom/A20_Tablet/A20_Tablet_repo_cut/lichee/brandy/gcc-linaro/bin/../lib/gcc/arm-linux-gnueabi/4.6.3/libgcc.a(_arm_addsubdf3.o)
 .bss           0x4a4cc288        0x0 /mnt/hdd1/ccfrom/A20_Tablet/A20_Tablet_repo_cut/lichee/brandy/gcc-linaro/bin/../lib/gcc/arm-linux-gnueabi/4.6.3/libgcc.a(_arm_muldivdf3.o)
 .bss           0x4a4cc288        0x0 /mnt/hdd1/ccfrom/A20_Tablet/A20_Tablet_repo_cut/lichee/brandy/gcc-linaro/bin/../lib/gcc/arm-linux-gnueabi/4.6.3/libgcc.a(_arm_fixdfsi.o)
 .bss           0x4a4cc288        0x0 /mnt/hdd1/ccfrom/A20_Tablet/A20_Tablet_repo_cut/lichee/brandy/gcc-linaro/bin/../lib/gcc/arm-linux-gnueabi/4.6.3/libgcc.a(_arm_truncdfsf2.o)
 .bss           0x4a4cc288        0x0 /mnt/hdd1/ccfrom/A20_Tablet/A20_Tablet_repo_cut/lichee/brandy/gcc-linaro/bin/../lib/gcc/arm-linux-gnueabi/4.6.3/libgcc.a(_arm_addsubsf3.o)
 .bss           0x4a4cc288        0x0 /mnt/hdd1/ccfrom/A20_Tablet/A20_Tablet_repo_cut/lichee/brandy/gcc-linaro/bin/../lib/gcc/arm-linux-gnueabi/4.6.3/libgcc.a(_arm_muldivsf3.o)
 .bss           0x4a4cc288        0x0 /mnt/hdd1/ccfrom/A20_Tablet/A20_Tablet_repo_cut/lichee/brandy/gcc-linaro/bin/../lib/gcc/arm-linux-gnueabi/4.6.3/libgcc.a(_arm_fixsfsi.o)
                0x4a4cc288                . = ALIGN (0x4)
                0x4a4cc288                __bss_end__ = .

.dynbss         0x00002c04        0x0 load address 0x9455e324
 .dynbss        0x00000000        0x0 arch/arm/cpu/armv7/sun7i/spare_head.o

/DISCARD/
 *(.dynstr*)
 *(.dynamic*)
 *(.plt*)
 *(.interp*)
 *(.gnu*)
LOAD arch/arm/cpu/armv7/start.o
START GROUP
LOAD api/libapi.o
LOAD arch/arm/cpu/armv7/libarmv7.o
LOAD arch/arm/cpu/armv7/sun7i/libsun7i.o
LOAD arch/arm/lib/libarm.o
LOAD board/sunxi/sun7i/standby/libstandby.o
LOAD common/libcommon.o
LOAD disk/libdisk.o
LOAD drivers/audio/libaudio.o
LOAD drivers/bios_emulator/libatibiosemu.o
LOAD drivers/block/libblock.o
LOAD drivers/dma/libdma.o
LOAD drivers/fpga/libfpga.o
LOAD drivers/gpio/libgpio.o
LOAD drivers/hwmon/libhwmon.o
LOAD drivers/i2c/libi2c.o
LOAD drivers/input/libinput.o
LOAD drivers/misc/libmisc.o
LOAD drivers/mmc/libmmc.o
LOAD drivers/mtd/nand/libnand.o
LOAD drivers/mtd/onenand/libonenand.o
LOAD drivers/mtd/spi/libspi_flash.o
LOAD drivers/mtd/ubi/libubi.o
LOAD drivers/net/libnet.o
LOAD drivers/net/phy/libphy.o
LOAD drivers/p2wi/libp2wi.o
LOAD drivers/pci/libpci.o
LOAD drivers/pcmcia/libpcmcia.o
LOAD drivers/power/libpower.o
LOAD drivers/pwm/libsunxi_pwm.o
LOAD drivers/rsb/librsb.o
LOAD drivers/rtc/librtc.o
LOAD drivers/serial/libserial.o
LOAD drivers/spi/libspi.o
LOAD drivers/storage_type/libstorage_type.o
LOAD drivers/twserial/libtws.o
LOAD drivers/usb/eth/libusb_eth.o
LOAD drivers/usb/gadget/libusb_gadget.o
LOAD drivers/usb/host/libusb_host.o
LOAD drivers/usb/musb/libusb_musb.o
LOAD drivers/usb/phy/libusb_phy.o
LOAD drivers/video_sun7i/libvideo_sunxi.o
LOAD drivers/watchdog/libwatchdog.o
LOAD fs/aw_fs/libawfat.o
LOAD fs/cramfs/libcramfs.o
LOAD fs/ext2/libext2fs.o
LOAD fs/fat/libfat.o
LOAD fs/fdos/libfdos.o
LOAD fs/jffs2/libjffs2.o
LOAD fs/reiserfs/libreiserfs.o
LOAD fs/ubifs/libubifs.o
LOAD fs/yaffs2/libyaffs2.o
LOAD lib/libfdt/libfdt.o
LOAD lib/libgeneric.o
LOAD lib/lzma/liblzma.o
LOAD lib/lzo/liblzo.o
LOAD lib/zlib/libz.o
LOAD nand_sunxi/nand_interface/libnand_interface.o
LOAD nand_sunxi/sun7i/libnand-sun7i
LOAD nand_sunxi/sun7i/osal/libnand_osal.o
LOAD net/libnet.o
LOAD post/libpost.o
LOAD sprite/libsprite.o
LOAD usb_sunxi/libsunxi_usb.o
LOAD board/sunxi/sun7i/libsun7i.o
LOAD board/sunxi/libsunxi.o
END GROUP
LOAD /mnt/hdd1/ccfrom/A20_Tablet/A20_Tablet_repo_cut/lichee/brandy/u-boot-2011.09/arch/arm/lib/eabi_compat.o
LOAD /mnt/hdd1/ccfrom/A20_Tablet/A20_Tablet_repo_cut/lichee/brandy/gcc-linaro/bin/../lib/gcc/arm-linux-gnueabi/4.6.3/libgcc.a
OUTPUT(u-boot elf32-littlearm)

.debug_info     0x00000000    0xa51ec
 .debug_info    0x00000000      0x313 arch/arm/cpu/armv7/sun7i/spare_head.o
 .debug_info    0x00000313       0x8e arch/arm/cpu/armv7/start.o
 .debug_info    0x000003a1     0x28bf board/sunxi/sun7i/standby/libstandby.o
 .debug_info    0x00002c60      0xaec arch/arm/cpu/armv7/libarmv7.o
 .debug_info    0x0000374c     0x83e1 arch/arm/cpu/armv7/sun7i/libsun7i.o
 .debug_info    0x0000bb2d     0x2d15 arch/arm/lib/libarm.o
 .debug_info    0x0000e842    0x141fc common/libcommon.o
 .debug_info    0x00022a3e     0x1040 disk/libdisk.o
 .debug_info    0x00023a7e      0xa70 drivers/dma/libdma.o
 .debug_info    0x000244ee      0xa99 drivers/i2c/libi2c.o
 .debug_info    0x00024f87     0x3548 drivers/mmc/libmmc.o
 .debug_info    0x000284cf       0xe6 drivers/pcmcia/libpcmcia.o
 .debug_info    0x000285b5     0x1eef drivers/power/libpower.o
 .debug_info    0x0002a4a4      0x645 drivers/pwm/libsunxi_pwm.o
 .debug_info    0x0002aae9      0x367 drivers/rtc/librtc.o
 .debug_info    0x0002ae50     0x11e1 drivers/serial/libserial.o
 .debug_info    0x0002c031     0x16ed drivers/storage_type/libstorage_type.o
 .debug_info    0x0002d71e    0x3d01f drivers/video_sun7i/libvideo_sunxi.o
 .debug_info    0x0006a73d     0x2531 fs/aw_fs/libawfat.o
 .debug_info    0x0006cc6e     0x2d35 fs/fat/libfat.o
 .debug_info    0x0006f9a3     0x34eb lib/libgeneric.o
 .debug_info    0x00072e8e     0x1040 lib/zlib/libz.o
 .debug_info    0x00073ece     0x1d2a nand_sunxi/nand_interface/libnand_interface.o
 .debug_info    0x00075bf8     0x1510 nand_sunxi/sun7i/libnand-sun7i(nftl_uboot_interface.o)
 .debug_info    0x00077108      0xf64 nand_sunxi/sun7i/libnand-sun7i(nand_format.o)
 .debug_info    0x0007806c     0x1a7d nand_sunxi/sun7i/libnand-sun7i(nand_phy.o)
 .debug_info    0x00079ae9      0xa43 nand_sunxi/sun7i/libnand-sun7i(nand_physic_interface.o)
 .debug_info    0x0007a52c      0xdd3 nand_sunxi/sun7i/libnand-sun7i(nand_scan.o)
 .debug_info    0x0007b2ff     0x1c1a nand_sunxi/sun7i/libnand-sun7i(nand_simple_r.o)
 .debug_info    0x0007cf19      0xb69 nand_sunxi/sun7i/libnand-sun7i(nand_simple_w.o)
 .debug_info    0x0007da82     0x228f nand_sunxi/sun7i/libnand-sun7i(nfc_r.o)
 .debug_info    0x0007fd11     0x1176 nand_sunxi/sun7i/libnand-sun7i(nfc_w.o)
 .debug_info    0x00080e87      0x86a nand_sunxi/sun7i/libnand-sun7i(build_nand_partition.o)
 .debug_info    0x000816f1      0xae0 nand_sunxi/sun7i/libnand-sun7i(build_phy_partition.o)
 .debug_info    0x000821d1      0xb57 nand_sunxi/sun7i/libnand-sun7i(nand_info_init.o)
 .debug_info    0x00082d28     0x15e7 nand_sunxi/sun7i/libnand-sun7i(nftl_init.o)
 .debug_info    0x0008430f      0x3ff nand_sunxi/sun7i/libnand-sun7i(nand_id.o)
 .debug_info    0x0008470e     0x13b3 nand_sunxi/sun7i/libnand-sun7i(nftl_cache.o)
 .debug_info    0x00085ac1     0x1026 nand_sunxi/sun7i/libnand-sun7i(nftl_sector_cache.o)
 .debug_info    0x00086ae7      0xd58 nand_sunxi/sun7i/libnand-sun7i(nftl_start.o)
 .debug_info    0x0008783f      0xcaf nand_sunxi/sun7i/libnand-sun7i(nftl_interface.o)
 .debug_info    0x000884ee     0x137d nand_sunxi/sun7i/libnand-sun7i(nftl_logic.o)
 .debug_info    0x0008986b     0x1176 nand_sunxi/sun7i/libnand-sun7i(nftl_gc.o)
 .debug_info    0x0008a9e1     0x1405 nand_sunxi/sun7i/libnand-sun7i(nftl_common.o)
 .debug_info    0x0008bde6     0x183b nand_sunxi/sun7i/libnand-sun7i(nftl_build.o)
 .debug_info    0x0008d621     0x13dd nand_sunxi/sun7i/libnand-sun7i(nftl_hw_interface.o)
 .debug_info    0x0008e9fe     0x124a nand_sunxi/sun7i/libnand-sun7i(nftl_list.o)
 .debug_info    0x0008fc48      0x8ef nand_sunxi/sun7i/osal/libnand_osal.o
 .debug_info    0x00090537     0x4eb7 sprite/libsprite.o
 .debug_info    0x000953ee     0x64f4 usb_sunxi/libsunxi_usb.o
 .debug_info    0x0009b8e2      0x77f board/sunxi/sun7i/libsun7i.o
 .debug_info    0x0009c061     0x90d7 board/sunxi/libsunxi.o
 .debug_info    0x000a5138       0xb4 /mnt/hdd1/ccfrom/A20_Tablet/A20_Tablet_repo_cut/lichee/brandy/u-boot-2011.09/arch/arm/lib/eabi_compat.o

.debug_abbrev   0x00000000    0x19609
 .debug_abbrev  0x00000000       0x87 arch/arm/cpu/armv7/sun7i/spare_head.o
 .debug_abbrev  0x00000087       0x14 arch/arm/cpu/armv7/start.o
 .debug_abbrev  0x0000009b      0xb3b board/sunxi/sun7i/standby/libstandby.o
 .debug_abbrev  0x00000bd6      0x3a8 arch/arm/cpu/armv7/libarmv7.o
 .debug_abbrev  0x00000f7e     0x148f arch/arm/cpu/armv7/sun7i/libsun7i.o
 .debug_abbrev  0x0000240d      0x9df arch/arm/lib/libarm.o
 .debug_abbrev  0x00002dec     0x4649 common/libcommon.o
 .debug_abbrev  0x00007435      0x429 disk/libdisk.o
 .debug_abbrev  0x0000785e      0x24f drivers/dma/libdma.o
 .debug_abbrev  0x00007aad      0x26c drivers/i2c/libi2c.o
 .debug_abbrev  0x00007d19      0x847 drivers/mmc/libmmc.o
 .debug_abbrev  0x00008560       0x54 drivers/pcmcia/libpcmcia.o
 .debug_abbrev  0x000085b4      0x551 drivers/power/libpower.o
 .debug_abbrev  0x00008b05      0x268 drivers/pwm/libsunxi_pwm.o
 .debug_abbrev  0x00008d6d      0x104 drivers/rtc/librtc.o
 .debug_abbrev  0x00008e71      0x344 drivers/serial/libserial.o
 .debug_abbrev  0x000091b5      0x334 drivers/storage_type/libstorage_type.o
 .debug_abbrev  0x000094e9     0x618d drivers/video_sun7i/libvideo_sunxi.o
 .debug_abbrev  0x0000f676      0x408 fs/aw_fs/libawfat.o
 .debug_abbrev  0x0000fa7e      0x7fb fs/fat/libfat.o
 .debug_abbrev  0x00010279     0x13a0 lib/libgeneric.o
 .debug_abbrev  0x00011619      0x335 lib/zlib/libz.o
 .debug_abbrev  0x0001194e      0x52c nand_sunxi/nand_interface/libnand_interface.o
 .debug_abbrev  0x00011e7a      0x26e nand_sunxi/sun7i/libnand-sun7i(nftl_uboot_interface.o)
 .debug_abbrev  0x000120e8      0x245 nand_sunxi/sun7i/libnand-sun7i(nand_format.o)
 .debug_abbrev  0x0001232d      0x28f nand_sunxi/sun7i/libnand-sun7i(nand_phy.o)
 .debug_abbrev  0x000125bc      0x1b0 nand_sunxi/sun7i/libnand-sun7i(nand_physic_interface.o)
 .debug_abbrev  0x0001276c      0x23c nand_sunxi/sun7i/libnand-sun7i(nand_scan.o)
 .debug_abbrev  0x000129a8      0x368 nand_sunxi/sun7i/libnand-sun7i(nand_simple_r.o)
 .debug_abbrev  0x00012d10      0x17b nand_sunxi/sun7i/libnand-sun7i(nand_simple_w.o)
 .debug_abbrev  0x00012e8b      0x300 nand_sunxi/sun7i/libnand-sun7i(nfc_r.o)
 .debug_abbrev  0x0001318b      0x1f0 nand_sunxi/sun7i/libnand-sun7i(nfc_w.o)
 .debug_abbrev  0x0001337b      0x167 nand_sunxi/sun7i/libnand-sun7i(build_nand_partition.o)
 .debug_abbrev  0x000134e2      0x20f nand_sunxi/sun7i/libnand-sun7i(build_phy_partition.o)
 .debug_abbrev  0x000136f1      0x20f nand_sunxi/sun7i/libnand-sun7i(nand_info_init.o)
 .debug_abbrev  0x00013900      0x221 nand_sunxi/sun7i/libnand-sun7i(nftl_init.o)
 .debug_abbrev  0x00013b21       0xa1 nand_sunxi/sun7i/libnand-sun7i(nand_id.o)
 .debug_abbrev  0x00013bc2      0x2be nand_sunxi/sun7i/libnand-sun7i(nftl_cache.o)
 .debug_abbrev  0x00013e80      0x231 nand_sunxi/sun7i/libnand-sun7i(nftl_sector_cache.o)
 .debug_abbrev  0x000140b1      0x1b1 nand_sunxi/sun7i/libnand-sun7i(nftl_start.o)
 .debug_abbrev  0x00014262      0x16b nand_sunxi/sun7i/libnand-sun7i(nftl_interface.o)
 .debug_abbrev  0x000143cd      0x336 nand_sunxi/sun7i/libnand-sun7i(nftl_logic.o)
 .debug_abbrev  0x00014703      0x260 nand_sunxi/sun7i/libnand-sun7i(nftl_gc.o)
 .debug_abbrev  0x00014963      0x2c5 nand_sunxi/sun7i/libnand-sun7i(nftl_common.o)
 .debug_abbrev  0x00014c28      0x2be nand_sunxi/sun7i/libnand-sun7i(nftl_build.o)
 .debug_abbrev  0x00014ee6      0x163 nand_sunxi/sun7i/libnand-sun7i(nftl_hw_interface.o)
 .debug_abbrev  0x00015049      0x215 nand_sunxi/sun7i/libnand-sun7i(nftl_list.o)
 .debug_abbrev  0x0001525e      0x28a nand_sunxi/sun7i/osal/libnand_osal.o
 .debug_abbrev  0x000154e8     0x13f9 sprite/libsprite.o
 .debug_abbrev  0x000168e1     0x11d4 usb_sunxi/libsunxi_usb.o
 .debug_abbrev  0x00017ab5      0x174 board/sunxi/sun7i/libsun7i.o
 .debug_abbrev  0x00017c29     0x1979 board/sunxi/libsunxi.o
 .debug_abbrev  0x000195a2       0x67 /mnt/hdd1/ccfrom/A20_Tablet/A20_Tablet_repo_cut/lichee/brandy/u-boot-2011.09/arch/arm/lib/eabi_compat.o

.debug_line     0x00000000    0x25ceb
 .debug_line    0x00000000       0xa5 arch/arm/cpu/armv7/sun7i/spare_head.o
 .debug_line    0x000000a5       0xf8 arch/arm/cpu/armv7/start.o
 .debug_line    0x0000019d      0xf3a board/sunxi/sun7i/standby/libstandby.o
 .debug_line    0x000010d7      0x2d0 arch/arm/cpu/armv7/libarmv7.o
 .debug_line    0x000013a7     0x19d5 arch/arm/cpu/armv7/sun7i/libsun7i.o
 .debug_line    0x00002d7c      0xb31 arch/arm/lib/libarm.o
 .debug_line    0x000038ad     0x56c9 common/libcommon.o
 .debug_line    0x00008f76      0x410 disk/libdisk.o
 .debug_line    0x00009386      0x276 drivers/dma/libdma.o
 .debug_line    0x000095fc      0x317 drivers/i2c/libi2c.o
 .debug_line    0x00009913      0xb96 drivers/mmc/libmmc.o
 .debug_line    0x0000a4a9       0x3a drivers/pcmcia/libpcmcia.o
 .debug_line    0x0000a4e3      0x738 drivers/power/libpower.o
 .debug_line    0x0000ac1b      0x267 drivers/pwm/libsunxi_pwm.o
 .debug_line    0x0000ae82      0x18e drivers/rtc/librtc.o
 .debug_line    0x0000b010      0x3b1 drivers/serial/libserial.o
 .debug_line    0x0000b3c1      0x33e drivers/storage_type/libstorage_type.o
 .debug_line    0x0000b6ff     0x9cd4 drivers/video_sun7i/libvideo_sunxi.o
 .debug_line    0x000153d3      0x9e4 fs/aw_fs/libawfat.o
 .debug_line    0x00015db7      0xcb3 fs/fat/libfat.o
 .debug_line    0x00016a6a     0x1cc0 lib/libgeneric.o
 .debug_line    0x0001872a      0xb71 lib/zlib/libz.o
 .debug_line    0x0001929b      0x8a0 nand_sunxi/nand_interface/libnand_interface.o
 .debug_line    0x00019b3b      0x226 nand_sunxi/sun7i/libnand-sun7i(nftl_uboot_interface.o)
 .debug_line    0x00019d61      0x3cc nand_sunxi/sun7i/libnand-sun7i(nand_format.o)
 .debug_line    0x0001a12d      0xe98 nand_sunxi/sun7i/libnand-sun7i(nand_phy.o)
 .debug_line    0x0001afc5      0x26f nand_sunxi/sun7i/libnand-sun7i(nand_physic_interface.o)
 .debug_line    0x0001b234      0x481 nand_sunxi/sun7i/libnand-sun7i(nand_scan.o)
 .debug_line    0x0001b6b5      0x934 nand_sunxi/sun7i/libnand-sun7i(nand_simple_r.o)
 .debug_line    0x0001bfe9      0x2b6 nand_sunxi/sun7i/libnand-sun7i(nand_simple_w.o)
 .debug_line    0x0001c29f      0xd02 nand_sunxi/sun7i/libnand-sun7i(nfc_r.o)
 .debug_line    0x0001cfa1      0x4de nand_sunxi/sun7i/libnand-sun7i(nfc_w.o)
 .debug_line    0x0001d47f       0xff nand_sunxi/sun7i/libnand-sun7i(build_nand_partition.o)
 .debug_line    0x0001d57e      0x2d6 nand_sunxi/sun7i/libnand-sun7i(build_phy_partition.o)
 .debug_line    0x0001d854      0x39a nand_sunxi/sun7i/libnand-sun7i(nand_info_init.o)
 .debug_line    0x0001dbee      0x204 nand_sunxi/sun7i/libnand-sun7i(nftl_init.o)
 .debug_line    0x0001ddf2       0xa3 nand_sunxi/sun7i/libnand-sun7i(nand_id.o)
 .debug_line    0x0001de95      0x353 nand_sunxi/sun7i/libnand-sun7i(nftl_cache.o)
 .debug_line    0x0001e1e8      0x222 nand_sunxi/sun7i/libnand-sun7i(nftl_sector_cache.o)
 .debug_line    0x0001e40a      0x20a nand_sunxi/sun7i/libnand-sun7i(nftl_start.o)
 .debug_line    0x0001e614      0x10d nand_sunxi/sun7i/libnand-sun7i(nftl_interface.o)
 .debug_line    0x0001e721      0x30b nand_sunxi/sun7i/libnand-sun7i(nftl_logic.o)
 .debug_line    0x0001ea2c      0x302 nand_sunxi/sun7i/libnand-sun7i(nftl_gc.o)
 .debug_line    0x0001ed2e      0x278 nand_sunxi/sun7i/libnand-sun7i(nftl_common.o)
 .debug_line    0x0001efa6      0x7c4 nand_sunxi/sun7i/libnand-sun7i(nftl_build.o)
 .debug_line    0x0001f76a      0x1bb nand_sunxi/sun7i/libnand-sun7i(nftl_hw_interface.o)
 .debug_line    0x0001f925      0x2b9 nand_sunxi/sun7i/libnand-sun7i(nftl_list.o)
 .debug_line    0x0001fbde      0x29d nand_sunxi/sun7i/osal/libnand_osal.o
 .debug_line    0x0001fe7b     0x1f16 sprite/libsprite.o
 .debug_line    0x00021d91     0x1783 usb_sunxi/libsunxi_usb.o
 .debug_line    0x00023514      0x1ed board/sunxi/sun7i/libsun7i.o
 .debug_line    0x00023701     0x25a9 board/sunxi/libsunxi.o
 .debug_line    0x00025caa       0x41 /mnt/hdd1/ccfrom/A20_Tablet/A20_Tablet_repo_cut/lichee/brandy/u-boot-2011.09/arch/arm/lib/eabi_compat.o

.debug_str      0x00000000    0x231d1
 .debug_str     0x00000000      0x223 arch/arm/cpu/armv7/sun7i/spare_head.o
                                0x2ba (size before relaxing)
 .debug_str     0x00000223      0xbe0 board/sunxi/sun7i/standby/libstandby.o
                               0x1b11 (size before relaxing)
 .debug_str     0x00000e03      0x37e arch/arm/cpu/armv7/libarmv7.o
                                0x6e3 (size before relaxing)
 .debug_str     0x00001181     0x2701 arch/arm/cpu/armv7/sun7i/libsun7i.o
                               0x3cff (size before relaxing)
 .debug_str     0x00003882      0x81c arch/arm/lib/libarm.o
                               0x1c03 (size before relaxing)
 .debug_str     0x0000409e     0x3314 common/libcommon.o
                               0x9f7e (size before relaxing)
 .debug_str     0x000073b2      0x269 disk/libdisk.o
                                0x8a0 (size before relaxing)
 .debug_str     0x0000761b      0x406 drivers/dma/libdma.o
                                0x54f (size before relaxing)
 .debug_str     0x00007a21       0xa1 drivers/i2c/libi2c.o
                                0x5d2 (size before relaxing)
 .debug_str     0x00007ac2      0x556 drivers/mmc/libmmc.o
                                0xd8b (size before relaxing)
 .debug_str     0x00008018       0x79 drivers/pcmcia/libpcmcia.o
                                0x22b (size before relaxing)
 .debug_str     0x00008091      0x822 drivers/power/libpower.o
                               0x1202 (size before relaxing)
 .debug_str     0x000088b3      0x1b6 drivers/pwm/libsunxi_pwm.o
                                0x2db (size before relaxing)
 .debug_str     0x00008a69      0x1c2 drivers/rtc/librtc.o
                                0x38e (size before relaxing)
 .debug_str     0x00008c2b      0x257 drivers/serial/libserial.o
                                0x9d1 (size before relaxing)
 .debug_str     0x00008e82      0x614 drivers/storage_type/libstorage_type.o
                                0xb30 (size before relaxing)
 .debug_str     0x00009496     0xfd8e drivers/video_sun7i/libvideo_sunxi.o
                              0x32c7e (size before relaxing)
 .debug_str     0x00019224      0x5a6 fs/aw_fs/libawfat.o
                                0x8a0 (size before relaxing)
 .debug_str     0x000197ca      0x6ed fs/fat/libfat.o
                               0x1090 (size before relaxing)
 .debug_str     0x00019eb7      0x62f lib/libgeneric.o
                               0x19bc (size before relaxing)
 .debug_str     0x0001a4e6      0x2fb lib/zlib/libz.o
                                0x5af (size before relaxing)
 .debug_str     0x0001a7e1      0x88f nand_sunxi/nand_interface/libnand_interface.o
                                0xf75 (size before relaxing)
 .debug_str     0x0001b070      0xb1b nand_sunxi/sun7i/libnand-sun7i(nftl_uboot_interface.o)
                               0x102f (size before relaxing)
 .debug_str     0x0001bb8b      0x42a nand_sunxi/sun7i/libnand-sun7i(nand_format.o)
                                0x911 (size before relaxing)
 .debug_str     0x0001bfb5      0x4e8 nand_sunxi/sun7i/libnand-sun7i(nand_phy.o)
                                0x9f1 (size before relaxing)
 .debug_str     0x0001c49d      0x10c nand_sunxi/sun7i/libnand-sun7i(nand_physic_interface.o)
                                0x70f (size before relaxing)
 .debug_str     0x0001c5a9      0x46c nand_sunxi/sun7i/libnand-sun7i(nand_scan.o)
                                0x912 (size before relaxing)
 .debug_str     0x0001ca15      0x2d2 nand_sunxi/sun7i/libnand-sun7i(nand_simple_r.o)
                                0x836 (size before relaxing)
 .debug_str     0x0001cce7      0x154 nand_sunxi/sun7i/libnand-sun7i(nand_simple_w.o)
                                0x565 (size before relaxing)
 .debug_str     0x0001ce3b      0x896 nand_sunxi/sun7i/libnand-sun7i(nfc_r.o)
                                0xc1d (size before relaxing)
 .debug_str     0x0001d6d1      0x2a0 nand_sunxi/sun7i/libnand-sun7i(nfc_w.o)
                                0x545 (size before relaxing)
 .debug_str     0x0001d971       0x64 nand_sunxi/sun7i/libnand-sun7i(build_nand_partition.o)
                                0x5fd (size before relaxing)
 .debug_str     0x0001d9d5      0x172 nand_sunxi/sun7i/libnand-sun7i(build_phy_partition.o)
                                0x641 (size before relaxing)
 .debug_str     0x0001db47      0x150 nand_sunxi/sun7i/libnand-sun7i(nand_info_init.o)
                                0x63f (size before relaxing)
 .debug_str     0x0001dc97       0x69 nand_sunxi/sun7i/libnand-sun7i(nftl_init.o)
                               0x1054 (size before relaxing)
 .debug_str     0x0001dd00       0xd6 nand_sunxi/sun7i/libnand-sun7i(nand_id.o)
                                0x3ed (size before relaxing)
 .debug_str     0x0001ddd6      0x1a4 nand_sunxi/sun7i/libnand-sun7i(nftl_cache.o)
                                0xd06 (size before relaxing)
 .debug_str     0x0001df7a      0x146 nand_sunxi/sun7i/libnand-sun7i(nftl_sector_cache.o)
                                0xc88 (size before relaxing)
 .debug_str     0x0001e0c0       0xdd nand_sunxi/sun7i/libnand-sun7i(nftl_start.o)
                                0xc2b (size before relaxing)
 .debug_str     0x0001e19d       0xa4 nand_sunxi/sun7i/libnand-sun7i(nftl_interface.o)
                                0xb26 (size before relaxing)
 .debug_str     0x0001e241      0x1fe nand_sunxi/sun7i/libnand-sun7i(nftl_logic.o)
                                0xd74 (size before relaxing)
 .debug_str     0x0001e43f      0x12f nand_sunxi/sun7i/libnand-sun7i(nftl_gc.o)
                                0xccf (size before relaxing)
 .debug_str     0x0001e56e      0x244 nand_sunxi/sun7i/libnand-sun7i(nftl_common.o)
                                0xde9 (size before relaxing)
 .debug_str     0x0001e7b2      0x33d nand_sunxi/sun7i/libnand-sun7i(nftl_build.o)
                                0xf33 (size before relaxing)
 .debug_str     0x0001eaef       0x9b nand_sunxi/sun7i/libnand-sun7i(nftl_hw_interface.o)
                                0xf5c (size before relaxing)
 .debug_str     0x0001eb8a      0x2a8 nand_sunxi/sun7i/libnand-sun7i(nftl_list.o)
                                0xdf2 (size before relaxing)
 .debug_str     0x0001ee32      0x3c9 nand_sunxi/sun7i/osal/libnand_osal.o
                                0x608 (size before relaxing)
 .debug_str     0x0001f1fb     0x109b sprite/libsprite.o
                               0x2fb9 (size before relaxing)
 .debug_str     0x00020296     0x142c usb_sunxi/libsunxi_usb.o
                               0x341b (size before relaxing)
 .debug_str     0x000216c2       0xc4 board/sunxi/sun7i/libsun7i.o
                                0x579 (size before relaxing)
 .debug_str     0x00021786     0x1a19 board/sunxi/libsunxi.o
                               0x7e7b (size before relaxing)
 .debug_str     0x0002319f       0x32 /mnt/hdd1/ccfrom/A20_Tablet/A20_Tablet_repo_cut/lichee/brandy/u-boot-2011.09/arch/arm/lib/eabi_compat.o
                                0x137 (size before relaxing)

.comment        0x00000000       0x64
 .comment       0x00000000       0x64 arch/arm/cpu/armv7/sun7i/spare_head.o
                                 0x65 (size before relaxing)
 .comment       0x00000000      0x3f2 board/sunxi/sun7i/standby/libstandby.o
 .comment       0x00000000      0x12f arch/arm/cpu/armv7/libarmv7.o
 .comment       0x00000000      0x457 arch/arm/cpu/armv7/sun7i/libsun7i.o
 .comment       0x00000000      0x25e arch/arm/lib/libarm.o
 .comment       0x00000000      0xf63 common/libcommon.o
 .comment       0x00000000       0xca disk/libdisk.o
 .comment       0x00000000       0x65 drivers/dma/libdma.o
 .comment       0x00000000       0x65 drivers/i2c/libi2c.o
 .comment       0x00000000       0xca drivers/mmc/libmmc.o
 .comment       0x00000000       0xca drivers/pcmcia/libpcmcia.o
 .comment       0x00000000      0x12f drivers/power/libpower.o
 .comment       0x00000000       0x65 drivers/pwm/libsunxi_pwm.o
 .comment       0x00000000       0xca drivers/rtc/librtc.o
 .comment       0x00000000       0xca drivers/serial/libserial.o
 .comment       0x00000000       0x65 drivers/storage_type/libstorage_type.o
 .comment       0x00000000     0x13ba drivers/video_sun7i/libvideo_sunxi.o
 .comment       0x00000000       0xca fs/aw_fs/libawfat.o
 .comment       0x00000000      0x12f fs/fat/libfat.o
 .comment       0x00000000      0x6b5 lib/libgeneric.o
 .comment       0x00000000       0x65 lib/zlib/libz.o
 .comment       0x00000000      0x12f nand_sunxi/nand_interface/libnand_interface.o
 .comment       0x00000000       0x65 nand_sunxi/sun7i/libnand-sun7i(nftl_uboot_interface.o)
 .comment       0x00000000       0x65 nand_sunxi/sun7i/libnand-sun7i(nand_format.o)
 .comment       0x00000000       0x65 nand_sunxi/sun7i/libnand-sun7i(nand_phy.o)
 .comment       0x00000000       0x65 nand_sunxi/sun7i/libnand-sun7i(nand_physic_interface.o)
 .comment       0x00000000       0x65 nand_sunxi/sun7i/libnand-sun7i(nand_scan.o)
 .comment       0x00000000       0x65 nand_sunxi/sun7i/libnand-sun7i(nand_simple_r.o)
 .comment       0x00000000       0x65 nand_sunxi/sun7i/libnand-sun7i(nand_simple_w.o)
 .comment       0x00000000       0x65 nand_sunxi/sun7i/libnand-sun7i(nfc_r.o)
 .comment       0x00000000       0x65 nand_sunxi/sun7i/libnand-sun7i(nfc_w.o)
 .comment       0x00000000       0x65 nand_sunxi/sun7i/libnand-sun7i(build_nand_partition.o)
 .comment       0x00000000       0x65 nand_sunxi/sun7i/libnand-sun7i(build_phy_partition.o)
 .comment       0x00000000       0x65 nand_sunxi/sun7i/libnand-sun7i(nand_info_init.o)
 .comment       0x00000000       0x65 nand_sunxi/sun7i/libnand-sun7i(nftl_init.o)
 .comment       0x00000000       0x65 nand_sunxi/sun7i/libnand-sun7i(nand_id.o)
 .comment       0x00000000       0x65 nand_sunxi/sun7i/libnand-sun7i(nftl_cache.o)
 .comment       0x00000000       0x65 nand_sunxi/sun7i/libnand-sun7i(nftl_sector_cache.o)
 .comment       0x00000000       0x65 nand_sunxi/sun7i/libnand-sun7i(nftl_start.o)
 .comment       0x00000000       0x65 nand_sunxi/sun7i/libnand-sun7i(nftl_interface.o)
 .comment       0x00000000       0x65 nand_sunxi/sun7i/libnand-sun7i(nftl_logic.o)
 .comment       0x00000000       0x65 nand_sunxi/sun7i/libnand-sun7i(nftl_gc.o)
 .comment       0x00000000       0x65 nand_sunxi/sun7i/libnand-sun7i(nftl_common.o)
 .comment       0x00000000       0x65 nand_sunxi/sun7i/libnand-sun7i(nftl_build.o)
 .comment       0x00000000       0x65 nand_sunxi/sun7i/libnand-sun7i(nftl_hw_interface.o)
 .comment       0x00000000       0x65 nand_sunxi/sun7i/libnand-sun7i(nftl_list.o)
 .comment       0x00000000       0x65 nand_sunxi/sun7i/osal/libnand_osal.o
 .comment       0x00000000      0x5eb sprite/libsprite.o
 .comment       0x00000000      0x25e usb_sunxi/libsunxi_usb.o
 .comment       0x00000000       0x65 board/sunxi/sun7i/libsun7i.o
 .comment       0x00000000      0x586 board/sunxi/libsunxi.o
 .comment       0x00000000       0x65 /mnt/hdd1/ccfrom/A20_Tablet/A20_Tablet_repo_cut/lichee/brandy/u-boot-2011.09/arch/arm/lib/eabi_compat.o

.note.GNU-stack
                0x00000000        0x0
 .note.GNU-stack
                0x00000000        0x0 arch/arm/cpu/armv7/sun7i/spare_head.o
 .note.GNU-stack
                0x00000000        0x0 board/sunxi/sun7i/standby/libstandby.o
 .note.GNU-stack
                0x00000000        0x0 arch/arm/cpu/armv7/libarmv7.o
 .note.GNU-stack
                0x00000000        0x0 arch/arm/cpu/armv7/sun7i/libsun7i.o
 .note.GNU-stack
                0x00000000        0x0 arch/arm/lib/libarm.o
 .note.GNU-stack
                0x00000000        0x0 common/libcommon.o
 .note.GNU-stack
                0x00000000        0x0 disk/libdisk.o
 .note.GNU-stack
                0x00000000        0x0 drivers/dma/libdma.o
 .note.GNU-stack
                0x00000000        0x0 drivers/i2c/libi2c.o
 .note.GNU-stack
                0x00000000        0x0 drivers/mmc/libmmc.o
 .note.GNU-stack
                0x00000000        0x0 drivers/pcmcia/libpcmcia.o
 .note.GNU-stack
                0x00000000        0x0 drivers/power/libpower.o
 .note.GNU-stack
                0x00000000        0x0 drivers/pwm/libsunxi_pwm.o
 .note.GNU-stack
                0x00000000        0x0 drivers/rtc/librtc.o
 .note.GNU-stack
                0x00000000        0x0 drivers/serial/libserial.o
 .note.GNU-stack
                0x00000000        0x0 drivers/storage_type/libstorage_type.o
 .note.GNU-stack
                0x00000000        0x0 drivers/video_sun7i/libvideo_sunxi.o
 .note.GNU-stack
                0x00000000        0x0 fs/aw_fs/libawfat.o
 .note.GNU-stack
                0x00000000        0x0 fs/fat/libfat.o
 .note.GNU-stack
                0x00000000        0x0 lib/libgeneric.o
 .note.GNU-stack
                0x00000000        0x0 lib/zlib/libz.o
 .note.GNU-stack
                0x00000000        0x0 nand_sunxi/nand_interface/libnand_interface.o
 .note.GNU-stack
                0x00000000        0x0 nand_sunxi/sun7i/libnand-sun7i(nftl_uboot_interface.o)
 .note.GNU-stack
                0x00000000        0x0 nand_sunxi/sun7i/libnand-sun7i(nand_format.o)
 .note.GNU-stack
                0x00000000        0x0 nand_sunxi/sun7i/libnand-sun7i(nand_phy.o)
 .note.GNU-stack
                0x00000000        0x0 nand_sunxi/sun7i/libnand-sun7i(nand_physic_interface.o)
 .note.GNU-stack
                0x00000000        0x0 nand_sunxi/sun7i/libnand-sun7i(nand_scan.o)
 .note.GNU-stack
                0x00000000        0x0 nand_sunxi/sun7i/libnand-sun7i(nand_simple_r.o)
 .note.GNU-stack
                0x00000000        0x0 nand_sunxi/sun7i/libnand-sun7i(nand_simple_w.o)
 .note.GNU-stack
                0x00000000        0x0 nand_sunxi/sun7i/libnand-sun7i(nfc_r.o)
 .note.GNU-stack
                0x00000000        0x0 nand_sunxi/sun7i/libnand-sun7i(nfc_w.o)
 .note.GNU-stack
                0x00000000        0x0 nand_sunxi/sun7i/libnand-sun7i(build_nand_partition.o)
 .note.GNU-stack
                0x00000000        0x0 nand_sunxi/sun7i/libnand-sun7i(build_phy_partition.o)
 .note.GNU-stack
                0x00000000        0x0 nand_sunxi/sun7i/libnand-sun7i(nand_info_init.o)
 .note.GNU-stack
                0x00000000        0x0 nand_sunxi/sun7i/libnand-sun7i(nftl_init.o)
 .note.GNU-stack
                0x00000000        0x0 nand_sunxi/sun7i/libnand-sun7i(nand_id.o)
 .note.GNU-stack
                0x00000000        0x0 nand_sunxi/sun7i/libnand-sun7i(nftl_cache.o)
 .note.GNU-stack
                0x00000000        0x0 nand_sunxi/sun7i/libnand-sun7i(nftl_sector_cache.o)
 .note.GNU-stack
                0x00000000        0x0 nand_sunxi/sun7i/libnand-sun7i(nftl_start.o)
 .note.GNU-stack
                0x00000000        0x0 nand_sunxi/sun7i/libnand-sun7i(nftl_interface.o)
 .note.GNU-stack
                0x00000000        0x0 nand_sunxi/sun7i/libnand-sun7i(nftl_logic.o)
 .note.GNU-stack
                0x00000000        0x0 nand_sunxi/sun7i/libnand-sun7i(nftl_gc.o)
 .note.GNU-stack
                0x00000000        0x0 nand_sunxi/sun7i/libnand-sun7i(nftl_common.o)
 .note.GNU-stack
                0x00000000        0x0 nand_sunxi/sun7i/libnand-sun7i(nftl_build.o)
 .note.GNU-stack
                0x00000000        0x0 nand_sunxi/sun7i/libnand-sun7i(nftl_hw_interface.o)
 .note.GNU-stack
                0x00000000        0x0 nand_sunxi/sun7i/libnand-sun7i(nftl_list.o)
 .note.GNU-stack
                0x00000000        0x0 nand_sunxi/sun7i/osal/libnand_osal.o
 .note.GNU-stack
                0x00000000        0x0 sprite/libsprite.o
 .note.GNU-stack
                0x00000000        0x0 usb_sunxi/libsunxi_usb.o
 .note.GNU-stack
                0x00000000        0x0 board/sunxi/sun7i/libsun7i.o
 .note.GNU-stack
                0x00000000        0x0 board/sunxi/libsunxi.o
 .note.GNU-stack
                0x00000000        0x0 /mnt/hdd1/ccfrom/A20_Tablet/A20_Tablet_repo_cut/lichee/brandy/u-boot-2011.09/arch/arm/lib/eabi_compat.o
 .note.GNU-stack
                0x00000000        0x0 /mnt/hdd1/ccfrom/A20_Tablet/A20_Tablet_repo_cut/lichee/brandy/gcc-linaro/bin/../lib/gcc/arm-linux-gnueabi/4.6.3/libgcc.a(_lshrdi3.o)
 .note.GNU-stack
                0x00000000        0x0 /mnt/hdd1/ccfrom/A20_Tablet/A20_Tablet_repo_cut/lichee/brandy/gcc-linaro/bin/../lib/gcc/arm-linux-gnueabi/4.6.3/libgcc.a(_ashrdi3.o)
 .note.GNU-stack
                0x00000000        0x0 /mnt/hdd1/ccfrom/A20_Tablet/A20_Tablet_repo_cut/lichee/brandy/gcc-linaro/bin/../lib/gcc/arm-linux-gnueabi/4.6.3/libgcc.a(_ashldi3.o)
 .note.GNU-stack
                0x00000000        0x0 /mnt/hdd1/ccfrom/A20_Tablet/A20_Tablet_repo_cut/lichee/brandy/gcc-linaro/bin/../lib/gcc/arm-linux-gnueabi/4.6.3/libgcc.a(_arm_addsubdf3.o)
 .note.GNU-stack
                0x00000000        0x0 /mnt/hdd1/ccfrom/A20_Tablet/A20_Tablet_repo_cut/lichee/brandy/gcc-linaro/bin/../lib/gcc/arm-linux-gnueabi/4.6.3/libgcc.a(_arm_muldivdf3.o)
 .note.GNU-stack
                0x00000000        0x0 /mnt/hdd1/ccfrom/A20_Tablet/A20_Tablet_repo_cut/lichee/brandy/gcc-linaro/bin/../lib/gcc/arm-linux-gnueabi/4.6.3/libgcc.a(_arm_fixdfsi.o)
 .note.GNU-stack
                0x00000000        0x0 /mnt/hdd1/ccfrom/A20_Tablet/A20_Tablet_repo_cut/lichee/brandy/gcc-linaro/bin/../lib/gcc/arm-linux-gnueabi/4.6.3/libgcc.a(_arm_truncdfsf2.o)
 .note.GNU-stack
                0x00000000        0x0 /mnt/hdd1/ccfrom/A20_Tablet/A20_Tablet_repo_cut/lichee/brandy/gcc-linaro/bin/../lib/gcc/arm-linux-gnueabi/4.6.3/libgcc.a(_arm_addsubsf3.o)
 .note.GNU-stack
                0x00000000        0x0 /mnt/hdd1/ccfrom/A20_Tablet/A20_Tablet_repo_cut/lichee/brandy/gcc-linaro/bin/../lib/gcc/arm-linux-gnueabi/4.6.3/libgcc.a(_arm_muldivsf3.o)
 .note.GNU-stack
                0x00000000        0x0 /mnt/hdd1/ccfrom/A20_Tablet/A20_Tablet_repo_cut/lichee/brandy/gcc-linaro/bin/../lib/gcc/arm-linux-gnueabi/4.6.3/libgcc.a(_arm_fixsfsi.o)

.ARM.attributes
                0x00000000       0x3d
 .ARM.attributes
                0x00000000       0x3b arch/arm/cpu/armv7/sun7i/spare_head.o
 .ARM.attributes
                0x0000003b       0x2d arch/arm/cpu/armv7/start.o
 .ARM.attributes
                0x00000068       0x3d board/sunxi/sun7i/standby/libstandby.o
 .ARM.attributes
                0x000000a5       0x3b arch/arm/cpu/armv7/libarmv7.o
 .ARM.attributes
                0x000000e0       0x3d arch/arm/cpu/armv7/sun7i/libsun7i.o
 .ARM.attributes
                0x0000011d       0x3b arch/arm/lib/libarm.o
 .ARM.attributes
                0x00000158       0x3b common/libcommon.o
 .ARM.attributes
                0x00000193       0x3b disk/libdisk.o
 .ARM.attributes
                0x000001ce       0x3b drivers/dma/libdma.o
 .ARM.attributes
                0x00000209       0x3b drivers/i2c/libi2c.o
 .ARM.attributes
                0x00000244       0x3b drivers/mmc/libmmc.o
 .ARM.attributes
                0x0000027f       0x3b drivers/pcmcia/libpcmcia.o
 .ARM.attributes
                0x000002ba       0x3b drivers/power/libpower.o
 .ARM.attributes
                0x000002f5       0x3b drivers/pwm/libsunxi_pwm.o
 .ARM.attributes
                0x00000330       0x3b drivers/rtc/librtc.o
 .ARM.attributes
                0x0000036b       0x3b drivers/serial/libserial.o
 .ARM.attributes
                0x000003a6       0x3b drivers/storage_type/libstorage_type.o
 .ARM.attributes
                0x000003e1       0x3b drivers/video_sun7i/libvideo_sunxi.o
 .ARM.attributes
                0x0000041c       0x3b fs/aw_fs/libawfat.o
 .ARM.attributes
                0x00000457       0x3b fs/fat/libfat.o
 .ARM.attributes
                0x00000492       0x3b lib/libgeneric.o
 .ARM.attributes
                0x000004cd       0x3b lib/zlib/libz.o
 .ARM.attributes
                0x00000508       0x3b nand_sunxi/nand_interface/libnand_interface.o
 .ARM.attributes
                0x00000543       0x3b nand_sunxi/sun7i/libnand-sun7i(nftl_uboot_interface.o)
 .ARM.attributes
                0x0000057e       0x3b nand_sunxi/sun7i/libnand-sun7i(nand_format.o)
 .ARM.attributes
                0x000005b9       0x3b nand_sunxi/sun7i/libnand-sun7i(nand_phy.o)
 .ARM.attributes
                0x000005f4       0x3b nand_sunxi/sun7i/libnand-sun7i(nand_physic_interface.o)
 .ARM.attributes
                0x0000062f       0x3b nand_sunxi/sun7i/libnand-sun7i(nand_scan.o)
 .ARM.attributes
                0x0000066a       0x3b nand_sunxi/sun7i/libnand-sun7i(nand_simple_r.o)
 .ARM.attributes
                0x000006a5       0x3b nand_sunxi/sun7i/libnand-sun7i(nand_simple_w.o)
 .ARM.attributes
                0x000006e0       0x3b nand_sunxi/sun7i/libnand-sun7i(nfc_r.o)
 .ARM.attributes
                0x0000071b       0x3b nand_sunxi/sun7i/libnand-sun7i(nfc_w.o)
 .ARM.attributes
                0x00000756       0x3b nand_sunxi/sun7i/libnand-sun7i(build_nand_partition.o)
 .ARM.attributes
                0x00000791       0x3b nand_sunxi/sun7i/libnand-sun7i(build_phy_partition.o)
 .ARM.attributes
                0x000007cc       0x3b nand_sunxi/sun7i/libnand-sun7i(nand_info_init.o)
 .ARM.attributes
                0x00000807       0x3b nand_sunxi/sun7i/libnand-sun7i(nftl_init.o)
 .ARM.attributes
                0x00000842       0x3b nand_sunxi/sun7i/libnand-sun7i(nand_id.o)
 .ARM.attributes
                0x0000087d       0x3b nand_sunxi/sun7i/libnand-sun7i(nftl_cache.o)
 .ARM.attributes
                0x000008b8       0x3b nand_sunxi/sun7i/libnand-sun7i(nftl_sector_cache.o)
 .ARM.attributes
                0x000008f3       0x3b nand_sunxi/sun7i/libnand-sun7i(nftl_start.o)
 .ARM.attributes
                0x0000092e       0x3b nand_sunxi/sun7i/libnand-sun7i(nftl_interface.o)
 .ARM.attributes
                0x00000969       0x3b nand_sunxi/sun7i/libnand-sun7i(nftl_logic.o)
 .ARM.attributes
                0x000009a4       0x3b nand_sunxi/sun7i/libnand-sun7i(nftl_gc.o)
 .ARM.attributes
                0x000009df       0x3b nand_sunxi/sun7i/libnand-sun7i(nftl_common.o)
 .ARM.attributes
                0x00000a1a       0x3b nand_sunxi/sun7i/libnand-sun7i(nftl_build.o)
 .ARM.attributes
                0x00000a55       0x3b nand_sunxi/sun7i/libnand-sun7i(nftl_hw_interface.o)
 .ARM.attributes
                0x00000a90       0x3b nand_sunxi/sun7i/libnand-sun7i(nftl_list.o)
 .ARM.attributes
                0x00000acb       0x3b nand_sunxi/sun7i/osal/libnand_osal.o
 .ARM.attributes
                0x00000b06       0x3b sprite/libsprite.o
 .ARM.attributes
                0x00000b41       0x3b usb_sunxi/libsunxi_usb.o
 .ARM.attributes
                0x00000b7c       0x3b board/sunxi/sun7i/libsun7i.o
 .ARM.attributes
                0x00000bb7       0x3b board/sunxi/libsunxi.o
 .ARM.attributes
                0x00000bf2       0x3b /mnt/hdd1/ccfrom/A20_Tablet/A20_Tablet_repo_cut/lichee/brandy/u-boot-2011.09/arch/arm/lib/eabi_compat.o
 .ARM.attributes
                0x00000c2d       0x23 /mnt/hdd1/ccfrom/A20_Tablet/A20_Tablet_repo_cut/lichee/brandy/gcc-linaro/bin/../lib/gcc/arm-linux-gnueabi/4.6.3/libgcc.a(_lshrdi3.o)
 .ARM.attributes
                0x00000c50       0x23 /mnt/hdd1/ccfrom/A20_Tablet/A20_Tablet_repo_cut/lichee/brandy/gcc-linaro/bin/../lib/gcc/arm-linux-gnueabi/4.6.3/libgcc.a(_ashrdi3.o)
 .ARM.attributes
                0x00000c73       0x23 /mnt/hdd1/ccfrom/A20_Tablet/A20_Tablet_repo_cut/lichee/brandy/gcc-linaro/bin/../lib/gcc/arm-linux-gnueabi/4.6.3/libgcc.a(_ashldi3.o)
 .ARM.attributes
                0x00000c96       0x23 /mnt/hdd1/ccfrom/A20_Tablet/A20_Tablet_repo_cut/lichee/brandy/gcc-linaro/bin/../lib/gcc/arm-linux-gnueabi/4.6.3/libgcc.a(_arm_addsubdf3.o)
 .ARM.attributes
                0x00000cb9       0x23 /mnt/hdd1/ccfrom/A20_Tablet/A20_Tablet_repo_cut/lichee/brandy/gcc-linaro/bin/../lib/gcc/arm-linux-gnueabi/4.6.3/libgcc.a(_arm_muldivdf3.o)
 .ARM.attributes
                0x00000cdc       0x23 /mnt/hdd1/ccfrom/A20_Tablet/A20_Tablet_repo_cut/lichee/brandy/gcc-linaro/bin/../lib/gcc/arm-linux-gnueabi/4.6.3/libgcc.a(_arm_fixdfsi.o)
 .ARM.attributes
                0x00000cff       0x23 /mnt/hdd1/ccfrom/A20_Tablet/A20_Tablet_repo_cut/lichee/brandy/gcc-linaro/bin/../lib/gcc/arm-linux-gnueabi/4.6.3/libgcc.a(_arm_truncdfsf2.o)
 .ARM.attributes
                0x00000d22       0x23 /mnt/hdd1/ccfrom/A20_Tablet/A20_Tablet_repo_cut/lichee/brandy/gcc-linaro/bin/../lib/gcc/arm-linux-gnueabi/4.6.3/libgcc.a(_arm_addsubsf3.o)
 .ARM.attributes
                0x00000d45       0x23 /mnt/hdd1/ccfrom/A20_Tablet/A20_Tablet_repo_cut/lichee/brandy/gcc-linaro/bin/../lib/gcc/arm-linux-gnueabi/4.6.3/libgcc.a(_arm_muldivsf3.o)
 .ARM.attributes
                0x00000d68       0x23 /mnt/hdd1/ccfrom/A20_Tablet/A20_Tablet_repo_cut/lichee/brandy/gcc-linaro/bin/../lib/gcc/arm-linux-gnueabi/4.6.3/libgcc.a(_arm_fixsfsi.o)

.debug_aranges  0x00000000     0x1b20
 .debug_aranges
                0x00000000       0x20 arch/arm/cpu/armv7/start.o
 .debug_aranges
                0x00000020      0x140 board/sunxi/sun7i/standby/libstandby.o
 .debug_aranges
                0x00000160       0x60 arch/arm/cpu/armv7/libarmv7.o
 .debug_aranges
                0x000001c0      0x180 arch/arm/cpu/armv7/sun7i/libsun7i.o
 .debug_aranges
                0x00000340      0x100 arch/arm/lib/libarm.o
 .debug_aranges
                0x00000440      0x480 common/libcommon.o
 .debug_aranges
                0x000008c0       0x40 disk/libdisk.o
 .debug_aranges
                0x00000900       0x20 drivers/dma/libdma.o
 .debug_aranges
                0x00000920       0x20 drivers/i2c/libi2c.o
 .debug_aranges
                0x00000940       0x40 drivers/mmc/libmmc.o
 .debug_aranges
                0x00000980       0x60 drivers/power/libpower.o
 .debug_aranges
                0x000009e0       0x20 drivers/pwm/libsunxi_pwm.o
 .debug_aranges
                0x00000a00       0x20 drivers/rtc/librtc.o
 .debug_aranges
                0x00000a20       0x40 drivers/serial/libserial.o
 .debug_aranges
                0x00000a60       0x20 drivers/storage_type/libstorage_type.o
 .debug_aranges
                0x00000a80      0x600 drivers/video_sun7i/libvideo_sunxi.o
 .debug_aranges
                0x00001080       0x40 fs/aw_fs/libawfat.o
 .debug_aranges
                0x000010c0       0x60 fs/fat/libfat.o
 .debug_aranges
                0x00001120      0x1e0 lib/libgeneric.o
 .debug_aranges
                0x00001300       0x20 lib/zlib/libz.o
 .debug_aranges
                0x00001320       0x60 nand_sunxi/nand_interface/libnand_interface.o
 .debug_aranges
                0x00001380       0x20 nand_sunxi/sun7i/libnand-sun7i(nftl_uboot_interface.o)
 .debug_aranges
                0x000013a0       0x20 nand_sunxi/sun7i/libnand-sun7i(nand_format.o)
 .debug_aranges
                0x000013c0       0x20 nand_sunxi/sun7i/libnand-sun7i(nand_phy.o)
 .debug_aranges
                0x000013e0       0x20 nand_sunxi/sun7i/libnand-sun7i(nand_physic_interface.o)
 .debug_aranges
                0x00001400       0x20 nand_sunxi/sun7i/libnand-sun7i(nand_scan.o)
 .debug_aranges
                0x00001420       0x20 nand_sunxi/sun7i/libnand-sun7i(nand_simple_r.o)
 .debug_aranges
                0x00001440       0x20 nand_sunxi/sun7i/libnand-sun7i(nand_simple_w.o)
 .debug_aranges
                0x00001460       0x20 nand_sunxi/sun7i/libnand-sun7i(nfc_r.o)
 .debug_aranges
                0x00001480       0x20 nand_sunxi/sun7i/libnand-sun7i(nfc_w.o)
 .debug_aranges
                0x000014a0       0x20 nand_sunxi/sun7i/libnand-sun7i(build_nand_partition.o)
 .debug_aranges
                0x000014c0       0x20 nand_sunxi/sun7i/libnand-sun7i(build_phy_partition.o)
 .debug_aranges
                0x000014e0       0x20 nand_sunxi/sun7i/libnand-sun7i(nand_info_init.o)
 .debug_aranges
                0x00001500       0x20 nand_sunxi/sun7i/libnand-sun7i(nftl_init.o)
 .debug_aranges
                0x00001520       0x20 nand_sunxi/sun7i/libnand-sun7i(nftl_cache.o)
 .debug_aranges
                0x00001540       0x20 nand_sunxi/sun7i/libnand-sun7i(nftl_sector_cache.o)
 .debug_aranges
                0x00001560       0x20 nand_sunxi/sun7i/libnand-sun7i(nftl_start.o)
 .debug_aranges
                0x00001580       0x20 nand_sunxi/sun7i/libnand-sun7i(nftl_interface.o)
 .debug_aranges
                0x000015a0       0x20 nand_sunxi/sun7i/libnand-sun7i(nftl_logic.o)
 .debug_aranges
                0x000015c0       0x20 nand_sunxi/sun7i/libnand-sun7i(nftl_gc.o)
 .debug_aranges
                0x000015e0       0x20 nand_sunxi/sun7i/libnand-sun7i(nftl_common.o)
 .debug_aranges
                0x00001600       0x20 nand_sunxi/sun7i/libnand-sun7i(nftl_build.o)
 .debug_aranges
                0x00001620       0x20 nand_sunxi/sun7i/libnand-sun7i(nftl_hw_interface.o)
 .debug_aranges
                0x00001640       0x20 nand_sunxi/sun7i/libnand-sun7i(nftl_list.o)
 .debug_aranges
                0x00001660       0x20 nand_sunxi/sun7i/osal/libnand_osal.o
 .debug_aranges
                0x00001680      0x1e0 sprite/libsprite.o
 .debug_aranges
                0x00001860       0xc0 usb_sunxi/libsunxi_usb.o
 .debug_aranges
                0x00001920       0x20 board/sunxi/sun7i/libsun7i.o
 .debug_aranges
                0x00001940      0x1c0 board/sunxi/libsunxi.o
 .debug_aranges
                0x00001b00       0x20 /mnt/hdd1/ccfrom/A20_Tablet/A20_Tablet_repo_cut/lichee/brandy/u-boot-2011.09/arch/arm/lib/eabi_compat.o

.debug_frame    0x00000000    0x10648
 .debug_frame   0x00000000      0x5ac board/sunxi/sun7i/standby/libstandby.o
 .debug_frame   0x000005ac      0x218 arch/arm/cpu/armv7/libarmv7.o
 .debug_frame   0x000007c4      0xe1c arch/arm/cpu/armv7/sun7i/libsun7i.o
 .debug_frame   0x000015e0      0x45c arch/arm/lib/libarm.o
 .debug_frame   0x00001a3c     0x1c98 common/libcommon.o
 .debug_frame   0x000036d4      0x168 disk/libdisk.o
 .debug_frame   0x0000383c      0x14c drivers/dma/libdma.o
 .debug_frame   0x00003988       0xc4 drivers/i2c/libi2c.o
 .debug_frame   0x00003a4c      0x488 drivers/mmc/libmmc.o
 .debug_frame   0x00003ed4      0x688 drivers/power/libpower.o
 .debug_frame   0x0000455c       0xdc drivers/pwm/libsunxi_pwm.o
 .debug_frame   0x00004638       0x50 drivers/rtc/librtc.o
 .debug_frame   0x00004688      0x180 drivers/serial/libserial.o
 .debug_frame   0x00004808      0x418 drivers/storage_type/libstorage_type.o
 .debug_frame   0x00004c20     0x52c4 drivers/video_sun7i/libvideo_sunxi.o
 .debug_frame   0x00009ee4      0x550 fs/aw_fs/libawfat.o
 .debug_frame   0x0000a434      0x3c0 fs/fat/libfat.o
 .debug_frame   0x0000a7f4      0x8b4 lib/libgeneric.o
 .debug_frame   0x0000b0a8      0x118 lib/zlib/libz.o
 .debug_frame   0x0000b1c0      0x514 nand_sunxi/nand_interface/libnand_interface.o
 .debug_frame   0x0000b6d4      0x108 nand_sunxi/sun7i/libnand-sun7i(nftl_uboot_interface.o)
 .debug_frame   0x0000b7dc      0x1d0 nand_sunxi/sun7i/libnand-sun7i(nand_format.o)
 .debug_frame   0x0000b9ac      0x38c nand_sunxi/sun7i/libnand-sun7i(nand_phy.o)
 .debug_frame   0x0000bd38       0xf8 nand_sunxi/sun7i/libnand-sun7i(nand_physic_interface.o)
 .debug_frame   0x0000be30      0x274 nand_sunxi/sun7i/libnand-sun7i(nand_scan.o)
 .debug_frame   0x0000c0a4      0x3c0 nand_sunxi/sun7i/libnand-sun7i(nand_simple_r.o)
 .debug_frame   0x0000c464      0x1ec nand_sunxi/sun7i/libnand-sun7i(nand_simple_w.o)
 .debug_frame   0x0000c650      0x6c0 nand_sunxi/sun7i/libnand-sun7i(nfc_r.o)
 .debug_frame   0x0000cd10      0x338 nand_sunxi/sun7i/libnand-sun7i(nfc_w.o)
 .debug_frame   0x0000d048       0xe0 nand_sunxi/sun7i/libnand-sun7i(build_nand_partition.o)
 .debug_frame   0x0000d128      0x1e0 nand_sunxi/sun7i/libnand-sun7i(build_phy_partition.o)
 .debug_frame   0x0000d308      0x1a4 nand_sunxi/sun7i/libnand-sun7i(nand_info_init.o)
 .debug_frame   0x0000d4ac      0x100 nand_sunxi/sun7i/libnand-sun7i(nftl_init.o)
 .debug_frame   0x0000d5ac      0x1dc nand_sunxi/sun7i/libnand-sun7i(nftl_cache.o)
 .debug_frame   0x0000d788      0x128 nand_sunxi/sun7i/libnand-sun7i(nftl_sector_cache.o)
 .debug_frame   0x0000d8b0       0x54 nand_sunxi/sun7i/libnand-sun7i(nftl_start.o)
 .debug_frame   0x0000d904       0x70 nand_sunxi/sun7i/libnand-sun7i(nftl_interface.o)
 .debug_frame   0x0000d974      0x204 nand_sunxi/sun7i/libnand-sun7i(nftl_logic.o)
 .debug_frame   0x0000db78      0x1b0 nand_sunxi/sun7i/libnand-sun7i(nftl_gc.o)
 .debug_frame   0x0000dd28      0x244 nand_sunxi/sun7i/libnand-sun7i(nftl_common.o)
 .debug_frame   0x0000df6c      0x330 nand_sunxi/sun7i/libnand-sun7i(nftl_build.o)
 .debug_frame   0x0000e29c       0xa4 nand_sunxi/sun7i/libnand-sun7i(nftl_hw_interface.o)
 .debug_frame   0x0000e340      0x1f8 nand_sunxi/sun7i/libnand-sun7i(nftl_list.o)
 .debug_frame   0x0000e538      0x28c nand_sunxi/sun7i/osal/libnand_osal.o
 .debug_frame   0x0000e7c4      0x964 sprite/libsprite.o
 .debug_frame   0x0000f128      0x598 usb_sunxi/libsunxi_usb.o
 .debug_frame   0x0000f6c0       0x9c board/sunxi/sun7i/libsun7i.o
 .debug_frame   0x0000f75c      0xeb4 board/sunxi/libsunxi.o
 .debug_frame   0x00010610       0x38 /mnt/hdd1/ccfrom/A20_Tablet/A20_Tablet_repo_cut/lichee/brandy/u-boot-2011.09/arch/arm/lib/eabi_compat.o

.debug_loc      0x00000000    0x5f2db
 .debug_loc     0x00000000     0x1a49 board/sunxi/sun7i/standby/libstandby.o
 .debug_loc     0x00001a49      0x766 arch/arm/cpu/armv7/libarmv7.o
 .debug_loc     0x000021af     0x3df3 arch/arm/cpu/armv7/sun7i/libsun7i.o
 .debug_loc     0x00005fa2      0xa83 arch/arm/lib/libarm.o
 .debug_loc     0x00006a25     0xd194 common/libcommon.o
 .debug_loc     0x00013bb9      0x7fd disk/libdisk.o
 .debug_loc     0x000143b6      0x434 drivers/dma/libdma.o
 .debug_loc     0x000147ea      0x666 drivers/i2c/libi2c.o
 .debug_loc     0x00014e50     0x27d8 drivers/mmc/libmmc.o
 .debug_loc     0x00017628     0x1918 drivers/power/libpower.o
 .debug_loc     0x00018f40      0x52f drivers/pwm/libsunxi_pwm.o
 .debug_loc     0x0001946f       0x26 drivers/rtc/librtc.o
 .debug_loc     0x00019495      0x2a2 drivers/serial/libserial.o
 .debug_loc     0x00019737      0xd0b drivers/storage_type/libstorage_type.o
 .debug_loc     0x0001a442    0x188f7 drivers/video_sun7i/libvideo_sunxi.o
 .debug_loc     0x00032d39     0x344b fs/aw_fs/libawfat.o
 .debug_loc     0x00036184     0x3018 fs/fat/libfat.o
 .debug_loc     0x0003919c     0x3bae lib/libgeneric.o
 .debug_loc     0x0003cd4a     0x2236 lib/zlib/libz.o
 .debug_loc     0x0003ef80     0x198a nand_sunxi/nand_interface/libnand_interface.o
 .debug_loc     0x0004090a      0x481 nand_sunxi/sun7i/libnand-sun7i(nftl_uboot_interface.o)
 .debug_loc     0x00040d8b      0xa42 nand_sunxi/sun7i/libnand-sun7i(nand_format.o)
 .debug_loc     0x000417cd     0x24fe nand_sunxi/sun7i/libnand-sun7i(nand_phy.o)
 .debug_loc     0x00043ccb      0x45d nand_sunxi/sun7i/libnand-sun7i(nand_physic_interface.o)
 .debug_loc     0x00044128      0x777 nand_sunxi/sun7i/libnand-sun7i(nand_scan.o)
 .debug_loc     0x0004489f     0x1a78 nand_sunxi/sun7i/libnand-sun7i(nand_simple_r.o)
 .debug_loc     0x00046317      0xaf1 nand_sunxi/sun7i/libnand-sun7i(nand_simple_w.o)
 .debug_loc     0x00046e08     0x2dde nand_sunxi/sun7i/libnand-sun7i(nfc_r.o)
 .debug_loc     0x00049be6     0x1a74 nand_sunxi/sun7i/libnand-sun7i(nfc_w.o)
 .debug_loc     0x0004b65a      0x2e2 nand_sunxi/sun7i/libnand-sun7i(build_nand_partition.o)
 .debug_loc     0x0004b93c      0x8e6 nand_sunxi/sun7i/libnand-sun7i(build_phy_partition.o)
 .debug_loc     0x0004c222      0x855 nand_sunxi/sun7i/libnand-sun7i(nand_info_init.o)
 .debug_loc     0x0004ca77      0x31d nand_sunxi/sun7i/libnand-sun7i(nftl_init.o)
 .debug_loc     0x0004cd94      0xd83 nand_sunxi/sun7i/libnand-sun7i(nftl_cache.o)
 .debug_loc     0x0004db17      0x753 nand_sunxi/sun7i/libnand-sun7i(nftl_sector_cache.o)
 .debug_loc     0x0004e26a      0x250 nand_sunxi/sun7i/libnand-sun7i(nftl_start.o)
 .debug_loc     0x0004e4ba       0x72 nand_sunxi/sun7i/libnand-sun7i(nftl_interface.o)
 .debug_loc     0x0004e52c      0x970 nand_sunxi/sun7i/libnand-sun7i(nftl_logic.o)
 .debug_loc     0x0004ee9c      0x856 nand_sunxi/sun7i/libnand-sun7i(nftl_gc.o)
 .debug_loc     0x0004f6f2      0x9c9 nand_sunxi/sun7i/libnand-sun7i(nftl_common.o)
 .debug_loc     0x000500bb     0x1332 nand_sunxi/sun7i/libnand-sun7i(nftl_build.o)
 .debug_loc     0x000513ed      0x298 nand_sunxi/sun7i/libnand-sun7i(nftl_hw_interface.o)
 .debug_loc     0x00051685      0x80a nand_sunxi/sun7i/libnand-sun7i(nftl_list.o)
 .debug_loc     0x00051e8f      0x3e8 nand_sunxi/sun7i/osal/libnand_osal.o
 .debug_loc     0x00052277     0x2e71 sprite/libsprite.o
 .debug_loc     0x000550e8     0x3506 usb_sunxi/libsunxi_usb.o
 .debug_loc     0x000585ee       0xde board/sunxi/sun7i/libsun7i.o
 .debug_loc     0x000586cc     0x6bd1 board/sunxi/libsunxi.o
 .debug_loc     0x0005f29d       0x3e /mnt/hdd1/ccfrom/A20_Tablet/A20_Tablet_repo_cut/lichee/brandy/u-boot-2011.09/arch/arm/lib/eabi_compat.o

.debug_ranges   0x00000000     0x2d88
 .debug_ranges  0x00000000       0xf0 board/sunxi/sun7i/standby/libstandby.o
 .debug_ranges  0x000000f0       0x90 arch/arm/cpu/armv7/libarmv7.o
 .debug_ranges  0x00000180      0x430 arch/arm/cpu/armv7/sun7i/libsun7i.o
 .debug_ranges  0x000005b0       0x30 arch/arm/lib/libarm.o
 .debug_ranges  0x000005e0      0x8b8 common/libcommon.o
 .debug_ranges  0x00000e98       0x30 drivers/i2c/libi2c.o
 .debug_ranges  0x00000ec8      0x468 drivers/mmc/libmmc.o
 .debug_ranges  0x00001330       0x18 drivers/power/libpower.o
 .debug_ranges  0x00001348       0xb0 drivers/pwm/libsunxi_pwm.o
 .debug_ranges  0x000013f8      0x8b8 drivers/video_sun7i/libvideo_sunxi.o
 .debug_ranges  0x00001cb0      0x1d8 fs/aw_fs/libawfat.o
 .debug_ranges  0x00001e88      0x3b8 fs/fat/libfat.o
 .debug_ranges  0x00002240      0x228 lib/libgeneric.o
 .debug_ranges  0x00002468       0x48 lib/zlib/libz.o
 .debug_ranges  0x000024b0       0xb0 nand_sunxi/sun7i/libnand-sun7i(nand_phy.o)
 .debug_ranges  0x00002560      0x1d8 nand_sunxi/sun7i/libnand-sun7i(nand_simple_r.o)
 .debug_ranges  0x00002738       0x38 nand_sunxi/sun7i/libnand-sun7i(nftl_logic.o)
 .debug_ranges  0x00002770       0x30 nand_sunxi/sun7i/libnand-sun7i(nftl_common.o)
 .debug_ranges  0x000027a0       0x18 nand_sunxi/sun7i/libnand-sun7i(nftl_build.o)
 .debug_ranges  0x000027b8      0x380 usb_sunxi/libsunxi_usb.o
 .debug_ranges  0x00002b38      0x250 board/sunxi/libsunxi.o
